
/Users/mac/2024S2/COMP2560/pico-tflmicro/build/tests/flatbuffer_utils_test/flatbuffer_utils_test.elf:     file format elf32-littlearm

Sections:
Idx Name          Size      VMA       LMA       File off  Algn
  0 .boot2        00000100  10000000  10000000  00001000  2**0
                  CONTENTS, ALLOC, LOAD, READONLY, CODE
  1 .text         000195d8  10000100  10000100  00001100  2**3
                  CONTENTS, ALLOC, LOAD, READONLY, CODE
  2 .rodata       00002c80  100196d8  100196d8  0001a6d8  2**3
                  CONTENTS, ALLOC, LOAD, READONLY, DATA
  3 .ARM.extab    0000014c  1001c358  1001c358  0001d358  2**2
                  CONTENTS, ALLOC, LOAD, READONLY, DATA
  4 .ARM.exidx    000001f0  1001c4a4  1001c4a4  0001d4a4  2**2
                  CONTENTS, ALLOC, LOAD, READONLY, DATA
  5 .binary_info  00000020  1001c694  1001c694  0001d694  2**2
                  CONTENTS, ALLOC, LOAD, READONLY, DATA
  6 .ram_vector_table 000000c0  20000000  20000000  00021000  2**2
                  ALLOC
  7 .data         000024f8  200000c0  1001c6b4  0001e0c0  2**4
                  CONTENTS, ALLOC, LOAD, READONLY, CODE
  8 .uninitialized_data 00000000  200025b8  200025b8  000205b8  2**0
                  CONTENTS
  9 .scratch_x    00000000  20040000  20040000  000205b8  2**0
                  CONTENTS
 10 .scratch_y    00000000  20041000  20041000  000205b8  2**0
                  CONTENTS
 11 .bss          00000f44  200025b8  200025b8  000205b8  2**3
                  ALLOC
 12 .heap         00000800  200034fc  200034fc  000205b8  2**2
                  CONTENTS, READONLY
 13 .stack1_dummy 00000800  20040000  20040000  00021000  2**2
                  ALLOC
 14 .stack_dummy  00000800  20041000  20041000  00020dc0  2**5
                  CONTENTS, READONLY
 15 .ARM.attributes 00000028  00000000  00000000  000215c0  2**0
                  CONTENTS, READONLY
 16 .comment      00000045  00000000  00000000  000215e8  2**0
                  CONTENTS, READONLY
 17 .debug_frame  000047a0  00000000  00000000  00021630  2**2
                  CONTENTS, READONLY, DEBUGGING, OCTETS
 18 .debug_line_str 000001c6  00000000  00000000  00025dd0  2**0
                  CONTENTS, READONLY, DEBUGGING, OCTETS

/Users/mac/2024S2/COMP2560/pico-tflmicro/build/tests/flatbuffer_utils_test/flatbuffer_utils_test.elf:     file format elf32-littlearm


Disassembly of section .boot2:

10000000 <__boot2_start__>:
10000000:	4b32b500 	.word	0x4b32b500
10000004:	60582021 	.word	0x60582021
10000008:	21026898 	.word	0x21026898
1000000c:	60984388 	.word	0x60984388
10000010:	611860d8 	.word	0x611860d8
10000014:	4b2e6158 	.word	0x4b2e6158
10000018:	60992100 	.word	0x60992100
1000001c:	61592102 	.word	0x61592102
10000020:	22f02101 	.word	0x22f02101
10000024:	492b5099 	.word	0x492b5099
10000028:	21016019 	.word	0x21016019
1000002c:	20356099 	.word	0x20356099
10000030:	f844f000 	.word	0xf844f000
10000034:	42902202 	.word	0x42902202
10000038:	2106d014 	.word	0x2106d014
1000003c:	f0006619 	.word	0xf0006619
10000040:	6e19f834 	.word	0x6e19f834
10000044:	66192101 	.word	0x66192101
10000048:	66182000 	.word	0x66182000
1000004c:	f000661a 	.word	0xf000661a
10000050:	6e19f82c 	.word	0x6e19f82c
10000054:	6e196e19 	.word	0x6e196e19
10000058:	f0002005 	.word	0xf0002005
1000005c:	2101f82f 	.word	0x2101f82f
10000060:	d1f94208 	.word	0xd1f94208
10000064:	60992100 	.word	0x60992100
10000068:	6019491b 	.word	0x6019491b
1000006c:	60592100 	.word	0x60592100
10000070:	481b491a 	.word	0x481b491a
10000074:	21016001 	.word	0x21016001
10000078:	21eb6099 	.word	0x21eb6099
1000007c:	21a06619 	.word	0x21a06619
10000080:	f0006619 	.word	0xf0006619
10000084:	2100f812 	.word	0x2100f812
10000088:	49166099 	.word	0x49166099
1000008c:	60014814 	.word	0x60014814
10000090:	60992101 	.word	0x60992101
10000094:	2800bc01 	.word	0x2800bc01
10000098:	4700d000 	.word	0x4700d000
1000009c:	49134812 	.word	0x49134812
100000a0:	c8036008 	.word	0xc8036008
100000a4:	8808f380 	.word	0x8808f380
100000a8:	b5034708 	.word	0xb5034708
100000ac:	20046a99 	.word	0x20046a99
100000b0:	d0fb4201 	.word	0xd0fb4201
100000b4:	42012001 	.word	0x42012001
100000b8:	bd03d1f8 	.word	0xbd03d1f8
100000bc:	6618b502 	.word	0x6618b502
100000c0:	f7ff6618 	.word	0xf7ff6618
100000c4:	6e18fff2 	.word	0x6e18fff2
100000c8:	bd026e18 	.word	0xbd026e18
100000cc:	40020000 	.word	0x40020000
100000d0:	18000000 	.word	0x18000000
100000d4:	00070000 	.word	0x00070000
100000d8:	005f0300 	.word	0x005f0300
100000dc:	00002221 	.word	0x00002221
100000e0:	180000f4 	.word	0x180000f4
100000e4:	a0002022 	.word	0xa0002022
100000e8:	10000100 	.word	0x10000100
100000ec:	e000ed08 	.word	0xe000ed08
	...
100000fc:	7a4eb274 	.word	0x7a4eb274

Disassembly of section .text:

10000100 <__VECTOR_TABLE>:
10000100:	20042000 	.word	0x20042000
10000104:	100001f7 	.word	0x100001f7
10000108:	100001c3 	.word	0x100001c3
1000010c:	100001c5 	.word	0x100001c5
10000110:	100001c1 	.word	0x100001c1
10000114:	100001c1 	.word	0x100001c1
10000118:	100001c1 	.word	0x100001c1
1000011c:	100001c1 	.word	0x100001c1
10000120:	100001c1 	.word	0x100001c1
10000124:	100001c1 	.word	0x100001c1
10000128:	100001c1 	.word	0x100001c1
1000012c:	100001c7 	.word	0x100001c7
10000130:	100001c1 	.word	0x100001c1
10000134:	100001c1 	.word	0x100001c1
10000138:	100001c9 	.word	0x100001c9
1000013c:	100001cb 	.word	0x100001cb
10000140:	100001cd 	.word	0x100001cd
10000144:	100001cd 	.word	0x100001cd
10000148:	100001cd 	.word	0x100001cd
1000014c:	100001cd 	.word	0x100001cd
10000150:	100001cd 	.word	0x100001cd
10000154:	100001cd 	.word	0x100001cd
10000158:	100001cd 	.word	0x100001cd
1000015c:	100001cd 	.word	0x100001cd
10000160:	100001cd 	.word	0x100001cd
10000164:	100001cd 	.word	0x100001cd
10000168:	100001cd 	.word	0x100001cd
1000016c:	100001cd 	.word	0x100001cd
10000170:	100001cd 	.word	0x100001cd
10000174:	100001cd 	.word	0x100001cd
10000178:	100001cd 	.word	0x100001cd
1000017c:	100001cd 	.word	0x100001cd
10000180:	100001cd 	.word	0x100001cd
10000184:	100001cd 	.word	0x100001cd
10000188:	100001cd 	.word	0x100001cd
1000018c:	100001cd 	.word	0x100001cd
10000190:	100001cd 	.word	0x100001cd
10000194:	100001cd 	.word	0x100001cd
10000198:	100001cd 	.word	0x100001cd
1000019c:	100001cd 	.word	0x100001cd
100001a0:	100001cd 	.word	0x100001cd
100001a4:	100001cd 	.word	0x100001cd
100001a8:	100001cd 	.word	0x100001cd
100001ac:	100001cd 	.word	0x100001cd
100001b0:	100001cd 	.word	0x100001cd
100001b4:	100001cd 	.word	0x100001cd
100001b8:	100001cd 	.word	0x100001cd
100001bc:	100001cd 	.word	0x100001cd

100001c0 <isr_invalid>:
100001c0:	be00      	bkpt	0x0000

100001c2 <isr_nmi>:
100001c2:	be00      	bkpt	0x0000

100001c4 <isr_hardfault>:
100001c4:	be00      	bkpt	0x0000

100001c6 <isr_svcall>:
100001c6:	be00      	bkpt	0x0000

100001c8 <isr_pendsv>:
100001c8:	be00      	bkpt	0x0000

100001ca <isr_systick>:
100001ca:	be00      	bkpt	0x0000

100001cc <__unhandled_user_irq>:
100001cc:	f3ef 8005 	mrs	r0, IPSR
100001d0:	3810      	subs	r0, #16

100001d2 <unhandled_user_irq_num_in_r0>:
100001d2:	be00      	bkpt	0x0000

100001d4 <binary_info_header>:
100001d4:	7188ebf2 	.word	0x7188ebf2
100001d8:	1001c694 	.word	0x1001c694
100001dc:	1001c6b4 	.word	0x1001c6b4
100001e0:	10000234 	.word	0x10000234
100001e4:	e71aa390 	.word	0xe71aa390

100001e8 <_entry_point>:
100001e8:	2000      	movs	r0, #0
100001ea:	491f      	ldr	r1, [pc, #124]	@ (10000268 <hold_non_core0_in_bootrom+0xa>)
100001ec:	6008      	str	r0, [r1, #0]
100001ee:	c806      	ldmia	r0!, {r1, r2}
100001f0:	f381 8808 	msr	MSP, r1
100001f4:	4710      	bx	r2

100001f6 <_reset_handler>:
100001f6:	481d      	ldr	r0, [pc, #116]	@ (1000026c <hold_non_core0_in_bootrom+0xe>)
100001f8:	6800      	ldr	r0, [r0, #0]
100001fa:	2800      	cmp	r0, #0
100001fc:	d12f      	bne.n	1000025e <hold_non_core0_in_bootrom>
100001fe:	a40d      	add	r4, pc, #52	@ (adr r4, 10000234 <data_cpy_table>)
10000200:	cc0e      	ldmia	r4!, {r1, r2, r3}
10000202:	2900      	cmp	r1, #0
10000204:	d002      	beq.n	1000020c <_reset_handler+0x16>
10000206:	f000 f812 	bl	1000022e <data_cpy>
1000020a:	e7f9      	b.n	10000200 <_reset_handler+0xa>
1000020c:	4918      	ldr	r1, [pc, #96]	@ (10000270 <hold_non_core0_in_bootrom+0x12>)
1000020e:	4a19      	ldr	r2, [pc, #100]	@ (10000274 <hold_non_core0_in_bootrom+0x16>)
10000210:	2000      	movs	r0, #0
10000212:	e000      	b.n	10000216 <bss_fill_test>

10000214 <bss_fill_loop>:
10000214:	c101      	stmia	r1!, {r0}

10000216 <bss_fill_test>:
10000216:	4291      	cmp	r1, r2
10000218:	d1fc      	bne.n	10000214 <bss_fill_loop>

1000021a <platform_entry>:
1000021a:	4917      	ldr	r1, [pc, #92]	@ (10000278 <hold_non_core0_in_bootrom+0x1a>)
1000021c:	4788      	blx	r1
1000021e:	4917      	ldr	r1, [pc, #92]	@ (1000027c <hold_non_core0_in_bootrom+0x1e>)
10000220:	4788      	blx	r1
10000222:	4917      	ldr	r1, [pc, #92]	@ (10000280 <hold_non_core0_in_bootrom+0x22>)
10000224:	4788      	blx	r1
10000226:	be00      	bkpt	0x0000
10000228:	e7fd      	b.n	10000226 <platform_entry+0xc>

1000022a <data_cpy_loop>:
1000022a:	c901      	ldmia	r1!, {r0}
1000022c:	c201      	stmia	r2!, {r0}

1000022e <data_cpy>:
1000022e:	429a      	cmp	r2, r3
10000230:	d3fb      	bcc.n	1000022a <data_cpy_loop>
10000232:	4770      	bx	lr

10000234 <data_cpy_table>:
10000234:	1001c6b4 	.word	0x1001c6b4
10000238:	200000c0 	.word	0x200000c0
1000023c:	200025b8 	.word	0x200025b8
10000240:	1001ebac 	.word	0x1001ebac
10000244:	20040000 	.word	0x20040000
10000248:	20040000 	.word	0x20040000
1000024c:	1001ebac 	.word	0x1001ebac
10000250:	20041000 	.word	0x20041000
10000254:	20041000 	.word	0x20041000
10000258:	00000000 	.word	0x00000000
1000025c:	4770      	bx	lr

1000025e <hold_non_core0_in_bootrom>:
1000025e:	4809      	ldr	r0, [pc, #36]	@ (10000284 <hold_non_core0_in_bootrom+0x26>)
10000260:	f005 fd36 	bl	10005cd0 <rom_func_lookup>
10000264:	4700      	bx	r0
10000266:	0000      	.short	0x0000
10000268:	e000ed08 	.word	0xe000ed08
1000026c:	d0000000 	.word	0xd0000000
10000270:	200025b8 	.word	0x200025b8
10000274:	200034fc 	.word	0x200034fc
10000278:	10004365 	.word	0x10004365
1000027c:	10001209 	.word	0x10001209
10000280:	10004499 	.word	0x10004499
10000284:	00005657 	.word	0x00005657

10000288 <__bi_50>:
10000288:	50520006 5360b3ab 10019abc              ..RP..`S....

10000294 <__bi_38>:
10000294:	50520006 02031c86 10019acc              ..RP........

100002a0 <__bi_30>:
100002a0:	50520006 9da22254 10019ae4              ..RPT"......

100002ac <__bi_22>:
100002ac:	50520005 68f465de 1001ebac              ..RP.e.h....

100002b8 <_init>:
100002b8:	b5f8      	push	{r3, r4, r5, r6, r7, lr}
100002ba:	46c0      	nop			@ (mov r8, r8)

100002bc <register_tm_clones>:
100002bc:	4806      	ldr	r0, [pc, #24]	@ (100002d8 <register_tm_clones+0x1c>)
100002be:	4907      	ldr	r1, [pc, #28]	@ (100002dc <register_tm_clones+0x20>)
100002c0:	1a09      	subs	r1, r1, r0
100002c2:	108b      	asrs	r3, r1, #2
100002c4:	0fc9      	lsrs	r1, r1, #31
100002c6:	18c9      	adds	r1, r1, r3
100002c8:	b510      	push	{r4, lr}
100002ca:	1049      	asrs	r1, r1, #1
100002cc:	d003      	beq.n	100002d6 <register_tm_clones+0x1a>
100002ce:	4b04      	ldr	r3, [pc, #16]	@ (100002e0 <register_tm_clones+0x24>)
100002d0:	2b00      	cmp	r3, #0
100002d2:	d000      	beq.n	100002d6 <register_tm_clones+0x1a>
100002d4:	4798      	blx	r3
100002d6:	bd10      	pop	{r4, pc}
100002d8:	200025b8 	.word	0x200025b8
100002dc:	200025b8 	.word	0x200025b8
100002e0:	00000000 	.word	0x00000000

100002e4 <frame_dummy>:
100002e4:	4b05      	ldr	r3, [pc, #20]	@ (100002fc <frame_dummy+0x18>)
100002e6:	b510      	push	{r4, lr}
100002e8:	2b00      	cmp	r3, #0
100002ea:	d003      	beq.n	100002f4 <frame_dummy+0x10>
100002ec:	4904      	ldr	r1, [pc, #16]	@ (10000300 <frame_dummy+0x1c>)
100002ee:	4805      	ldr	r0, [pc, #20]	@ (10000304 <frame_dummy+0x20>)
100002f0:	e000      	b.n	100002f4 <frame_dummy+0x10>
100002f2:	bf00      	nop
100002f4:	f7ff ffe2 	bl	100002bc <register_tm_clones>
100002f8:	bd10      	pop	{r4, pc}
100002fa:	46c0      	nop			@ (mov r8, r8)
100002fc:	00000000 	.word	0x00000000
10000300:	20003484 	.word	0x20003484
10000304:	100196d8 	.word	0x100196d8

10000308 <_ZNSt8_Rb_treeIjjSt9_IdentityIjEN11flexbuffers7Builder16KeyOffsetCompareESaIjEE24_M_get_insert_unique_posERKj.isra.0>:
10000308:	b5f0      	push	{r4, r5, r6, r7, lr}
1000030a:	46d6      	mov	lr, sl
1000030c:	464f      	mov	r7, r9
1000030e:	4646      	mov	r6, r8
10000310:	688d      	ldr	r5, [r1, #8]
10000312:	4680      	mov	r8, r0
10000314:	4689      	mov	r9, r1
10000316:	4692      	mov	sl, r2
10000318:	b5c0      	push	{r6, r7, lr}
1000031a:	2d00      	cmp	r5, #0
1000031c:	d028      	beq.n	10000370 <_ZNSt8_Rb_treeIjjSt9_IdentityIjEN11flexbuffers7Builder16KeyOffsetCompareESaIjEE24_M_get_insert_unique_posERKj.isra.0+0x68>
1000031e:	680b      	ldr	r3, [r1, #0]
10000320:	681f      	ldr	r7, [r3, #0]
10000322:	18be      	adds	r6, r7, r2
10000324:	e004      	b.n	10000330 <_ZNSt8_Rb_treeIjjSt9_IdentityIjEN11flexbuffers7Builder16KeyOffsetCompareESaIjEE24_M_get_insert_unique_posERKj.isra.0+0x28>
10000326:	68eb      	ldr	r3, [r5, #12]
10000328:	2200      	movs	r2, #0
1000032a:	2b00      	cmp	r3, #0
1000032c:	d00c      	beq.n	10000348 <_ZNSt8_Rb_treeIjjSt9_IdentityIjEN11flexbuffers7Builder16KeyOffsetCompareESaIjEE24_M_get_insert_unique_posERKj.isra.0+0x40>
1000032e:	001d      	movs	r5, r3
10000330:	692c      	ldr	r4, [r5, #16]
10000332:	0030      	movs	r0, r6
10000334:	193c      	adds	r4, r7, r4
10000336:	0021      	movs	r1, r4
10000338:	f015 ffac 	bl	10016294 <strcmp>
1000033c:	2800      	cmp	r0, #0
1000033e:	daf2      	bge.n	10000326 <_ZNSt8_Rb_treeIjjSt9_IdentityIjEN11flexbuffers7Builder16KeyOffsetCompareESaIjEE24_M_get_insert_unique_posERKj.isra.0+0x1e>
10000340:	68ab      	ldr	r3, [r5, #8]
10000342:	2201      	movs	r2, #1
10000344:	2b00      	cmp	r3, #0
10000346:	d1f2      	bne.n	1000032e <_ZNSt8_Rb_treeIjjSt9_IdentityIjEN11flexbuffers7Builder16KeyOffsetCompareESaIjEE24_M_get_insert_unique_posERKj.isra.0+0x26>
10000348:	002f      	movs	r7, r5
1000034a:	2a00      	cmp	r2, #0
1000034c:	d111      	bne.n	10000372 <_ZNSt8_Rb_treeIjjSt9_IdentityIjEN11flexbuffers7Builder16KeyOffsetCompareESaIjEE24_M_get_insert_unique_posERKj.isra.0+0x6a>
1000034e:	0031      	movs	r1, r6
10000350:	0020      	movs	r0, r4
10000352:	f015 ff9f 	bl	10016294 <strcmp>
10000356:	2800      	cmp	r0, #0
10000358:	db21      	blt.n	1000039e <_ZNSt8_Rb_treeIjjSt9_IdentityIjEN11flexbuffers7Builder16KeyOffsetCompareESaIjEE24_M_get_insert_unique_posERKj.isra.0+0x96>
1000035a:	4643      	mov	r3, r8
1000035c:	4642      	mov	r2, r8
1000035e:	601d      	str	r5, [r3, #0]
10000360:	2300      	movs	r3, #0
10000362:	6053      	str	r3, [r2, #4]
10000364:	4640      	mov	r0, r8
10000366:	bce0      	pop	{r5, r6, r7}
10000368:	46ba      	mov	sl, r7
1000036a:	46b1      	mov	r9, r6
1000036c:	46a8      	mov	r8, r5
1000036e:	bdf0      	pop	{r4, r5, r6, r7, pc}
10000370:	1d0d      	adds	r5, r1, #4
10000372:	464b      	mov	r3, r9
10000374:	68db      	ldr	r3, [r3, #12]
10000376:	42ab      	cmp	r3, r5
10000378:	d016      	beq.n	100003a8 <_ZNSt8_Rb_treeIjjSt9_IdentityIjEN11flexbuffers7Builder16KeyOffsetCompareESaIjEE24_M_get_insert_unique_posERKj.isra.0+0xa0>
1000037a:	0028      	movs	r0, r5
1000037c:	f009 f910 	bl	100095a0 <_ZSt18_Rb_tree_decrementPSt18_Rb_tree_node_base>
10000380:	464b      	mov	r3, r9
10000382:	681b      	ldr	r3, [r3, #0]
10000384:	002f      	movs	r7, r5
10000386:	681c      	ldr	r4, [r3, #0]
10000388:	4653      	mov	r3, sl
1000038a:	18e6      	adds	r6, r4, r3
1000038c:	6903      	ldr	r3, [r0, #16]
1000038e:	0005      	movs	r5, r0
10000390:	18e4      	adds	r4, r4, r3
10000392:	0031      	movs	r1, r6
10000394:	0020      	movs	r0, r4
10000396:	f015 ff7d 	bl	10016294 <strcmp>
1000039a:	2800      	cmp	r0, #0
1000039c:	dadd      	bge.n	1000035a <_ZNSt8_Rb_treeIjjSt9_IdentityIjEN11flexbuffers7Builder16KeyOffsetCompareESaIjEE24_M_get_insert_unique_posERKj.isra.0+0x52>
1000039e:	4642      	mov	r2, r8
100003a0:	2300      	movs	r3, #0
100003a2:	6057      	str	r7, [r2, #4]
100003a4:	6013      	str	r3, [r2, #0]
100003a6:	e7dd      	b.n	10000364 <_ZNSt8_Rb_treeIjjSt9_IdentityIjEN11flexbuffers7Builder16KeyOffsetCompareESaIjEE24_M_get_insert_unique_posERKj.isra.0+0x5c>
100003a8:	4642      	mov	r2, r8
100003aa:	2300      	movs	r3, #0
100003ac:	6055      	str	r5, [r2, #4]
100003ae:	6013      	str	r3, [r2, #0]
100003b0:	e7d8      	b.n	10000364 <_ZNSt8_Rb_treeIjjSt9_IdentityIjEN11flexbuffers7Builder16KeyOffsetCompareESaIjEE24_M_get_insert_unique_posERKj.isra.0+0x5c>
100003b2:	46c0      	nop			@ (mov r8, r8)

100003b4 <_ZNSt8_Rb_treeIjjSt9_IdentityIjEN11flexbuffers7Builder16KeyOffsetCompareESaIjEE16_M_insert_uniqueIRKjEESt4pairISt17_Rb_tree_iteratorIjEbEOT_.isra.0>:
100003b4:	b5f0      	push	{r4, r5, r6, r7, lr}
100003b6:	46c6      	mov	lr, r8
100003b8:	b500      	push	{lr}
100003ba:	680f      	ldr	r7, [r1, #0]
100003bc:	b082      	sub	sp, #8
100003be:	0004      	movs	r4, r0
100003c0:	000d      	movs	r5, r1
100003c2:	003a      	movs	r2, r7
100003c4:	0001      	movs	r1, r0
100003c6:	4668      	mov	r0, sp
100003c8:	f7ff ff9e 	bl	10000308 <_ZNSt8_Rb_treeIjjSt9_IdentityIjEN11flexbuffers7Builder16KeyOffsetCompareESaIjEE24_M_get_insert_unique_posERKj.isra.0>
100003cc:	9e01      	ldr	r6, [sp, #4]
100003ce:	2e00      	cmp	r6, #0
100003d0:	d013      	beq.n	100003fa <_ZNSt8_Rb_treeIjjSt9_IdentityIjEN11flexbuffers7Builder16KeyOffsetCompareESaIjEE16_M_insert_uniqueIRKjEESt4pairISt17_Rb_tree_iteratorIjEbEOT_.isra.0+0x46>
100003d2:	9b00      	ldr	r3, [sp, #0]
100003d4:	2b00      	cmp	r3, #0
100003d6:	d014      	beq.n	10000402 <_ZNSt8_Rb_treeIjjSt9_IdentityIjEN11flexbuffers7Builder16KeyOffsetCompareESaIjEE16_M_insert_uniqueIRKjEESt4pairISt17_Rb_tree_iteratorIjEbEOT_.isra.0+0x4e>
100003d8:	1d23      	adds	r3, r4, #4
100003da:	2701      	movs	r7, #1
100003dc:	4698      	mov	r8, r3
100003de:	2014      	movs	r0, #20
100003e0:	f006 fce8 	bl	10006db4 <_Znwj>
100003e4:	682b      	ldr	r3, [r5, #0]
100003e6:	0001      	movs	r1, r0
100003e8:	6103      	str	r3, [r0, #16]
100003ea:	0032      	movs	r2, r6
100003ec:	4643      	mov	r3, r8
100003ee:	0038      	movs	r0, r7
100003f0:	f009 f8f2 	bl	100095d8 <_ZSt29_Rb_tree_insert_and_rebalancebPSt18_Rb_tree_node_baseS0_RS_>
100003f4:	6963      	ldr	r3, [r4, #20]
100003f6:	3301      	adds	r3, #1
100003f8:	6163      	str	r3, [r4, #20]
100003fa:	b002      	add	sp, #8
100003fc:	bc80      	pop	{r7}
100003fe:	46b8      	mov	r8, r7
10000400:	bdf0      	pop	{r4, r5, r6, r7, pc}
10000402:	1d23      	adds	r3, r4, #4
10000404:	4698      	mov	r8, r3
10000406:	429e      	cmp	r6, r3
10000408:	d008      	beq.n	1000041c <_ZNSt8_Rb_treeIjjSt9_IdentityIjEN11flexbuffers7Builder16KeyOffsetCompareESaIjEE16_M_insert_uniqueIRKjEESt4pairISt17_Rb_tree_iteratorIjEbEOT_.isra.0+0x68>
1000040a:	6823      	ldr	r3, [r4, #0]
1000040c:	6931      	ldr	r1, [r6, #16]
1000040e:	6818      	ldr	r0, [r3, #0]
10000410:	1841      	adds	r1, r0, r1
10000412:	19c0      	adds	r0, r0, r7
10000414:	f015 ff3e 	bl	10016294 <strcmp>
10000418:	0fc7      	lsrs	r7, r0, #31
1000041a:	e7e0      	b.n	100003de <_ZNSt8_Rb_treeIjjSt9_IdentityIjEN11flexbuffers7Builder16KeyOffsetCompareESaIjEE16_M_insert_uniqueIRKjEESt4pairISt17_Rb_tree_iteratorIjEbEOT_.isra.0+0x2a>
1000041c:	2701      	movs	r7, #1
1000041e:	e7de      	b.n	100003de <_ZNSt8_Rb_treeIjjSt9_IdentityIjEN11flexbuffers7Builder16KeyOffsetCompareESaIjEE16_M_insert_uniqueIRKjEESt4pairISt17_Rb_tree_iteratorIjEbEOT_.isra.0+0x2a>

10000420 <_ZNSt6vectorIhSaIhEE15_M_range_insertIPKhEEvN9__gnu_cxx17__normal_iteratorIPhS1_EET_S9_St20forward_iterator_tag.isra.0>:
10000420:	b5f0      	push	{r4, r5, r6, r7, lr}
10000422:	464e      	mov	r6, r9
10000424:	4645      	mov	r5, r8
10000426:	46de      	mov	lr, fp
10000428:	4657      	mov	r7, sl
1000042a:	b5e0      	push	{r5, r6, r7, lr}
1000042c:	0004      	movs	r4, r0
1000042e:	000e      	movs	r6, r1
10000430:	0015      	movs	r5, r2
10000432:	b083      	sub	sp, #12
10000434:	429a      	cmp	r2, r3
10000436:	d02b      	beq.n	10000490 <_ZNSt6vectorIhSaIhEE15_M_range_insertIPKhEEvN9__gnu_cxx17__normal_iteratorIPhS1_EET_S9_St20forward_iterator_tag.isra.0+0x70>
10000438:	1a9a      	subs	r2, r3, r2
1000043a:	4690      	mov	r8, r2
1000043c:	6847      	ldr	r7, [r0, #4]
1000043e:	6882      	ldr	r2, [r0, #8]
10000440:	1bd2      	subs	r2, r2, r7
10000442:	4590      	cmp	r8, r2
10000444:	d82b      	bhi.n	1000049e <_ZNSt6vectorIhSaIhEE15_M_range_insertIPKhEEvN9__gnu_cxx17__normal_iteratorIPhS1_EET_S9_St20forward_iterator_tag.isra.0+0x7e>
10000446:	1a7a      	subs	r2, r7, r1
10000448:	4691      	mov	r9, r2
1000044a:	4590      	cmp	r8, r2
1000044c:	d242      	bcs.n	100004d4 <_ZNSt6vectorIhSaIhEE15_M_range_insertIPKhEEvN9__gnu_cxx17__normal_iteratorIPhS1_EET_S9_St20forward_iterator_tag.isra.0+0xb4>
1000044e:	4643      	mov	r3, r8
10000450:	1afb      	subs	r3, r7, r3
10000452:	4699      	mov	r9, r3
10000454:	4643      	mov	r3, r8
10000456:	2b01      	cmp	r3, #1
10000458:	dc00      	bgt.n	1000045c <_ZNSt6vectorIhSaIhEE15_M_range_insertIPKhEEvN9__gnu_cxx17__normal_iteratorIPhS1_EET_S9_St20forward_iterator_tag.isra.0+0x3c>
1000045a:	e09c      	b.n	10000596 <_ZNSt6vectorIhSaIhEE15_M_range_insertIPKhEEvN9__gnu_cxx17__normal_iteratorIPhS1_EET_S9_St20forward_iterator_tag.isra.0+0x176>
1000045c:	4642      	mov	r2, r8
1000045e:	4649      	mov	r1, r9
10000460:	0038      	movs	r0, r7
10000462:	f015 fd7b 	bl	10015f5c <memmove>
10000466:	6863      	ldr	r3, [r4, #4]
10000468:	4443      	add	r3, r8
1000046a:	6063      	str	r3, [r4, #4]
1000046c:	464b      	mov	r3, r9
1000046e:	1b9a      	subs	r2, r3, r6
10000470:	2a01      	cmp	r2, #1
10000472:	dc00      	bgt.n	10000476 <_ZNSt6vectorIhSaIhEE15_M_range_insertIPKhEEvN9__gnu_cxx17__normal_iteratorIPhS1_EET_S9_St20forward_iterator_tag.isra.0+0x56>
10000474:	e099      	b.n	100005aa <_ZNSt6vectorIhSaIhEE15_M_range_insertIPKhEEvN9__gnu_cxx17__normal_iteratorIPhS1_EET_S9_St20forward_iterator_tag.isra.0+0x18a>
10000476:	0031      	movs	r1, r6
10000478:	1ab8      	subs	r0, r7, r2
1000047a:	f015 fd6f 	bl	10015f5c <memmove>
1000047e:	4643      	mov	r3, r8
10000480:	2b01      	cmp	r3, #1
10000482:	dc00      	bgt.n	10000486 <_ZNSt6vectorIhSaIhEE15_M_range_insertIPKhEEvN9__gnu_cxx17__normal_iteratorIPhS1_EET_S9_St20forward_iterator_tag.isra.0+0x66>
10000484:	e076      	b.n	10000574 <_ZNSt6vectorIhSaIhEE15_M_range_insertIPKhEEvN9__gnu_cxx17__normal_iteratorIPhS1_EET_S9_St20forward_iterator_tag.isra.0+0x154>
10000486:	4642      	mov	r2, r8
10000488:	0029      	movs	r1, r5
1000048a:	0030      	movs	r0, r6
1000048c:	f015 fd66 	bl	10015f5c <memmove>
10000490:	b003      	add	sp, #12
10000492:	bcf0      	pop	{r4, r5, r6, r7}
10000494:	46bb      	mov	fp, r7
10000496:	46b2      	mov	sl, r6
10000498:	46a9      	mov	r9, r5
1000049a:	46a0      	mov	r8, r4
1000049c:	bdf0      	pop	{r4, r5, r6, r7, pc}
1000049e:	6803      	ldr	r3, [r0, #0]
100004a0:	4a53      	ldr	r2, [pc, #332]	@ (100005f0 <_ZNSt6vectorIhSaIhEE15_M_range_insertIPKhEEvN9__gnu_cxx17__normal_iteratorIPhS1_EET_S9_St20forward_iterator_tag.isra.0+0x1d0>)
100004a2:	469a      	mov	sl, r3
100004a4:	1afb      	subs	r3, r7, r3
100004a6:	1ad1      	subs	r1, r2, r3
100004a8:	4588      	cmp	r8, r1
100004aa:	d900      	bls.n	100004ae <_ZNSt6vectorIhSaIhEE15_M_range_insertIPKhEEvN9__gnu_cxx17__normal_iteratorIPhS1_EET_S9_St20forward_iterator_tag.isra.0+0x8e>
100004ac:	e09c      	b.n	100005e8 <_ZNSt6vectorIhSaIhEE15_M_range_insertIPKhEEvN9__gnu_cxx17__normal_iteratorIPhS1_EET_S9_St20forward_iterator_tag.isra.0+0x1c8>
100004ae:	4598      	cmp	r8, r3
100004b0:	d82b      	bhi.n	1000050a <_ZNSt6vectorIhSaIhEE15_M_range_insertIPKhEEvN9__gnu_cxx17__normal_iteratorIPhS1_EET_S9_St20forward_iterator_tag.isra.0+0xea>
100004b2:	4691      	mov	r9, r2
100004b4:	0059      	lsls	r1, r3, #1
100004b6:	4299      	cmp	r1, r3
100004b8:	d304      	bcc.n	100004c4 <_ZNSt6vectorIhSaIhEE15_M_range_insertIPKhEEvN9__gnu_cxx17__normal_iteratorIPhS1_EET_S9_St20forward_iterator_tag.isra.0+0xa4>
100004ba:	2380      	movs	r3, #128	@ 0x80
100004bc:	4689      	mov	r9, r1
100004be:	061b      	lsls	r3, r3, #24
100004c0:	4299      	cmp	r1, r3
100004c2:	d255      	bcs.n	10000570 <_ZNSt6vectorIhSaIhEE15_M_range_insertIPKhEEvN9__gnu_cxx17__normal_iteratorIPhS1_EET_S9_St20forward_iterator_tag.isra.0+0x150>
100004c4:	4648      	mov	r0, r9
100004c6:	f006 fc75 	bl	10006db4 <_Znwj>
100004ca:	464b      	mov	r3, r9
100004cc:	4683      	mov	fp, r0
100004ce:	445b      	add	r3, fp
100004d0:	9301      	str	r3, [sp, #4]
100004d2:	e023      	b.n	1000051c <_ZNSt6vectorIhSaIhEE15_M_range_insertIPKhEEvN9__gnu_cxx17__normal_iteratorIPhS1_EET_S9_St20forward_iterator_tag.isra.0+0xfc>
100004d4:	18a9      	adds	r1, r5, r2
100004d6:	1a5a      	subs	r2, r3, r1
100004d8:	2a01      	cmp	r2, #1
100004da:	dd51      	ble.n	10000580 <_ZNSt6vectorIhSaIhEE15_M_range_insertIPKhEEvN9__gnu_cxx17__normal_iteratorIPhS1_EET_S9_St20forward_iterator_tag.isra.0+0x160>
100004dc:	0038      	movs	r0, r7
100004de:	f015 fd3d 	bl	10015f5c <memmove>
100004e2:	6867      	ldr	r7, [r4, #4]
100004e4:	4643      	mov	r3, r8
100004e6:	464a      	mov	r2, r9
100004e8:	1a98      	subs	r0, r3, r2
100004ea:	1838      	adds	r0, r7, r0
100004ec:	6060      	str	r0, [r4, #4]
100004ee:	2a01      	cmp	r2, #1
100004f0:	dd4c      	ble.n	1000058c <_ZNSt6vectorIhSaIhEE15_M_range_insertIPKhEEvN9__gnu_cxx17__normal_iteratorIPhS1_EET_S9_St20forward_iterator_tag.isra.0+0x16c>
100004f2:	0031      	movs	r1, r6
100004f4:	f015 fd32 	bl	10015f5c <memmove>
100004f8:	6863      	ldr	r3, [r4, #4]
100004fa:	464a      	mov	r2, r9
100004fc:	444b      	add	r3, r9
100004fe:	0029      	movs	r1, r5
10000500:	0030      	movs	r0, r6
10000502:	6063      	str	r3, [r4, #4]
10000504:	f015 fd2a 	bl	10015f5c <memmove>
10000508:	e7c2      	b.n	10000490 <_ZNSt6vectorIhSaIhEE15_M_range_insertIPKhEEvN9__gnu_cxx17__normal_iteratorIPhS1_EET_S9_St20forward_iterator_tag.isra.0+0x70>
1000050a:	4641      	mov	r1, r8
1000050c:	18c9      	adds	r1, r1, r3
1000050e:	428b      	cmp	r3, r1
10000510:	d82e      	bhi.n	10000570 <_ZNSt6vectorIhSaIhEE15_M_range_insertIPKhEEvN9__gnu_cxx17__normal_iteratorIPhS1_EET_S9_St20forward_iterator_tag.isra.0+0x150>
10000512:	2300      	movs	r3, #0
10000514:	469b      	mov	fp, r3
10000516:	9301      	str	r3, [sp, #4]
10000518:	2900      	cmp	r1, #0
1000051a:	d1ce      	bne.n	100004ba <_ZNSt6vectorIhSaIhEE15_M_range_insertIPKhEEvN9__gnu_cxx17__normal_iteratorIPhS1_EET_S9_St20forward_iterator_tag.isra.0+0x9a>
1000051c:	4653      	mov	r3, sl
1000051e:	1af3      	subs	r3, r6, r3
10000520:	4699      	mov	r9, r3
10000522:	2b01      	cmp	r3, #1
10000524:	dd53      	ble.n	100005ce <_ZNSt6vectorIhSaIhEE15_M_range_insertIPKhEEvN9__gnu_cxx17__normal_iteratorIPhS1_EET_S9_St20forward_iterator_tag.isra.0+0x1ae>
10000526:	001a      	movs	r2, r3
10000528:	4651      	mov	r1, sl
1000052a:	4658      	mov	r0, fp
1000052c:	f015 fd16 	bl	10015f5c <memmove>
10000530:	4643      	mov	r3, r8
10000532:	44d9      	add	r9, fp
10000534:	2b01      	cmp	r3, #1
10000536:	dd44      	ble.n	100005c2 <_ZNSt6vectorIhSaIhEE15_M_range_insertIPKhEEvN9__gnu_cxx17__normal_iteratorIPhS1_EET_S9_St20forward_iterator_tag.isra.0+0x1a2>
10000538:	4642      	mov	r2, r8
1000053a:	0029      	movs	r1, r5
1000053c:	4648      	mov	r0, r9
1000053e:	f006 fc33 	bl	10006da8 <__wrap___aeabi_memcpy>
10000542:	464d      	mov	r5, r9
10000544:	1bbf      	subs	r7, r7, r6
10000546:	4445      	add	r5, r8
10000548:	2f01      	cmp	r7, #1
1000054a:	dd35      	ble.n	100005b8 <_ZNSt6vectorIhSaIhEE15_M_range_insertIPKhEEvN9__gnu_cxx17__normal_iteratorIPhS1_EET_S9_St20forward_iterator_tag.isra.0+0x198>
1000054c:	003a      	movs	r2, r7
1000054e:	0031      	movs	r1, r6
10000550:	0028      	movs	r0, r5
10000552:	f006 fc29 	bl	10006da8 <__wrap___aeabi_memcpy>
10000556:	4653      	mov	r3, sl
10000558:	19ed      	adds	r5, r5, r7
1000055a:	2b00      	cmp	r3, #0
1000055c:	d002      	beq.n	10000564 <_ZNSt6vectorIhSaIhEE15_M_range_insertIPKhEEvN9__gnu_cxx17__normal_iteratorIPhS1_EET_S9_St20forward_iterator_tag.isra.0+0x144>
1000055e:	4650      	mov	r0, sl
10000560:	f006 fc2c 	bl	10006dbc <_ZdlPv>
10000564:	465b      	mov	r3, fp
10000566:	6023      	str	r3, [r4, #0]
10000568:	9b01      	ldr	r3, [sp, #4]
1000056a:	6065      	str	r5, [r4, #4]
1000056c:	60a3      	str	r3, [r4, #8]
1000056e:	e78f      	b.n	10000490 <_ZNSt6vectorIhSaIhEE15_M_range_insertIPKhEEvN9__gnu_cxx17__normal_iteratorIPhS1_EET_S9_St20forward_iterator_tag.isra.0+0x70>
10000570:	4691      	mov	r9, r2
10000572:	e7a7      	b.n	100004c4 <_ZNSt6vectorIhSaIhEE15_M_range_insertIPKhEEvN9__gnu_cxx17__normal_iteratorIPhS1_EET_S9_St20forward_iterator_tag.isra.0+0xa4>
10000574:	2b01      	cmp	r3, #1
10000576:	d000      	beq.n	1000057a <_ZNSt6vectorIhSaIhEE15_M_range_insertIPKhEEvN9__gnu_cxx17__normal_iteratorIPhS1_EET_S9_St20forward_iterator_tag.isra.0+0x15a>
10000578:	e78a      	b.n	10000490 <_ZNSt6vectorIhSaIhEE15_M_range_insertIPKhEEvN9__gnu_cxx17__normal_iteratorIPhS1_EET_S9_St20forward_iterator_tag.isra.0+0x70>
1000057a:	782b      	ldrb	r3, [r5, #0]
1000057c:	7033      	strb	r3, [r6, #0]
1000057e:	e787      	b.n	10000490 <_ZNSt6vectorIhSaIhEE15_M_range_insertIPKhEEvN9__gnu_cxx17__normal_iteratorIPhS1_EET_S9_St20forward_iterator_tag.isra.0+0x70>
10000580:	2a01      	cmp	r2, #1
10000582:	d1af      	bne.n	100004e4 <_ZNSt6vectorIhSaIhEE15_M_range_insertIPKhEEvN9__gnu_cxx17__normal_iteratorIPhS1_EET_S9_St20forward_iterator_tag.isra.0+0xc4>
10000584:	780b      	ldrb	r3, [r1, #0]
10000586:	703b      	strb	r3, [r7, #0]
10000588:	6847      	ldr	r7, [r0, #4]
1000058a:	e7ab      	b.n	100004e4 <_ZNSt6vectorIhSaIhEE15_M_range_insertIPKhEEvN9__gnu_cxx17__normal_iteratorIPhS1_EET_S9_St20forward_iterator_tag.isra.0+0xc4>
1000058c:	2a01      	cmp	r2, #1
1000058e:	d025      	beq.n	100005dc <_ZNSt6vectorIhSaIhEE15_M_range_insertIPKhEEvN9__gnu_cxx17__normal_iteratorIPhS1_EET_S9_St20forward_iterator_tag.isra.0+0x1bc>
10000590:	4447      	add	r7, r8
10000592:	6067      	str	r7, [r4, #4]
10000594:	e77c      	b.n	10000490 <_ZNSt6vectorIhSaIhEE15_M_range_insertIPKhEEvN9__gnu_cxx17__normal_iteratorIPhS1_EET_S9_St20forward_iterator_tag.isra.0+0x70>
10000596:	4642      	mov	r2, r8
10000598:	003b      	movs	r3, r7
1000059a:	2a01      	cmp	r2, #1
1000059c:	d000      	beq.n	100005a0 <_ZNSt6vectorIhSaIhEE15_M_range_insertIPKhEEvN9__gnu_cxx17__normal_iteratorIPhS1_EET_S9_St20forward_iterator_tag.isra.0+0x180>
1000059e:	e763      	b.n	10000468 <_ZNSt6vectorIhSaIhEE15_M_range_insertIPKhEEvN9__gnu_cxx17__normal_iteratorIPhS1_EET_S9_St20forward_iterator_tag.isra.0+0x48>
100005a0:	464b      	mov	r3, r9
100005a2:	781b      	ldrb	r3, [r3, #0]
100005a4:	703b      	strb	r3, [r7, #0]
100005a6:	6843      	ldr	r3, [r0, #4]
100005a8:	e75e      	b.n	10000468 <_ZNSt6vectorIhSaIhEE15_M_range_insertIPKhEEvN9__gnu_cxx17__normal_iteratorIPhS1_EET_S9_St20forward_iterator_tag.isra.0+0x48>
100005aa:	2a01      	cmp	r2, #1
100005ac:	d000      	beq.n	100005b0 <_ZNSt6vectorIhSaIhEE15_M_range_insertIPKhEEvN9__gnu_cxx17__normal_iteratorIPhS1_EET_S9_St20forward_iterator_tag.isra.0+0x190>
100005ae:	e766      	b.n	1000047e <_ZNSt6vectorIhSaIhEE15_M_range_insertIPKhEEvN9__gnu_cxx17__normal_iteratorIPhS1_EET_S9_St20forward_iterator_tag.isra.0+0x5e>
100005b0:	7833      	ldrb	r3, [r6, #0]
100005b2:	3f01      	subs	r7, #1
100005b4:	703b      	strb	r3, [r7, #0]
100005b6:	e762      	b.n	1000047e <_ZNSt6vectorIhSaIhEE15_M_range_insertIPKhEEvN9__gnu_cxx17__normal_iteratorIPhS1_EET_S9_St20forward_iterator_tag.isra.0+0x5e>
100005b8:	2f01      	cmp	r7, #1
100005ba:	d1cc      	bne.n	10000556 <_ZNSt6vectorIhSaIhEE15_M_range_insertIPKhEEvN9__gnu_cxx17__normal_iteratorIPhS1_EET_S9_St20forward_iterator_tag.isra.0+0x136>
100005bc:	7833      	ldrb	r3, [r6, #0]
100005be:	702b      	strb	r3, [r5, #0]
100005c0:	e7c9      	b.n	10000556 <_ZNSt6vectorIhSaIhEE15_M_range_insertIPKhEEvN9__gnu_cxx17__normal_iteratorIPhS1_EET_S9_St20forward_iterator_tag.isra.0+0x136>
100005c2:	2b01      	cmp	r3, #1
100005c4:	d1bd      	bne.n	10000542 <_ZNSt6vectorIhSaIhEE15_M_range_insertIPKhEEvN9__gnu_cxx17__normal_iteratorIPhS1_EET_S9_St20forward_iterator_tag.isra.0+0x122>
100005c6:	464a      	mov	r2, r9
100005c8:	782b      	ldrb	r3, [r5, #0]
100005ca:	7013      	strb	r3, [r2, #0]
100005cc:	e7b9      	b.n	10000542 <_ZNSt6vectorIhSaIhEE15_M_range_insertIPKhEEvN9__gnu_cxx17__normal_iteratorIPhS1_EET_S9_St20forward_iterator_tag.isra.0+0x122>
100005ce:	2b01      	cmp	r3, #1
100005d0:	d1ae      	bne.n	10000530 <_ZNSt6vectorIhSaIhEE15_M_range_insertIPKhEEvN9__gnu_cxx17__normal_iteratorIPhS1_EET_S9_St20forward_iterator_tag.isra.0+0x110>
100005d2:	4653      	mov	r3, sl
100005d4:	465a      	mov	r2, fp
100005d6:	781b      	ldrb	r3, [r3, #0]
100005d8:	7013      	strb	r3, [r2, #0]
100005da:	e7a9      	b.n	10000530 <_ZNSt6vectorIhSaIhEE15_M_range_insertIPKhEEvN9__gnu_cxx17__normal_iteratorIPhS1_EET_S9_St20forward_iterator_tag.isra.0+0x110>
100005dc:	7833      	ldrb	r3, [r6, #0]
100005de:	7003      	strb	r3, [r0, #0]
100005e0:	6863      	ldr	r3, [r4, #4]
100005e2:	3301      	adds	r3, #1
100005e4:	6063      	str	r3, [r4, #4]
100005e6:	e7c8      	b.n	1000057a <_ZNSt6vectorIhSaIhEE15_M_range_insertIPKhEEvN9__gnu_cxx17__normal_iteratorIPhS1_EET_S9_St20forward_iterator_tag.isra.0+0x15a>
100005e8:	4802      	ldr	r0, [pc, #8]	@ (100005f4 <_ZNSt6vectorIhSaIhEE15_M_range_insertIPKhEEvN9__gnu_cxx17__normal_iteratorIPhS1_EET_S9_St20forward_iterator_tag.isra.0+0x1d4>)
100005ea:	f009 f8f7 	bl	100097dc <_ZSt20__throw_length_errorPKc>
100005ee:	46c0      	nop			@ (mov r8, r8)
100005f0:	7fffffff 	.word	0x7fffffff
100005f4:	100196d8 	.word	0x100196d8

100005f8 <_ZNSt8_Rb_treeIjjSt9_IdentityIjEN11flexbuffers7Builder16KeyOffsetCompareESaIjEE8_M_eraseEPSt13_Rb_tree_nodeIjE.isra.0>:
100005f8:	b5f0      	push	{r4, r5, r6, r7, lr}
100005fa:	46de      	mov	lr, fp
100005fc:	4657      	mov	r7, sl
100005fe:	464e      	mov	r6, r9
10000600:	4645      	mov	r5, r8
10000602:	b5e0      	push	{r5, r6, r7, lr}
10000604:	b083      	sub	sp, #12
10000606:	9001      	str	r0, [sp, #4]
10000608:	2800      	cmp	r0, #0
1000060a:	d06d      	beq.n	100006e8 <_ZNSt8_Rb_treeIjjSt9_IdentityIjEN11flexbuffers7Builder16KeyOffsetCompareESaIjEE8_M_eraseEPSt13_Rb_tree_nodeIjE.isra.0+0xf0>
1000060c:	9b01      	ldr	r3, [sp, #4]
1000060e:	68db      	ldr	r3, [r3, #12]
10000610:	4699      	mov	r9, r3
10000612:	2b00      	cmp	r3, #0
10000614:	d060      	beq.n	100006d8 <_ZNSt8_Rb_treeIjjSt9_IdentityIjEN11flexbuffers7Builder16KeyOffsetCompareESaIjEE8_M_eraseEPSt13_Rb_tree_nodeIjE.isra.0+0xe0>
10000616:	464b      	mov	r3, r9
10000618:	68db      	ldr	r3, [r3, #12]
1000061a:	469a      	mov	sl, r3
1000061c:	2b00      	cmp	r3, #0
1000061e:	d052      	beq.n	100006c6 <_ZNSt8_Rb_treeIjjSt9_IdentityIjEN11flexbuffers7Builder16KeyOffsetCompareESaIjEE8_M_eraseEPSt13_Rb_tree_nodeIjE.isra.0+0xce>
10000620:	4653      	mov	r3, sl
10000622:	68db      	ldr	r3, [r3, #12]
10000624:	469b      	mov	fp, r3
10000626:	2b00      	cmp	r3, #0
10000628:	d044      	beq.n	100006b4 <_ZNSt8_Rb_treeIjjSt9_IdentityIjEN11flexbuffers7Builder16KeyOffsetCompareESaIjEE8_M_eraseEPSt13_Rb_tree_nodeIjE.isra.0+0xbc>
1000062a:	465b      	mov	r3, fp
1000062c:	68dc      	ldr	r4, [r3, #12]
1000062e:	2c00      	cmp	r4, #0
10000630:	d02e      	beq.n	10000690 <_ZNSt8_Rb_treeIjjSt9_IdentityIjEN11flexbuffers7Builder16KeyOffsetCompareESaIjEE8_M_eraseEPSt13_Rb_tree_nodeIjE.isra.0+0x98>
10000632:	68e5      	ldr	r5, [r4, #12]
10000634:	2d00      	cmp	r5, #0
10000636:	d01b      	beq.n	10000670 <_ZNSt8_Rb_treeIjjSt9_IdentityIjEN11flexbuffers7Builder16KeyOffsetCompareESaIjEE8_M_eraseEPSt13_Rb_tree_nodeIjE.isra.0+0x78>
10000638:	68eb      	ldr	r3, [r5, #12]
1000063a:	4698      	mov	r8, r3
1000063c:	2b00      	cmp	r3, #0
1000063e:	d01f      	beq.n	10000680 <_ZNSt8_Rb_treeIjjSt9_IdentityIjEN11flexbuffers7Builder16KeyOffsetCompareESaIjEE8_M_eraseEPSt13_Rb_tree_nodeIjE.isra.0+0x88>
10000640:	4643      	mov	r3, r8
10000642:	68de      	ldr	r6, [r3, #12]
10000644:	2e00      	cmp	r6, #0
10000646:	d02c      	beq.n	100006a2 <_ZNSt8_Rb_treeIjjSt9_IdentityIjEN11flexbuffers7Builder16KeyOffsetCompareESaIjEE8_M_eraseEPSt13_Rb_tree_nodeIjE.isra.0+0xaa>
10000648:	68f7      	ldr	r7, [r6, #12]
1000064a:	2f00      	cmp	r7, #0
1000064c:	d008      	beq.n	10000660 <_ZNSt8_Rb_treeIjjSt9_IdentityIjEN11flexbuffers7Builder16KeyOffsetCompareESaIjEE8_M_eraseEPSt13_Rb_tree_nodeIjE.isra.0+0x68>
1000064e:	68f8      	ldr	r0, [r7, #12]
10000650:	f7ff ffd2 	bl	100005f8 <_ZNSt8_Rb_treeIjjSt9_IdentityIjEN11flexbuffers7Builder16KeyOffsetCompareESaIjEE8_M_eraseEPSt13_Rb_tree_nodeIjE.isra.0>
10000654:	0038      	movs	r0, r7
10000656:	68bf      	ldr	r7, [r7, #8]
10000658:	f006 fbb0 	bl	10006dbc <_ZdlPv>
1000065c:	2f00      	cmp	r7, #0
1000065e:	d1f6      	bne.n	1000064e <_ZNSt8_Rb_treeIjjSt9_IdentityIjEN11flexbuffers7Builder16KeyOffsetCompareESaIjEE8_M_eraseEPSt13_Rb_tree_nodeIjE.isra.0+0x56>
10000660:	68b7      	ldr	r7, [r6, #8]
10000662:	0030      	movs	r0, r6
10000664:	f006 fbaa 	bl	10006dbc <_ZdlPv>
10000668:	2f00      	cmp	r7, #0
1000066a:	d01a      	beq.n	100006a2 <_ZNSt8_Rb_treeIjjSt9_IdentityIjEN11flexbuffers7Builder16KeyOffsetCompareESaIjEE8_M_eraseEPSt13_Rb_tree_nodeIjE.isra.0+0xaa>
1000066c:	003e      	movs	r6, r7
1000066e:	e7eb      	b.n	10000648 <_ZNSt8_Rb_treeIjjSt9_IdentityIjEN11flexbuffers7Builder16KeyOffsetCompareESaIjEE8_M_eraseEPSt13_Rb_tree_nodeIjE.isra.0+0x50>
10000670:	68a5      	ldr	r5, [r4, #8]
10000672:	0020      	movs	r0, r4
10000674:	f006 fba2 	bl	10006dbc <_ZdlPv>
10000678:	2d00      	cmp	r5, #0
1000067a:	d009      	beq.n	10000690 <_ZNSt8_Rb_treeIjjSt9_IdentityIjEN11flexbuffers7Builder16KeyOffsetCompareESaIjEE8_M_eraseEPSt13_Rb_tree_nodeIjE.isra.0+0x98>
1000067c:	002c      	movs	r4, r5
1000067e:	e7d8      	b.n	10000632 <_ZNSt8_Rb_treeIjjSt9_IdentityIjEN11flexbuffers7Builder16KeyOffsetCompareESaIjEE8_M_eraseEPSt13_Rb_tree_nodeIjE.isra.0+0x3a>
10000680:	68ae      	ldr	r6, [r5, #8]
10000682:	0028      	movs	r0, r5
10000684:	f006 fb9a 	bl	10006dbc <_ZdlPv>
10000688:	2e00      	cmp	r6, #0
1000068a:	d0f1      	beq.n	10000670 <_ZNSt8_Rb_treeIjjSt9_IdentityIjEN11flexbuffers7Builder16KeyOffsetCompareESaIjEE8_M_eraseEPSt13_Rb_tree_nodeIjE.isra.0+0x78>
1000068c:	0035      	movs	r5, r6
1000068e:	e7d3      	b.n	10000638 <_ZNSt8_Rb_treeIjjSt9_IdentityIjEN11flexbuffers7Builder16KeyOffsetCompareESaIjEE8_M_eraseEPSt13_Rb_tree_nodeIjE.isra.0+0x40>
10000690:	465b      	mov	r3, fp
10000692:	689c      	ldr	r4, [r3, #8]
10000694:	4658      	mov	r0, fp
10000696:	f006 fb91 	bl	10006dbc <_ZdlPv>
1000069a:	2c00      	cmp	r4, #0
1000069c:	d00a      	beq.n	100006b4 <_ZNSt8_Rb_treeIjjSt9_IdentityIjEN11flexbuffers7Builder16KeyOffsetCompareESaIjEE8_M_eraseEPSt13_Rb_tree_nodeIjE.isra.0+0xbc>
1000069e:	46a3      	mov	fp, r4
100006a0:	e7c3      	b.n	1000062a <_ZNSt8_Rb_treeIjjSt9_IdentityIjEN11flexbuffers7Builder16KeyOffsetCompareESaIjEE8_M_eraseEPSt13_Rb_tree_nodeIjE.isra.0+0x32>
100006a2:	4643      	mov	r3, r8
100006a4:	689e      	ldr	r6, [r3, #8]
100006a6:	4640      	mov	r0, r8
100006a8:	f006 fb88 	bl	10006dbc <_ZdlPv>
100006ac:	2e00      	cmp	r6, #0
100006ae:	d0e7      	beq.n	10000680 <_ZNSt8_Rb_treeIjjSt9_IdentityIjEN11flexbuffers7Builder16KeyOffsetCompareESaIjEE8_M_eraseEPSt13_Rb_tree_nodeIjE.isra.0+0x88>
100006b0:	46b0      	mov	r8, r6
100006b2:	e7c5      	b.n	10000640 <_ZNSt8_Rb_treeIjjSt9_IdentityIjEN11flexbuffers7Builder16KeyOffsetCompareESaIjEE8_M_eraseEPSt13_Rb_tree_nodeIjE.isra.0+0x48>
100006b4:	4653      	mov	r3, sl
100006b6:	689c      	ldr	r4, [r3, #8]
100006b8:	4650      	mov	r0, sl
100006ba:	f006 fb7f 	bl	10006dbc <_ZdlPv>
100006be:	2c00      	cmp	r4, #0
100006c0:	d001      	beq.n	100006c6 <_ZNSt8_Rb_treeIjjSt9_IdentityIjEN11flexbuffers7Builder16KeyOffsetCompareESaIjEE8_M_eraseEPSt13_Rb_tree_nodeIjE.isra.0+0xce>
100006c2:	46a2      	mov	sl, r4
100006c4:	e7ac      	b.n	10000620 <_ZNSt8_Rb_treeIjjSt9_IdentityIjEN11flexbuffers7Builder16KeyOffsetCompareESaIjEE8_M_eraseEPSt13_Rb_tree_nodeIjE.isra.0+0x28>
100006c6:	464b      	mov	r3, r9
100006c8:	689c      	ldr	r4, [r3, #8]
100006ca:	4648      	mov	r0, r9
100006cc:	f006 fb76 	bl	10006dbc <_ZdlPv>
100006d0:	2c00      	cmp	r4, #0
100006d2:	d001      	beq.n	100006d8 <_ZNSt8_Rb_treeIjjSt9_IdentityIjEN11flexbuffers7Builder16KeyOffsetCompareESaIjEE8_M_eraseEPSt13_Rb_tree_nodeIjE.isra.0+0xe0>
100006d4:	46a1      	mov	r9, r4
100006d6:	e79e      	b.n	10000616 <_ZNSt8_Rb_treeIjjSt9_IdentityIjEN11flexbuffers7Builder16KeyOffsetCompareESaIjEE8_M_eraseEPSt13_Rb_tree_nodeIjE.isra.0+0x1e>
100006d8:	9801      	ldr	r0, [sp, #4]
100006da:	6884      	ldr	r4, [r0, #8]
100006dc:	f006 fb6e 	bl	10006dbc <_ZdlPv>
100006e0:	2c00      	cmp	r4, #0
100006e2:	d001      	beq.n	100006e8 <_ZNSt8_Rb_treeIjjSt9_IdentityIjEN11flexbuffers7Builder16KeyOffsetCompareESaIjEE8_M_eraseEPSt13_Rb_tree_nodeIjE.isra.0+0xf0>
100006e4:	9401      	str	r4, [sp, #4]
100006e6:	e791      	b.n	1000060c <_ZNSt8_Rb_treeIjjSt9_IdentityIjEN11flexbuffers7Builder16KeyOffsetCompareESaIjEE8_M_eraseEPSt13_Rb_tree_nodeIjE.isra.0+0x14>
100006e8:	b003      	add	sp, #12
100006ea:	bcf0      	pop	{r4, r5, r6, r7}
100006ec:	46bb      	mov	fp, r7
100006ee:	46b2      	mov	sl, r6
100006f0:	46a9      	mov	r9, r5
100006f2:	46a0      	mov	r8, r4
100006f4:	bdf0      	pop	{r4, r5, r6, r7, pc}
100006f6:	46c0      	nop			@ (mov r8, r8)

100006f8 <_ZNSt8_Rb_treeISt4pairIjjES1_St9_IdentityIS1_EN11flexbuffers7Builder19StringOffsetCompareESaIS1_EE8_M_eraseEPSt13_Rb_tree_nodeIS1_E.isra.0>:
100006f8:	b5f0      	push	{r4, r5, r6, r7, lr}
100006fa:	46de      	mov	lr, fp
100006fc:	4657      	mov	r7, sl
100006fe:	464e      	mov	r6, r9
10000700:	4645      	mov	r5, r8
10000702:	b5e0      	push	{r5, r6, r7, lr}
10000704:	b083      	sub	sp, #12
10000706:	9001      	str	r0, [sp, #4]
10000708:	2800      	cmp	r0, #0
1000070a:	d06d      	beq.n	100007e8 <_ZNSt8_Rb_treeISt4pairIjjES1_St9_IdentityIS1_EN11flexbuffers7Builder19StringOffsetCompareESaIS1_EE8_M_eraseEPSt13_Rb_tree_nodeIS1_E.isra.0+0xf0>
1000070c:	9b01      	ldr	r3, [sp, #4]
1000070e:	68db      	ldr	r3, [r3, #12]
10000710:	4699      	mov	r9, r3
10000712:	2b00      	cmp	r3, #0
10000714:	d060      	beq.n	100007d8 <_ZNSt8_Rb_treeISt4pairIjjES1_St9_IdentityIS1_EN11flexbuffers7Builder19StringOffsetCompareESaIS1_EE8_M_eraseEPSt13_Rb_tree_nodeIS1_E.isra.0+0xe0>
10000716:	464b      	mov	r3, r9
10000718:	68db      	ldr	r3, [r3, #12]
1000071a:	469a      	mov	sl, r3
1000071c:	2b00      	cmp	r3, #0
1000071e:	d052      	beq.n	100007c6 <_ZNSt8_Rb_treeISt4pairIjjES1_St9_IdentityIS1_EN11flexbuffers7Builder19StringOffsetCompareESaIS1_EE8_M_eraseEPSt13_Rb_tree_nodeIS1_E.isra.0+0xce>
10000720:	4653      	mov	r3, sl
10000722:	68db      	ldr	r3, [r3, #12]
10000724:	469b      	mov	fp, r3
10000726:	2b00      	cmp	r3, #0
10000728:	d044      	beq.n	100007b4 <_ZNSt8_Rb_treeISt4pairIjjES1_St9_IdentityIS1_EN11flexbuffers7Builder19StringOffsetCompareESaIS1_EE8_M_eraseEPSt13_Rb_tree_nodeIS1_E.isra.0+0xbc>
1000072a:	465b      	mov	r3, fp
1000072c:	68dc      	ldr	r4, [r3, #12]
1000072e:	2c00      	cmp	r4, #0
10000730:	d02e      	beq.n	10000790 <_ZNSt8_Rb_treeISt4pairIjjES1_St9_IdentityIS1_EN11flexbuffers7Builder19StringOffsetCompareESaIS1_EE8_M_eraseEPSt13_Rb_tree_nodeIS1_E.isra.0+0x98>
10000732:	68e5      	ldr	r5, [r4, #12]
10000734:	2d00      	cmp	r5, #0
10000736:	d01b      	beq.n	10000770 <_ZNSt8_Rb_treeISt4pairIjjES1_St9_IdentityIS1_EN11flexbuffers7Builder19StringOffsetCompareESaIS1_EE8_M_eraseEPSt13_Rb_tree_nodeIS1_E.isra.0+0x78>
10000738:	68eb      	ldr	r3, [r5, #12]
1000073a:	4698      	mov	r8, r3
1000073c:	2b00      	cmp	r3, #0
1000073e:	d01f      	beq.n	10000780 <_ZNSt8_Rb_treeISt4pairIjjES1_St9_IdentityIS1_EN11flexbuffers7Builder19StringOffsetCompareESaIS1_EE8_M_eraseEPSt13_Rb_tree_nodeIS1_E.isra.0+0x88>
10000740:	4643      	mov	r3, r8
10000742:	68de      	ldr	r6, [r3, #12]
10000744:	2e00      	cmp	r6, #0
10000746:	d02c      	beq.n	100007a2 <_ZNSt8_Rb_treeISt4pairIjjES1_St9_IdentityIS1_EN11flexbuffers7Builder19StringOffsetCompareESaIS1_EE8_M_eraseEPSt13_Rb_tree_nodeIS1_E.isra.0+0xaa>
10000748:	68f7      	ldr	r7, [r6, #12]
1000074a:	2f00      	cmp	r7, #0
1000074c:	d008      	beq.n	10000760 <_ZNSt8_Rb_treeISt4pairIjjES1_St9_IdentityIS1_EN11flexbuffers7Builder19StringOffsetCompareESaIS1_EE8_M_eraseEPSt13_Rb_tree_nodeIS1_E.isra.0+0x68>
1000074e:	68f8      	ldr	r0, [r7, #12]
10000750:	f7ff ffd2 	bl	100006f8 <_ZNSt8_Rb_treeISt4pairIjjES1_St9_IdentityIS1_EN11flexbuffers7Builder19StringOffsetCompareESaIS1_EE8_M_eraseEPSt13_Rb_tree_nodeIS1_E.isra.0>
10000754:	0038      	movs	r0, r7
10000756:	68bf      	ldr	r7, [r7, #8]
10000758:	f006 fb30 	bl	10006dbc <_ZdlPv>
1000075c:	2f00      	cmp	r7, #0
1000075e:	d1f6      	bne.n	1000074e <_ZNSt8_Rb_treeISt4pairIjjES1_St9_IdentityIS1_EN11flexbuffers7Builder19StringOffsetCompareESaIS1_EE8_M_eraseEPSt13_Rb_tree_nodeIS1_E.isra.0+0x56>
10000760:	68b7      	ldr	r7, [r6, #8]
10000762:	0030      	movs	r0, r6
10000764:	f006 fb2a 	bl	10006dbc <_ZdlPv>
10000768:	2f00      	cmp	r7, #0
1000076a:	d01a      	beq.n	100007a2 <_ZNSt8_Rb_treeISt4pairIjjES1_St9_IdentityIS1_EN11flexbuffers7Builder19StringOffsetCompareESaIS1_EE8_M_eraseEPSt13_Rb_tree_nodeIS1_E.isra.0+0xaa>
1000076c:	003e      	movs	r6, r7
1000076e:	e7eb      	b.n	10000748 <_ZNSt8_Rb_treeISt4pairIjjES1_St9_IdentityIS1_EN11flexbuffers7Builder19StringOffsetCompareESaIS1_EE8_M_eraseEPSt13_Rb_tree_nodeIS1_E.isra.0+0x50>
10000770:	68a5      	ldr	r5, [r4, #8]
10000772:	0020      	movs	r0, r4
10000774:	f006 fb22 	bl	10006dbc <_ZdlPv>
10000778:	2d00      	cmp	r5, #0
1000077a:	d009      	beq.n	10000790 <_ZNSt8_Rb_treeISt4pairIjjES1_St9_IdentityIS1_EN11flexbuffers7Builder19StringOffsetCompareESaIS1_EE8_M_eraseEPSt13_Rb_tree_nodeIS1_E.isra.0+0x98>
1000077c:	002c      	movs	r4, r5
1000077e:	e7d8      	b.n	10000732 <_ZNSt8_Rb_treeISt4pairIjjES1_St9_IdentityIS1_EN11flexbuffers7Builder19StringOffsetCompareESaIS1_EE8_M_eraseEPSt13_Rb_tree_nodeIS1_E.isra.0+0x3a>
10000780:	68ae      	ldr	r6, [r5, #8]
10000782:	0028      	movs	r0, r5
10000784:	f006 fb1a 	bl	10006dbc <_ZdlPv>
10000788:	2e00      	cmp	r6, #0
1000078a:	d0f1      	beq.n	10000770 <_ZNSt8_Rb_treeISt4pairIjjES1_St9_IdentityIS1_EN11flexbuffers7Builder19StringOffsetCompareESaIS1_EE8_M_eraseEPSt13_Rb_tree_nodeIS1_E.isra.0+0x78>
1000078c:	0035      	movs	r5, r6
1000078e:	e7d3      	b.n	10000738 <_ZNSt8_Rb_treeISt4pairIjjES1_St9_IdentityIS1_EN11flexbuffers7Builder19StringOffsetCompareESaIS1_EE8_M_eraseEPSt13_Rb_tree_nodeIS1_E.isra.0+0x40>
10000790:	465b      	mov	r3, fp
10000792:	689c      	ldr	r4, [r3, #8]
10000794:	4658      	mov	r0, fp
10000796:	f006 fb11 	bl	10006dbc <_ZdlPv>
1000079a:	2c00      	cmp	r4, #0
1000079c:	d00a      	beq.n	100007b4 <_ZNSt8_Rb_treeISt4pairIjjES1_St9_IdentityIS1_EN11flexbuffers7Builder19StringOffsetCompareESaIS1_EE8_M_eraseEPSt13_Rb_tree_nodeIS1_E.isra.0+0xbc>
1000079e:	46a3      	mov	fp, r4
100007a0:	e7c3      	b.n	1000072a <_ZNSt8_Rb_treeISt4pairIjjES1_St9_IdentityIS1_EN11flexbuffers7Builder19StringOffsetCompareESaIS1_EE8_M_eraseEPSt13_Rb_tree_nodeIS1_E.isra.0+0x32>
100007a2:	4643      	mov	r3, r8
100007a4:	689e      	ldr	r6, [r3, #8]
100007a6:	4640      	mov	r0, r8
100007a8:	f006 fb08 	bl	10006dbc <_ZdlPv>
100007ac:	2e00      	cmp	r6, #0
100007ae:	d0e7      	beq.n	10000780 <_ZNSt8_Rb_treeISt4pairIjjES1_St9_IdentityIS1_EN11flexbuffers7Builder19StringOffsetCompareESaIS1_EE8_M_eraseEPSt13_Rb_tree_nodeIS1_E.isra.0+0x88>
100007b0:	46b0      	mov	r8, r6
100007b2:	e7c5      	b.n	10000740 <_ZNSt8_Rb_treeISt4pairIjjES1_St9_IdentityIS1_EN11flexbuffers7Builder19StringOffsetCompareESaIS1_EE8_M_eraseEPSt13_Rb_tree_nodeIS1_E.isra.0+0x48>
100007b4:	4653      	mov	r3, sl
100007b6:	689c      	ldr	r4, [r3, #8]
100007b8:	4650      	mov	r0, sl
100007ba:	f006 faff 	bl	10006dbc <_ZdlPv>
100007be:	2c00      	cmp	r4, #0
100007c0:	d001      	beq.n	100007c6 <_ZNSt8_Rb_treeISt4pairIjjES1_St9_IdentityIS1_EN11flexbuffers7Builder19StringOffsetCompareESaIS1_EE8_M_eraseEPSt13_Rb_tree_nodeIS1_E.isra.0+0xce>
100007c2:	46a2      	mov	sl, r4
100007c4:	e7ac      	b.n	10000720 <_ZNSt8_Rb_treeISt4pairIjjES1_St9_IdentityIS1_EN11flexbuffers7Builder19StringOffsetCompareESaIS1_EE8_M_eraseEPSt13_Rb_tree_nodeIS1_E.isra.0+0x28>
100007c6:	464b      	mov	r3, r9
100007c8:	689c      	ldr	r4, [r3, #8]
100007ca:	4648      	mov	r0, r9
100007cc:	f006 faf6 	bl	10006dbc <_ZdlPv>
100007d0:	2c00      	cmp	r4, #0
100007d2:	d001      	beq.n	100007d8 <_ZNSt8_Rb_treeISt4pairIjjES1_St9_IdentityIS1_EN11flexbuffers7Builder19StringOffsetCompareESaIS1_EE8_M_eraseEPSt13_Rb_tree_nodeIS1_E.isra.0+0xe0>
100007d4:	46a1      	mov	r9, r4
100007d6:	e79e      	b.n	10000716 <_ZNSt8_Rb_treeISt4pairIjjES1_St9_IdentityIS1_EN11flexbuffers7Builder19StringOffsetCompareESaIS1_EE8_M_eraseEPSt13_Rb_tree_nodeIS1_E.isra.0+0x1e>
100007d8:	9801      	ldr	r0, [sp, #4]
100007da:	6884      	ldr	r4, [r0, #8]
100007dc:	f006 faee 	bl	10006dbc <_ZdlPv>
100007e0:	2c00      	cmp	r4, #0
100007e2:	d001      	beq.n	100007e8 <_ZNSt8_Rb_treeISt4pairIjjES1_St9_IdentityIS1_EN11flexbuffers7Builder19StringOffsetCompareESaIS1_EE8_M_eraseEPSt13_Rb_tree_nodeIS1_E.isra.0+0xf0>
100007e4:	9401      	str	r4, [sp, #4]
100007e6:	e791      	b.n	1000070c <_ZNSt8_Rb_treeISt4pairIjjES1_St9_IdentityIS1_EN11flexbuffers7Builder19StringOffsetCompareESaIS1_EE8_M_eraseEPSt13_Rb_tree_nodeIS1_E.isra.0+0x14>
100007e8:	b003      	add	sp, #12
100007ea:	bcf0      	pop	{r4, r5, r6, r7}
100007ec:	46bb      	mov	fp, r7
100007ee:	46b2      	mov	sl, r6
100007f0:	46a9      	mov	r9, r5
100007f2:	46a0      	mov	r8, r4
100007f4:	bdf0      	pop	{r4, r5, r6, r7, pc}
100007f6:	46c0      	nop			@ (mov r8, r8)

100007f8 <_ZNSt6vectorIhSaIhEE17_M_default_appendEj>:
100007f8:	b5f8      	push	{r3, r4, r5, r6, r7, lr}
100007fa:	4645      	mov	r5, r8
100007fc:	46de      	mov	lr, fp
100007fe:	4657      	mov	r7, sl
10000800:	464e      	mov	r6, r9
10000802:	000c      	movs	r4, r1
10000804:	b5e0      	push	{r5, r6, r7, lr}
10000806:	0005      	movs	r5, r0
10000808:	2900      	cmp	r1, #0
1000080a:	d034      	beq.n	10000876 <_ZNSt6vectorIhSaIhEE17_M_default_appendEj+0x7e>
1000080c:	6803      	ldr	r3, [r0, #0]
1000080e:	6846      	ldr	r6, [r0, #4]
10000810:	4698      	mov	r8, r3
10000812:	6883      	ldr	r3, [r0, #8]
10000814:	1b9b      	subs	r3, r3, r6
10000816:	428b      	cmp	r3, r1
10000818:	d233      	bcs.n	10000882 <_ZNSt6vectorIhSaIhEE17_M_default_appendEj+0x8a>
1000081a:	4643      	mov	r3, r8
1000081c:	1af6      	subs	r6, r6, r3
1000081e:	4b31      	ldr	r3, [pc, #196]	@ (100008e4 <_ZNSt6vectorIhSaIhEE17_M_default_appendEj+0xec>)
10000820:	1b9a      	subs	r2, r3, r6
10000822:	428a      	cmp	r2, r1
10000824:	d354      	bcc.n	100008d0 <_ZNSt6vectorIhSaIhEE17_M_default_appendEj+0xd8>
10000826:	198a      	adds	r2, r1, r6
10000828:	4692      	mov	sl, r2
1000082a:	1e4a      	subs	r2, r1, #1
1000082c:	4693      	mov	fp, r2
1000082e:	42b1      	cmp	r1, r6
10000830:	d837      	bhi.n	100008a2 <_ZNSt6vectorIhSaIhEE17_M_default_appendEj+0xaa>
10000832:	0072      	lsls	r2, r6, #1
10000834:	4691      	mov	r9, r2
10000836:	2280      	movs	r2, #128	@ 0x80
10000838:	0612      	lsls	r2, r2, #24
1000083a:	4591      	cmp	r9, r2
1000083c:	d22f      	bcs.n	1000089e <_ZNSt6vectorIhSaIhEE17_M_default_appendEj+0xa6>
1000083e:	4648      	mov	r0, r9
10000840:	f006 fab8 	bl	10006db4 <_Znwj>
10000844:	2300      	movs	r3, #0
10000846:	0007      	movs	r7, r0
10000848:	1980      	adds	r0, r0, r6
1000084a:	7003      	strb	r3, [r0, #0]
1000084c:	2c01      	cmp	r4, #1
1000084e:	d004      	beq.n	1000085a <_ZNSt6vectorIhSaIhEE17_M_default_appendEj+0x62>
10000850:	465a      	mov	r2, fp
10000852:	2100      	movs	r1, #0
10000854:	3001      	adds	r0, #1
10000856:	f006 faa1 	bl	10006d9c <__wrap_memset>
1000085a:	0032      	movs	r2, r6
1000085c:	4641      	mov	r1, r8
1000085e:	0038      	movs	r0, r7
10000860:	f015 fb7c 	bl	10015f5c <memmove>
10000864:	4640      	mov	r0, r8
10000866:	f006 faa9 	bl	10006dbc <_ZdlPv>
1000086a:	4653      	mov	r3, sl
1000086c:	602f      	str	r7, [r5, #0]
1000086e:	18fb      	adds	r3, r7, r3
10000870:	444f      	add	r7, r9
10000872:	606b      	str	r3, [r5, #4]
10000874:	60af      	str	r7, [r5, #8]
10000876:	bcf0      	pop	{r4, r5, r6, r7}
10000878:	46bb      	mov	fp, r7
1000087a:	46b2      	mov	sl, r6
1000087c:	46a9      	mov	r9, r5
1000087e:	46a0      	mov	r8, r4
10000880:	bdf8      	pop	{r3, r4, r5, r6, r7, pc}
10000882:	2300      	movs	r3, #0
10000884:	1c70      	adds	r0, r6, #1
10000886:	7033      	strb	r3, [r6, #0]
10000888:	1e4a      	subs	r2, r1, #1
1000088a:	2901      	cmp	r1, #1
1000088c:	d101      	bne.n	10000892 <_ZNSt6vectorIhSaIhEE17_M_default_appendEj+0x9a>
1000088e:	6068      	str	r0, [r5, #4]
10000890:	e7f1      	b.n	10000876 <_ZNSt6vectorIhSaIhEE17_M_default_appendEj+0x7e>
10000892:	2100      	movs	r1, #0
10000894:	f006 fa82 	bl	10006d9c <__wrap_memset>
10000898:	1930      	adds	r0, r6, r4
1000089a:	6068      	str	r0, [r5, #4]
1000089c:	e7eb      	b.n	10000876 <_ZNSt6vectorIhSaIhEE17_M_default_appendEj+0x7e>
1000089e:	4699      	mov	r9, r3
100008a0:	e7cd      	b.n	1000083e <_ZNSt6vectorIhSaIhEE17_M_default_appendEj+0x46>
100008a2:	2280      	movs	r2, #128	@ 0x80
100008a4:	46d1      	mov	r9, sl
100008a6:	0612      	lsls	r2, r2, #24
100008a8:	4592      	cmp	sl, r2
100008aa:	d20f      	bcs.n	100008cc <_ZNSt6vectorIhSaIhEE17_M_default_appendEj+0xd4>
100008ac:	4648      	mov	r0, r9
100008ae:	f006 fa81 	bl	10006db4 <_Znwj>
100008b2:	2300      	movs	r3, #0
100008b4:	0007      	movs	r7, r0
100008b6:	1980      	adds	r0, r0, r6
100008b8:	7003      	strb	r3, [r0, #0]
100008ba:	465b      	mov	r3, fp
100008bc:	2b00      	cmp	r3, #0
100008be:	d10a      	bne.n	100008d6 <_ZNSt6vectorIhSaIhEE17_M_default_appendEj+0xde>
100008c0:	2e00      	cmp	r6, #0
100008c2:	d1ca      	bne.n	1000085a <_ZNSt6vectorIhSaIhEE17_M_default_appendEj+0x62>
100008c4:	4643      	mov	r3, r8
100008c6:	2b00      	cmp	r3, #0
100008c8:	d0cf      	beq.n	1000086a <_ZNSt6vectorIhSaIhEE17_M_default_appendEj+0x72>
100008ca:	e7cb      	b.n	10000864 <_ZNSt6vectorIhSaIhEE17_M_default_appendEj+0x6c>
100008cc:	4699      	mov	r9, r3
100008ce:	e7ed      	b.n	100008ac <_ZNSt6vectorIhSaIhEE17_M_default_appendEj+0xb4>
100008d0:	4805      	ldr	r0, [pc, #20]	@ (100008e8 <_ZNSt6vectorIhSaIhEE17_M_default_appendEj+0xf0>)
100008d2:	f008 ff83 	bl	100097dc <_ZSt20__throw_length_errorPKc>
100008d6:	465a      	mov	r2, fp
100008d8:	2100      	movs	r1, #0
100008da:	3001      	adds	r0, #1
100008dc:	f006 fa5e 	bl	10006d9c <__wrap_memset>
100008e0:	e7ee      	b.n	100008c0 <_ZNSt6vectorIhSaIhEE17_M_default_appendEj+0xc8>
100008e2:	46c0      	nop			@ (mov r8, r8)
100008e4:	7fffffff 	.word	0x7fffffff
100008e8:	100196f0 	.word	0x100196f0

100008ec <_ZNSt6vectorIN11flexbuffers7Builder5ValueESaIS2_EE17_M_realloc_insertIJRKS2_EEEvN9__gnu_cxx17__normal_iteratorIPS2_S4_EEDpOT_>:
100008ec:	6803      	ldr	r3, [r0, #0]
100008ee:	b5f0      	push	{r4, r5, r6, r7, lr}
100008f0:	464e      	mov	r6, r9
100008f2:	4699      	mov	r9, r3
100008f4:	4657      	mov	r7, sl
100008f6:	4645      	mov	r5, r8
100008f8:	46de      	mov	lr, fp
100008fa:	0014      	movs	r4, r2
100008fc:	464a      	mov	r2, r9
100008fe:	b5e0      	push	{r5, r6, r7, lr}
10000900:	6843      	ldr	r3, [r0, #4]
10000902:	0007      	movs	r7, r0
10000904:	469a      	mov	sl, r3
10000906:	1a9b      	subs	r3, r3, r2
10000908:	4a36      	ldr	r2, [pc, #216]	@ (100009e4 <_ZNSt6vectorIN11flexbuffers7Builder5ValueESaIS2_EE17_M_realloc_insertIJRKS2_EEEvN9__gnu_cxx17__normal_iteratorIPS2_S4_EEDpOT_+0xf8>)
1000090a:	4688      	mov	r8, r1
1000090c:	b083      	sub	sp, #12
1000090e:	111b      	asrs	r3, r3, #4
10000910:	4293      	cmp	r3, r2
10000912:	d063      	beq.n	100009dc <_ZNSt6vectorIN11flexbuffers7Builder5ValueESaIS2_EE17_M_realloc_insertIJRKS2_EEEvN9__gnu_cxx17__normal_iteratorIPS2_S4_EEDpOT_+0xf0>
10000914:	4648      	mov	r0, r9
10000916:	1a0e      	subs	r6, r1, r0
10000918:	45d1      	cmp	r9, sl
1000091a:	d04a      	beq.n	100009b2 <_ZNSt6vectorIN11flexbuffers7Builder5ValueESaIS2_EE17_M_realloc_insertIJRKS2_EEEvN9__gnu_cxx17__normal_iteratorIPS2_S4_EEDpOT_+0xc6>
1000091c:	0059      	lsls	r1, r3, #1
1000091e:	428b      	cmp	r3, r1
10000920:	d835      	bhi.n	1000098e <_ZNSt6vectorIN11flexbuffers7Builder5ValueESaIS2_EE17_M_realloc_insertIJRKS2_EEEvN9__gnu_cxx17__normal_iteratorIPS2_S4_EEDpOT_+0xa2>
10000922:	2900      	cmp	r1, #0
10000924:	d153      	bne.n	100009ce <_ZNSt6vectorIN11flexbuffers7Builder5ValueESaIS2_EE17_M_realloc_insertIJRKS2_EEEvN9__gnu_cxx17__normal_iteratorIPS2_S4_EEDpOT_+0xe2>
10000926:	2210      	movs	r2, #16
10000928:	0021      	movs	r1, r4
1000092a:	0030      	movs	r0, r6
1000092c:	f006 fa3c 	bl	10006da8 <__wrap___aeabi_memcpy>
10000930:	2300      	movs	r3, #0
10000932:	469b      	mov	fp, r3
10000934:	9301      	str	r3, [sp, #4]
10000936:	45c1      	cmp	r9, r8
10000938:	d047      	beq.n	100009ca <_ZNSt6vectorIN11flexbuffers7Builder5ValueESaIS2_EE17_M_realloc_insertIJRKS2_EEEvN9__gnu_cxx17__normal_iteratorIPS2_S4_EEDpOT_+0xde>
1000093a:	465c      	mov	r4, fp
1000093c:	464d      	mov	r5, r9
1000093e:	445e      	add	r6, fp
10000940:	0029      	movs	r1, r5
10000942:	0020      	movs	r0, r4
10000944:	2210      	movs	r2, #16
10000946:	3410      	adds	r4, #16
10000948:	f006 fa2e 	bl	10006da8 <__wrap___aeabi_memcpy>
1000094c:	3510      	adds	r5, #16
1000094e:	42a6      	cmp	r6, r4
10000950:	d1f6      	bne.n	10000940 <_ZNSt6vectorIN11flexbuffers7Builder5ValueESaIS2_EE17_M_realloc_insertIJRKS2_EEEvN9__gnu_cxx17__normal_iteratorIPS2_S4_EEDpOT_+0x54>
10000952:	3610      	adds	r6, #16
10000954:	45c2      	cmp	sl, r8
10000956:	d008      	beq.n	1000096a <_ZNSt6vectorIN11flexbuffers7Builder5ValueESaIS2_EE17_M_realloc_insertIJRKS2_EEEvN9__gnu_cxx17__normal_iteratorIPS2_S4_EEDpOT_+0x7e>
10000958:	4653      	mov	r3, sl
1000095a:	4642      	mov	r2, r8
1000095c:	1a9c      	subs	r4, r3, r2
1000095e:	0030      	movs	r0, r6
10000960:	0022      	movs	r2, r4
10000962:	4641      	mov	r1, r8
10000964:	f006 fa20 	bl	10006da8 <__wrap___aeabi_memcpy>
10000968:	1936      	adds	r6, r6, r4
1000096a:	464b      	mov	r3, r9
1000096c:	2b00      	cmp	r3, #0
1000096e:	d002      	beq.n	10000976 <_ZNSt6vectorIN11flexbuffers7Builder5ValueESaIS2_EE17_M_realloc_insertIJRKS2_EEEvN9__gnu_cxx17__normal_iteratorIPS2_S4_EEDpOT_+0x8a>
10000970:	4648      	mov	r0, r9
10000972:	f006 fa23 	bl	10006dbc <_ZdlPv>
10000976:	465b      	mov	r3, fp
10000978:	603b      	str	r3, [r7, #0]
1000097a:	9b01      	ldr	r3, [sp, #4]
1000097c:	607e      	str	r6, [r7, #4]
1000097e:	60bb      	str	r3, [r7, #8]
10000980:	b003      	add	sp, #12
10000982:	bcf0      	pop	{r4, r5, r6, r7}
10000984:	46bb      	mov	fp, r7
10000986:	46b2      	mov	sl, r6
10000988:	46a9      	mov	r9, r5
1000098a:	46a0      	mov	r8, r4
1000098c:	bdf0      	pop	{r4, r5, r6, r7, pc}
1000098e:	4d16      	ldr	r5, [pc, #88]	@ (100009e8 <_ZNSt6vectorIN11flexbuffers7Builder5ValueESaIS2_EE17_M_realloc_insertIJRKS2_EEEvN9__gnu_cxx17__normal_iteratorIPS2_S4_EEDpOT_+0xfc>)
10000990:	0028      	movs	r0, r5
10000992:	f006 fa0f 	bl	10006db4 <_Znwj>
10000996:	002b      	movs	r3, r5
10000998:	4683      	mov	fp, r0
1000099a:	2210      	movs	r2, #16
1000099c:	445b      	add	r3, fp
1000099e:	0021      	movs	r1, r4
100009a0:	1980      	adds	r0, r0, r6
100009a2:	9301      	str	r3, [sp, #4]
100009a4:	f006 fa00 	bl	10006da8 <__wrap___aeabi_memcpy>
100009a8:	45c1      	cmp	r9, r8
100009aa:	d1c6      	bne.n	1000093a <_ZNSt6vectorIN11flexbuffers7Builder5ValueESaIS2_EE17_M_realloc_insertIJRKS2_EEEvN9__gnu_cxx17__normal_iteratorIPS2_S4_EEDpOT_+0x4e>
100009ac:	465e      	mov	r6, fp
100009ae:	3610      	adds	r6, #16
100009b0:	e7d0      	b.n	10000954 <_ZNSt6vectorIN11flexbuffers7Builder5ValueESaIS2_EE17_M_realloc_insertIJRKS2_EEEvN9__gnu_cxx17__normal_iteratorIPS2_S4_EEDpOT_+0x68>
100009b2:	1c5d      	adds	r5, r3, #1
100009b4:	3301      	adds	r3, #1
100009b6:	d2ea      	bcs.n	1000098e <_ZNSt6vectorIN11flexbuffers7Builder5ValueESaIS2_EE17_M_realloc_insertIJRKS2_EEEvN9__gnu_cxx17__normal_iteratorIPS2_S4_EEDpOT_+0xa2>
100009b8:	2380      	movs	r3, #128	@ 0x80
100009ba:	051b      	lsls	r3, r3, #20
100009bc:	429d      	cmp	r5, r3
100009be:	d201      	bcs.n	100009c4 <_ZNSt6vectorIN11flexbuffers7Builder5ValueESaIS2_EE17_M_realloc_insertIJRKS2_EEEvN9__gnu_cxx17__normal_iteratorIPS2_S4_EEDpOT_+0xd8>
100009c0:	012d      	lsls	r5, r5, #4
100009c2:	e7e5      	b.n	10000990 <_ZNSt6vectorIN11flexbuffers7Builder5ValueESaIS2_EE17_M_realloc_insertIJRKS2_EEEvN9__gnu_cxx17__normal_iteratorIPS2_S4_EEDpOT_+0xa4>
100009c4:	0015      	movs	r5, r2
100009c6:	012d      	lsls	r5, r5, #4
100009c8:	e7e2      	b.n	10000990 <_ZNSt6vectorIN11flexbuffers7Builder5ValueESaIS2_EE17_M_realloc_insertIJRKS2_EEEvN9__gnu_cxx17__normal_iteratorIPS2_S4_EEDpOT_+0xa4>
100009ca:	2610      	movs	r6, #16
100009cc:	e7c4      	b.n	10000958 <_ZNSt6vectorIN11flexbuffers7Builder5ValueESaIS2_EE17_M_realloc_insertIJRKS2_EEEvN9__gnu_cxx17__normal_iteratorIPS2_S4_EEDpOT_+0x6c>
100009ce:	2380      	movs	r3, #128	@ 0x80
100009d0:	051b      	lsls	r3, r3, #20
100009d2:	4299      	cmp	r1, r3
100009d4:	d300      	bcc.n	100009d8 <_ZNSt6vectorIN11flexbuffers7Builder5ValueESaIS2_EE17_M_realloc_insertIJRKS2_EEEvN9__gnu_cxx17__normal_iteratorIPS2_S4_EEDpOT_+0xec>
100009d6:	0011      	movs	r1, r2
100009d8:	010d      	lsls	r5, r1, #4
100009da:	e7d9      	b.n	10000990 <_ZNSt6vectorIN11flexbuffers7Builder5ValueESaIS2_EE17_M_realloc_insertIJRKS2_EEEvN9__gnu_cxx17__normal_iteratorIPS2_S4_EEDpOT_+0xa4>
100009dc:	4803      	ldr	r0, [pc, #12]	@ (100009ec <_ZNSt6vectorIN11flexbuffers7Builder5ValueESaIS2_EE17_M_realloc_insertIJRKS2_EEEvN9__gnu_cxx17__normal_iteratorIPS2_S4_EEDpOT_+0x100>)
100009de:	f008 fefd 	bl	100097dc <_ZSt20__throw_length_errorPKc>
100009e2:	46c0      	nop			@ (mov r8, r8)
100009e4:	07ffffff 	.word	0x07ffffff
100009e8:	7ffffff0 	.word	0x7ffffff0
100009ec:	1001970c 	.word	0x1001970c

100009f0 <_ZNSt6vectorIhSaIhEE14_M_fill_insertEN9__gnu_cxx17__normal_iteratorIPhS1_EEjRKh>:
100009f0:	b5f0      	push	{r4, r5, r6, r7, lr}
100009f2:	4645      	mov	r5, r8
100009f4:	464e      	mov	r6, r9
100009f6:	46de      	mov	lr, fp
100009f8:	4657      	mov	r7, sl
100009fa:	b5e0      	push	{r5, r6, r7, lr}
100009fc:	0014      	movs	r4, r2
100009fe:	0005      	movs	r5, r0
10000a00:	000e      	movs	r6, r1
10000a02:	4698      	mov	r8, r3
10000a04:	b083      	sub	sp, #12
10000a06:	2a00      	cmp	r2, #0
10000a08:	d025      	beq.n	10000a56 <_ZNSt6vectorIhSaIhEE14_M_fill_insertEN9__gnu_cxx17__normal_iteratorIPhS1_EEjRKh+0x66>
10000a0a:	6847      	ldr	r7, [r0, #4]
10000a0c:	6883      	ldr	r3, [r0, #8]
10000a0e:	1bdb      	subs	r3, r3, r7
10000a10:	4293      	cmp	r3, r2
10000a12:	d343      	bcc.n	10000a9c <_ZNSt6vectorIhSaIhEE14_M_fill_insertEN9__gnu_cxx17__normal_iteratorIPhS1_EEjRKh+0xac>
10000a14:	4643      	mov	r3, r8
10000a16:	781b      	ldrb	r3, [r3, #0]
10000a18:	4699      	mov	r9, r3
10000a1a:	1a7b      	subs	r3, r7, r1
10000a1c:	4698      	mov	r8, r3
10000a1e:	429a      	cmp	r2, r3
10000a20:	d220      	bcs.n	10000a64 <_ZNSt6vectorIhSaIhEE14_M_fill_insertEN9__gnu_cxx17__normal_iteratorIPhS1_EEjRKh+0x74>
10000a22:	1abb      	subs	r3, r7, r2
10000a24:	4698      	mov	r8, r3
10000a26:	2a01      	cmp	r2, #1
10000a28:	dc00      	bgt.n	10000a2c <_ZNSt6vectorIhSaIhEE14_M_fill_insertEN9__gnu_cxx17__normal_iteratorIPhS1_EEjRKh+0x3c>
10000a2a:	e08b      	b.n	10000b44 <_ZNSt6vectorIhSaIhEE14_M_fill_insertEN9__gnu_cxx17__normal_iteratorIPhS1_EEjRKh+0x154>
10000a2c:	0019      	movs	r1, r3
10000a2e:	0038      	movs	r0, r7
10000a30:	f015 fa94 	bl	10015f5c <memmove>
10000a34:	686b      	ldr	r3, [r5, #4]
10000a36:	191b      	adds	r3, r3, r4
10000a38:	606b      	str	r3, [r5, #4]
10000a3a:	4643      	mov	r3, r8
10000a3c:	1b9a      	subs	r2, r3, r6
10000a3e:	2a01      	cmp	r2, #1
10000a40:	dc00      	bgt.n	10000a44 <_ZNSt6vectorIhSaIhEE14_M_fill_insertEN9__gnu_cxx17__normal_iteratorIPhS1_EEjRKh+0x54>
10000a42:	e078      	b.n	10000b36 <_ZNSt6vectorIhSaIhEE14_M_fill_insertEN9__gnu_cxx17__normal_iteratorIPhS1_EEjRKh+0x146>
10000a44:	0031      	movs	r1, r6
10000a46:	1ab8      	subs	r0, r7, r2
10000a48:	f015 fa88 	bl	10015f5c <memmove>
10000a4c:	0022      	movs	r2, r4
10000a4e:	4649      	mov	r1, r9
10000a50:	0030      	movs	r0, r6
10000a52:	f006 f9a3 	bl	10006d9c <__wrap_memset>
10000a56:	b003      	add	sp, #12
10000a58:	bcf0      	pop	{r4, r5, r6, r7}
10000a5a:	46bb      	mov	fp, r7
10000a5c:	46b2      	mov	sl, r6
10000a5e:	46a9      	mov	r9, r5
10000a60:	46a0      	mov	r8, r4
10000a62:	bdf0      	pop	{r4, r5, r6, r7, pc}
10000a64:	1ad3      	subs	r3, r2, r3
10000a66:	469a      	mov	sl, r3
10000a68:	4542      	cmp	r2, r8
10000a6a:	d005      	beq.n	10000a78 <_ZNSt6vectorIhSaIhEE14_M_fill_insertEN9__gnu_cxx17__normal_iteratorIPhS1_EEjRKh+0x88>
10000a6c:	0038      	movs	r0, r7
10000a6e:	001a      	movs	r2, r3
10000a70:	4649      	mov	r1, r9
10000a72:	f006 f993 	bl	10006d9c <__wrap_memset>
10000a76:	4457      	add	r7, sl
10000a78:	4643      	mov	r3, r8
10000a7a:	606f      	str	r7, [r5, #4]
10000a7c:	2b01      	cmp	r3, #1
10000a7e:	dd6a      	ble.n	10000b56 <_ZNSt6vectorIhSaIhEE14_M_fill_insertEN9__gnu_cxx17__normal_iteratorIPhS1_EEjRKh+0x166>
10000a80:	4642      	mov	r2, r8
10000a82:	0031      	movs	r1, r6
10000a84:	0038      	movs	r0, r7
10000a86:	f015 fa69 	bl	10015f5c <memmove>
10000a8a:	686b      	ldr	r3, [r5, #4]
10000a8c:	4443      	add	r3, r8
10000a8e:	606b      	str	r3, [r5, #4]
10000a90:	4642      	mov	r2, r8
10000a92:	4649      	mov	r1, r9
10000a94:	0030      	movs	r0, r6
10000a96:	f006 f981 	bl	10006d9c <__wrap_memset>
10000a9a:	e7dc      	b.n	10000a56 <_ZNSt6vectorIhSaIhEE14_M_fill_insertEN9__gnu_cxx17__normal_iteratorIPhS1_EEjRKh+0x66>
10000a9c:	6803      	ldr	r3, [r0, #0]
10000a9e:	4a3c      	ldr	r2, [pc, #240]	@ (10000b90 <_ZNSt6vectorIhSaIhEE14_M_fill_insertEN9__gnu_cxx17__normal_iteratorIPhS1_EEjRKh+0x1a0>)
10000aa0:	469a      	mov	sl, r3
10000aa2:	1afb      	subs	r3, r7, r3
10000aa4:	1ad1      	subs	r1, r2, r3
10000aa6:	428c      	cmp	r4, r1
10000aa8:	d86f      	bhi.n	10000b8a <_ZNSt6vectorIhSaIhEE14_M_fill_insertEN9__gnu_cxx17__normal_iteratorIPhS1_EEjRKh+0x19a>
10000aaa:	4651      	mov	r1, sl
10000aac:	1a71      	subs	r1, r6, r1
10000aae:	468b      	mov	fp, r1
10000ab0:	429c      	cmp	r4, r3
10000ab2:	d835      	bhi.n	10000b20 <_ZNSt6vectorIhSaIhEE14_M_fill_insertEN9__gnu_cxx17__normal_iteratorIPhS1_EEjRKh+0x130>
10000ab4:	0059      	lsls	r1, r3, #1
10000ab6:	9201      	str	r2, [sp, #4]
10000ab8:	428b      	cmp	r3, r1
10000aba:	d804      	bhi.n	10000ac6 <_ZNSt6vectorIhSaIhEE14_M_fill_insertEN9__gnu_cxx17__normal_iteratorIPhS1_EEjRKh+0xd6>
10000abc:	2380      	movs	r3, #128	@ 0x80
10000abe:	9101      	str	r1, [sp, #4]
10000ac0:	061b      	lsls	r3, r3, #24
10000ac2:	4299      	cmp	r1, r3
10000ac4:	d22f      	bcs.n	10000b26 <_ZNSt6vectorIhSaIhEE14_M_fill_insertEN9__gnu_cxx17__normal_iteratorIPhS1_EEjRKh+0x136>
10000ac6:	9801      	ldr	r0, [sp, #4]
10000ac8:	f006 f974 	bl	10006db4 <_Znwj>
10000acc:	4681      	mov	r9, r0
10000ace:	9b01      	ldr	r3, [sp, #4]
10000ad0:	444b      	add	r3, r9
10000ad2:	9301      	str	r3, [sp, #4]
10000ad4:	4643      	mov	r3, r8
10000ad6:	4648      	mov	r0, r9
10000ad8:	7819      	ldrb	r1, [r3, #0]
10000ada:	0022      	movs	r2, r4
10000adc:	4458      	add	r0, fp
10000ade:	f006 f95d 	bl	10006d9c <__wrap_memset>
10000ae2:	465b      	mov	r3, fp
10000ae4:	2b01      	cmp	r3, #1
10000ae6:	dd43      	ble.n	10000b70 <_ZNSt6vectorIhSaIhEE14_M_fill_insertEN9__gnu_cxx17__normal_iteratorIPhS1_EEjRKh+0x180>
10000ae8:	465a      	mov	r2, fp
10000aea:	4651      	mov	r1, sl
10000aec:	4648      	mov	r0, r9
10000aee:	f015 fa35 	bl	10015f5c <memmove>
10000af2:	445c      	add	r4, fp
10000af4:	444c      	add	r4, r9
10000af6:	1bbf      	subs	r7, r7, r6
10000af8:	2f01      	cmp	r7, #1
10000afa:	dd34      	ble.n	10000b66 <_ZNSt6vectorIhSaIhEE14_M_fill_insertEN9__gnu_cxx17__normal_iteratorIPhS1_EEjRKh+0x176>
10000afc:	003a      	movs	r2, r7
10000afe:	0031      	movs	r1, r6
10000b00:	0020      	movs	r0, r4
10000b02:	f015 fa2b 	bl	10015f5c <memmove>
10000b06:	4653      	mov	r3, sl
10000b08:	19e4      	adds	r4, r4, r7
10000b0a:	2b00      	cmp	r3, #0
10000b0c:	d002      	beq.n	10000b14 <_ZNSt6vectorIhSaIhEE14_M_fill_insertEN9__gnu_cxx17__normal_iteratorIPhS1_EEjRKh+0x124>
10000b0e:	4650      	mov	r0, sl
10000b10:	f006 f954 	bl	10006dbc <_ZdlPv>
10000b14:	464b      	mov	r3, r9
10000b16:	602b      	str	r3, [r5, #0]
10000b18:	9b01      	ldr	r3, [sp, #4]
10000b1a:	606c      	str	r4, [r5, #4]
10000b1c:	60ab      	str	r3, [r5, #8]
10000b1e:	e79a      	b.n	10000a56 <_ZNSt6vectorIhSaIhEE14_M_fill_insertEN9__gnu_cxx17__normal_iteratorIPhS1_EEjRKh+0x66>
10000b20:	18e1      	adds	r1, r4, r3
10000b22:	428b      	cmp	r3, r1
10000b24:	d901      	bls.n	10000b2a <_ZNSt6vectorIhSaIhEE14_M_fill_insertEN9__gnu_cxx17__normal_iteratorIPhS1_EEjRKh+0x13a>
10000b26:	9201      	str	r2, [sp, #4]
10000b28:	e7cd      	b.n	10000ac6 <_ZNSt6vectorIhSaIhEE14_M_fill_insertEN9__gnu_cxx17__normal_iteratorIPhS1_EEjRKh+0xd6>
10000b2a:	2300      	movs	r3, #0
10000b2c:	4699      	mov	r9, r3
10000b2e:	9301      	str	r3, [sp, #4]
10000b30:	2900      	cmp	r1, #0
10000b32:	d0cf      	beq.n	10000ad4 <_ZNSt6vectorIhSaIhEE14_M_fill_insertEN9__gnu_cxx17__normal_iteratorIPhS1_EEjRKh+0xe4>
10000b34:	e7c2      	b.n	10000abc <_ZNSt6vectorIhSaIhEE14_M_fill_insertEN9__gnu_cxx17__normal_iteratorIPhS1_EEjRKh+0xcc>
10000b36:	2a01      	cmp	r2, #1
10000b38:	d000      	beq.n	10000b3c <_ZNSt6vectorIhSaIhEE14_M_fill_insertEN9__gnu_cxx17__normal_iteratorIPhS1_EEjRKh+0x14c>
10000b3a:	e787      	b.n	10000a4c <_ZNSt6vectorIhSaIhEE14_M_fill_insertEN9__gnu_cxx17__normal_iteratorIPhS1_EEjRKh+0x5c>
10000b3c:	7833      	ldrb	r3, [r6, #0]
10000b3e:	3f01      	subs	r7, #1
10000b40:	703b      	strb	r3, [r7, #0]
10000b42:	e783      	b.n	10000a4c <_ZNSt6vectorIhSaIhEE14_M_fill_insertEN9__gnu_cxx17__normal_iteratorIPhS1_EEjRKh+0x5c>
10000b44:	003b      	movs	r3, r7
10000b46:	2a01      	cmp	r2, #1
10000b48:	d000      	beq.n	10000b4c <_ZNSt6vectorIhSaIhEE14_M_fill_insertEN9__gnu_cxx17__normal_iteratorIPhS1_EEjRKh+0x15c>
10000b4a:	e774      	b.n	10000a36 <_ZNSt6vectorIhSaIhEE14_M_fill_insertEN9__gnu_cxx17__normal_iteratorIPhS1_EEjRKh+0x46>
10000b4c:	4643      	mov	r3, r8
10000b4e:	781b      	ldrb	r3, [r3, #0]
10000b50:	703b      	strb	r3, [r7, #0]
10000b52:	6843      	ldr	r3, [r0, #4]
10000b54:	e76f      	b.n	10000a36 <_ZNSt6vectorIhSaIhEE14_M_fill_insertEN9__gnu_cxx17__normal_iteratorIPhS1_EEjRKh+0x46>
10000b56:	2b01      	cmp	r3, #1
10000b58:	d011      	beq.n	10000b7e <_ZNSt6vectorIhSaIhEE14_M_fill_insertEN9__gnu_cxx17__normal_iteratorIPhS1_EEjRKh+0x18e>
10000b5a:	4447      	add	r7, r8
10000b5c:	606f      	str	r7, [r5, #4]
10000b5e:	2b00      	cmp	r3, #0
10000b60:	d100      	bne.n	10000b64 <_ZNSt6vectorIhSaIhEE14_M_fill_insertEN9__gnu_cxx17__normal_iteratorIPhS1_EEjRKh+0x174>
10000b62:	e778      	b.n	10000a56 <_ZNSt6vectorIhSaIhEE14_M_fill_insertEN9__gnu_cxx17__normal_iteratorIPhS1_EEjRKh+0x66>
10000b64:	e794      	b.n	10000a90 <_ZNSt6vectorIhSaIhEE14_M_fill_insertEN9__gnu_cxx17__normal_iteratorIPhS1_EEjRKh+0xa0>
10000b66:	2f01      	cmp	r7, #1
10000b68:	d1cd      	bne.n	10000b06 <_ZNSt6vectorIhSaIhEE14_M_fill_insertEN9__gnu_cxx17__normal_iteratorIPhS1_EEjRKh+0x116>
10000b6a:	7833      	ldrb	r3, [r6, #0]
10000b6c:	7023      	strb	r3, [r4, #0]
10000b6e:	e7ca      	b.n	10000b06 <_ZNSt6vectorIhSaIhEE14_M_fill_insertEN9__gnu_cxx17__normal_iteratorIPhS1_EEjRKh+0x116>
10000b70:	2b01      	cmp	r3, #1
10000b72:	d1be      	bne.n	10000af2 <_ZNSt6vectorIhSaIhEE14_M_fill_insertEN9__gnu_cxx17__normal_iteratorIPhS1_EEjRKh+0x102>
10000b74:	4653      	mov	r3, sl
10000b76:	464a      	mov	r2, r9
10000b78:	781b      	ldrb	r3, [r3, #0]
10000b7a:	7013      	strb	r3, [r2, #0]
10000b7c:	e7b9      	b.n	10000af2 <_ZNSt6vectorIhSaIhEE14_M_fill_insertEN9__gnu_cxx17__normal_iteratorIPhS1_EEjRKh+0x102>
10000b7e:	7833      	ldrb	r3, [r6, #0]
10000b80:	703b      	strb	r3, [r7, #0]
10000b82:	686b      	ldr	r3, [r5, #4]
10000b84:	3301      	adds	r3, #1
10000b86:	606b      	str	r3, [r5, #4]
10000b88:	e782      	b.n	10000a90 <_ZNSt6vectorIhSaIhEE14_M_fill_insertEN9__gnu_cxx17__normal_iteratorIPhS1_EEjRKh+0xa0>
10000b8a:	4802      	ldr	r0, [pc, #8]	@ (10000b94 <_ZNSt6vectorIhSaIhEE14_M_fill_insertEN9__gnu_cxx17__normal_iteratorIPhS1_EEjRKh+0x1a4>)
10000b8c:	f008 fe26 	bl	100097dc <_ZSt20__throw_length_errorPKc>
10000b90:	7fffffff 	.word	0x7fffffff
10000b94:	10019728 	.word	0x10019728

10000b98 <_ZNSt6vectorIN11flexbuffers7Builder5ValueESaIS2_EE17_M_realloc_insertIJS2_EEEvN9__gnu_cxx17__normal_iteratorIPS2_S4_EEDpOT_>:
10000b98:	6803      	ldr	r3, [r0, #0]
10000b9a:	b5f0      	push	{r4, r5, r6, r7, lr}
10000b9c:	464e      	mov	r6, r9
10000b9e:	4699      	mov	r9, r3
10000ba0:	4657      	mov	r7, sl
10000ba2:	4645      	mov	r5, r8
10000ba4:	46de      	mov	lr, fp
10000ba6:	0014      	movs	r4, r2
10000ba8:	464a      	mov	r2, r9
10000baa:	b5e0      	push	{r5, r6, r7, lr}
10000bac:	6843      	ldr	r3, [r0, #4]
10000bae:	0007      	movs	r7, r0
10000bb0:	469a      	mov	sl, r3
10000bb2:	1a9b      	subs	r3, r3, r2
10000bb4:	4a36      	ldr	r2, [pc, #216]	@ (10000c90 <_ZNSt6vectorIN11flexbuffers7Builder5ValueESaIS2_EE17_M_realloc_insertIJS2_EEEvN9__gnu_cxx17__normal_iteratorIPS2_S4_EEDpOT_+0xf8>)
10000bb6:	4688      	mov	r8, r1
10000bb8:	b083      	sub	sp, #12
10000bba:	111b      	asrs	r3, r3, #4
10000bbc:	4293      	cmp	r3, r2
10000bbe:	d063      	beq.n	10000c88 <_ZNSt6vectorIN11flexbuffers7Builder5ValueESaIS2_EE17_M_realloc_insertIJS2_EEEvN9__gnu_cxx17__normal_iteratorIPS2_S4_EEDpOT_+0xf0>
10000bc0:	4648      	mov	r0, r9
10000bc2:	1a0e      	subs	r6, r1, r0
10000bc4:	45d1      	cmp	r9, sl
10000bc6:	d04a      	beq.n	10000c5e <_ZNSt6vectorIN11flexbuffers7Builder5ValueESaIS2_EE17_M_realloc_insertIJS2_EEEvN9__gnu_cxx17__normal_iteratorIPS2_S4_EEDpOT_+0xc6>
10000bc8:	0059      	lsls	r1, r3, #1
10000bca:	428b      	cmp	r3, r1
10000bcc:	d835      	bhi.n	10000c3a <_ZNSt6vectorIN11flexbuffers7Builder5ValueESaIS2_EE17_M_realloc_insertIJS2_EEEvN9__gnu_cxx17__normal_iteratorIPS2_S4_EEDpOT_+0xa2>
10000bce:	2900      	cmp	r1, #0
10000bd0:	d153      	bne.n	10000c7a <_ZNSt6vectorIN11flexbuffers7Builder5ValueESaIS2_EE17_M_realloc_insertIJS2_EEEvN9__gnu_cxx17__normal_iteratorIPS2_S4_EEDpOT_+0xe2>
10000bd2:	2210      	movs	r2, #16
10000bd4:	0021      	movs	r1, r4
10000bd6:	0030      	movs	r0, r6
10000bd8:	f006 f8e6 	bl	10006da8 <__wrap___aeabi_memcpy>
10000bdc:	2300      	movs	r3, #0
10000bde:	469b      	mov	fp, r3
10000be0:	9301      	str	r3, [sp, #4]
10000be2:	45c1      	cmp	r9, r8
10000be4:	d047      	beq.n	10000c76 <_ZNSt6vectorIN11flexbuffers7Builder5ValueESaIS2_EE17_M_realloc_insertIJS2_EEEvN9__gnu_cxx17__normal_iteratorIPS2_S4_EEDpOT_+0xde>
10000be6:	465c      	mov	r4, fp
10000be8:	464d      	mov	r5, r9
10000bea:	445e      	add	r6, fp
10000bec:	0029      	movs	r1, r5
10000bee:	0020      	movs	r0, r4
10000bf0:	2210      	movs	r2, #16
10000bf2:	3410      	adds	r4, #16
10000bf4:	f006 f8d8 	bl	10006da8 <__wrap___aeabi_memcpy>
10000bf8:	3510      	adds	r5, #16
10000bfa:	42a6      	cmp	r6, r4
10000bfc:	d1f6      	bne.n	10000bec <_ZNSt6vectorIN11flexbuffers7Builder5ValueESaIS2_EE17_M_realloc_insertIJS2_EEEvN9__gnu_cxx17__normal_iteratorIPS2_S4_EEDpOT_+0x54>
10000bfe:	3610      	adds	r6, #16
10000c00:	45c2      	cmp	sl, r8
10000c02:	d008      	beq.n	10000c16 <_ZNSt6vectorIN11flexbuffers7Builder5ValueESaIS2_EE17_M_realloc_insertIJS2_EEEvN9__gnu_cxx17__normal_iteratorIPS2_S4_EEDpOT_+0x7e>
10000c04:	4653      	mov	r3, sl
10000c06:	4642      	mov	r2, r8
10000c08:	1a9c      	subs	r4, r3, r2
10000c0a:	0030      	movs	r0, r6
10000c0c:	0022      	movs	r2, r4
10000c0e:	4641      	mov	r1, r8
10000c10:	f006 f8ca 	bl	10006da8 <__wrap___aeabi_memcpy>
10000c14:	1936      	adds	r6, r6, r4
10000c16:	464b      	mov	r3, r9
10000c18:	2b00      	cmp	r3, #0
10000c1a:	d002      	beq.n	10000c22 <_ZNSt6vectorIN11flexbuffers7Builder5ValueESaIS2_EE17_M_realloc_insertIJS2_EEEvN9__gnu_cxx17__normal_iteratorIPS2_S4_EEDpOT_+0x8a>
10000c1c:	4648      	mov	r0, r9
10000c1e:	f006 f8cd 	bl	10006dbc <_ZdlPv>
10000c22:	465b      	mov	r3, fp
10000c24:	603b      	str	r3, [r7, #0]
10000c26:	9b01      	ldr	r3, [sp, #4]
10000c28:	607e      	str	r6, [r7, #4]
10000c2a:	60bb      	str	r3, [r7, #8]
10000c2c:	b003      	add	sp, #12
10000c2e:	bcf0      	pop	{r4, r5, r6, r7}
10000c30:	46bb      	mov	fp, r7
10000c32:	46b2      	mov	sl, r6
10000c34:	46a9      	mov	r9, r5
10000c36:	46a0      	mov	r8, r4
10000c38:	bdf0      	pop	{r4, r5, r6, r7, pc}
10000c3a:	4d16      	ldr	r5, [pc, #88]	@ (10000c94 <_ZNSt6vectorIN11flexbuffers7Builder5ValueESaIS2_EE17_M_realloc_insertIJS2_EEEvN9__gnu_cxx17__normal_iteratorIPS2_S4_EEDpOT_+0xfc>)
10000c3c:	0028      	movs	r0, r5
10000c3e:	f006 f8b9 	bl	10006db4 <_Znwj>
10000c42:	002b      	movs	r3, r5
10000c44:	4683      	mov	fp, r0
10000c46:	2210      	movs	r2, #16
10000c48:	445b      	add	r3, fp
10000c4a:	0021      	movs	r1, r4
10000c4c:	1980      	adds	r0, r0, r6
10000c4e:	9301      	str	r3, [sp, #4]
10000c50:	f006 f8aa 	bl	10006da8 <__wrap___aeabi_memcpy>
10000c54:	45c1      	cmp	r9, r8
10000c56:	d1c6      	bne.n	10000be6 <_ZNSt6vectorIN11flexbuffers7Builder5ValueESaIS2_EE17_M_realloc_insertIJS2_EEEvN9__gnu_cxx17__normal_iteratorIPS2_S4_EEDpOT_+0x4e>
10000c58:	465e      	mov	r6, fp
10000c5a:	3610      	adds	r6, #16
10000c5c:	e7d0      	b.n	10000c00 <_ZNSt6vectorIN11flexbuffers7Builder5ValueESaIS2_EE17_M_realloc_insertIJS2_EEEvN9__gnu_cxx17__normal_iteratorIPS2_S4_EEDpOT_+0x68>
10000c5e:	1c5d      	adds	r5, r3, #1
10000c60:	3301      	adds	r3, #1
10000c62:	d2ea      	bcs.n	10000c3a <_ZNSt6vectorIN11flexbuffers7Builder5ValueESaIS2_EE17_M_realloc_insertIJS2_EEEvN9__gnu_cxx17__normal_iteratorIPS2_S4_EEDpOT_+0xa2>
10000c64:	2380      	movs	r3, #128	@ 0x80
10000c66:	051b      	lsls	r3, r3, #20
10000c68:	429d      	cmp	r5, r3
10000c6a:	d201      	bcs.n	10000c70 <_ZNSt6vectorIN11flexbuffers7Builder5ValueESaIS2_EE17_M_realloc_insertIJS2_EEEvN9__gnu_cxx17__normal_iteratorIPS2_S4_EEDpOT_+0xd8>
10000c6c:	012d      	lsls	r5, r5, #4
10000c6e:	e7e5      	b.n	10000c3c <_ZNSt6vectorIN11flexbuffers7Builder5ValueESaIS2_EE17_M_realloc_insertIJS2_EEEvN9__gnu_cxx17__normal_iteratorIPS2_S4_EEDpOT_+0xa4>
10000c70:	0015      	movs	r5, r2
10000c72:	012d      	lsls	r5, r5, #4
10000c74:	e7e2      	b.n	10000c3c <_ZNSt6vectorIN11flexbuffers7Builder5ValueESaIS2_EE17_M_realloc_insertIJS2_EEEvN9__gnu_cxx17__normal_iteratorIPS2_S4_EEDpOT_+0xa4>
10000c76:	2610      	movs	r6, #16
10000c78:	e7c4      	b.n	10000c04 <_ZNSt6vectorIN11flexbuffers7Builder5ValueESaIS2_EE17_M_realloc_insertIJS2_EEEvN9__gnu_cxx17__normal_iteratorIPS2_S4_EEDpOT_+0x6c>
10000c7a:	2380      	movs	r3, #128	@ 0x80
10000c7c:	051b      	lsls	r3, r3, #20
10000c7e:	4299      	cmp	r1, r3
10000c80:	d300      	bcc.n	10000c84 <_ZNSt6vectorIN11flexbuffers7Builder5ValueESaIS2_EE17_M_realloc_insertIJS2_EEEvN9__gnu_cxx17__normal_iteratorIPS2_S4_EEDpOT_+0xec>
10000c82:	0011      	movs	r1, r2
10000c84:	010d      	lsls	r5, r1, #4
10000c86:	e7d9      	b.n	10000c3c <_ZNSt6vectorIN11flexbuffers7Builder5ValueESaIS2_EE17_M_realloc_insertIJS2_EEEvN9__gnu_cxx17__normal_iteratorIPS2_S4_EEDpOT_+0xa4>
10000c88:	4803      	ldr	r0, [pc, #12]	@ (10000c98 <_ZNSt6vectorIN11flexbuffers7Builder5ValueESaIS2_EE17_M_realloc_insertIJS2_EEEvN9__gnu_cxx17__normal_iteratorIPS2_S4_EEDpOT_+0x100>)
10000c8a:	f008 fda7 	bl	100097dc <_ZSt20__throw_length_errorPKc>
10000c8e:	46c0      	nop			@ (mov r8, r8)
10000c90:	07ffffff 	.word	0x07ffffff
10000c94:	7ffffff0 	.word	0x7ffffff0
10000c98:	1001970c 	.word	0x1001970c

10000c9c <_ZSt22__move_median_to_firstIPZN11flexbuffers7Builder6EndMapEjE8TwoValueN9__gnu_cxx5__ops15_Iter_comp_iterIZNS1_6EndMapEjEUlRKS2_S8_E_EEEvT_SB_SB_SB_T0_>:
10000c9c:	b5f0      	push	{r4, r5, r6, r7, lr}
10000c9e:	46de      	mov	lr, fp
10000ca0:	4657      	mov	r7, sl
10000ca2:	464e      	mov	r6, r9
10000ca4:	b5c0      	push	{r6, r7, lr}
10000ca6:	b088      	sub	sp, #32
10000ca8:	001e      	movs	r6, r3
10000caa:	9b10      	ldr	r3, [sp, #64]	@ 0x40
10000cac:	0007      	movs	r7, r0
10000cae:	681b      	ldr	r3, [r3, #0]
10000cb0:	000d      	movs	r5, r1
10000cb2:	469b      	mov	fp, r3
10000cb4:	680b      	ldr	r3, [r1, #0]
10000cb6:	0014      	movs	r4, r2
10000cb8:	445b      	add	r3, fp
10000cba:	469a      	mov	sl, r3
10000cbc:	6813      	ldr	r3, [r2, #0]
10000cbe:	4650      	mov	r0, sl
10000cc0:	445b      	add	r3, fp
10000cc2:	0019      	movs	r1, r3
10000cc4:	4699      	mov	r9, r3
10000cc6:	f015 fae5 	bl	10016294 <strcmp>
10000cca:	6833      	ldr	r3, [r6, #0]
10000ccc:	449b      	add	fp, r3
10000cce:	2800      	cmp	r0, #0
10000cd0:	d11b      	bne.n	10000d0a <_ZSt22__move_median_to_firstIPZN11flexbuffers7Builder6EndMapEjE8TwoValueN9__gnu_cxx5__ops15_Iter_comp_iterIZNS1_6EndMapEjEUlRKS2_S8_E_EEEvT_SB_SB_SB_T0_+0x6e>
10000cd2:	42a5      	cmp	r5, r4
10000cd4:	d002      	beq.n	10000cdc <_ZSt22__move_median_to_firstIPZN11flexbuffers7Builder6EndMapEjE8TwoValueN9__gnu_cxx5__ops15_Iter_comp_iterIZNS1_6EndMapEjEUlRKS2_S8_E_EEEvT_SB_SB_SB_T0_+0x40>
10000cd6:	2301      	movs	r3, #1
10000cd8:	9a10      	ldr	r2, [sp, #64]	@ 0x40
10000cda:	7653      	strb	r3, [r2, #25]
10000cdc:	4659      	mov	r1, fp
10000cde:	4650      	mov	r0, sl
10000ce0:	f015 fad8 	bl	10016294 <strcmp>
10000ce4:	2800      	cmp	r0, #0
10000ce6:	d03f      	beq.n	10000d68 <_ZSt22__move_median_to_firstIPZN11flexbuffers7Builder6EndMapEjE8TwoValueN9__gnu_cxx5__ops15_Iter_comp_iterIZNS1_6EndMapEjEUlRKS2_S8_E_EEEvT_SB_SB_SB_T0_+0xcc>
10000ce8:	da43      	bge.n	10000d72 <_ZSt22__move_median_to_firstIPZN11flexbuffers7Builder6EndMapEjE8TwoValueN9__gnu_cxx5__ops15_Iter_comp_iterIZNS1_6EndMapEjEUlRKS2_S8_E_EEEvT_SB_SB_SB_T0_+0xd6>
10000cea:	0039      	movs	r1, r7
10000cec:	2220      	movs	r2, #32
10000cee:	4668      	mov	r0, sp
10000cf0:	f006 f85a 	bl	10006da8 <__wrap___aeabi_memcpy>
10000cf4:	0029      	movs	r1, r5
10000cf6:	2220      	movs	r2, #32
10000cf8:	0038      	movs	r0, r7
10000cfa:	f006 f855 	bl	10006da8 <__wrap___aeabi_memcpy>
10000cfe:	2220      	movs	r2, #32
10000d00:	4669      	mov	r1, sp
10000d02:	0028      	movs	r0, r5
10000d04:	f006 f850 	bl	10006da8 <__wrap___aeabi_memcpy>
10000d08:	e017      	b.n	10000d3a <_ZSt22__move_median_to_firstIPZN11flexbuffers7Builder6EndMapEjE8TwoValueN9__gnu_cxx5__ops15_Iter_comp_iterIZNS1_6EndMapEjEUlRKS2_S8_E_EEEvT_SB_SB_SB_T0_+0x9e>
10000d0a:	2800      	cmp	r0, #0
10000d0c:	dae6      	bge.n	10000cdc <_ZSt22__move_median_to_firstIPZN11flexbuffers7Builder6EndMapEjE8TwoValueN9__gnu_cxx5__ops15_Iter_comp_iterIZNS1_6EndMapEjEUlRKS2_S8_E_EEEvT_SB_SB_SB_T0_+0x40>
10000d0e:	4659      	mov	r1, fp
10000d10:	4648      	mov	r0, r9
10000d12:	f015 fabf 	bl	10016294 <strcmp>
10000d16:	2800      	cmp	r0, #0
10000d18:	d015      	beq.n	10000d46 <_ZSt22__move_median_to_firstIPZN11flexbuffers7Builder6EndMapEjE8TwoValueN9__gnu_cxx5__ops15_Iter_comp_iterIZNS1_6EndMapEjEUlRKS2_S8_E_EEEvT_SB_SB_SB_T0_+0xaa>
10000d1a:	da19      	bge.n	10000d50 <_ZSt22__move_median_to_firstIPZN11flexbuffers7Builder6EndMapEjE8TwoValueN9__gnu_cxx5__ops15_Iter_comp_iterIZNS1_6EndMapEjEUlRKS2_S8_E_EEEvT_SB_SB_SB_T0_+0xb4>
10000d1c:	2220      	movs	r2, #32
10000d1e:	0039      	movs	r1, r7
10000d20:	4668      	mov	r0, sp
10000d22:	f006 f841 	bl	10006da8 <__wrap___aeabi_memcpy>
10000d26:	2220      	movs	r2, #32
10000d28:	0021      	movs	r1, r4
10000d2a:	0038      	movs	r0, r7
10000d2c:	f006 f83c 	bl	10006da8 <__wrap___aeabi_memcpy>
10000d30:	2220      	movs	r2, #32
10000d32:	4669      	mov	r1, sp
10000d34:	0020      	movs	r0, r4
10000d36:	f006 f837 	bl	10006da8 <__wrap___aeabi_memcpy>
10000d3a:	b008      	add	sp, #32
10000d3c:	bce0      	pop	{r5, r6, r7}
10000d3e:	46bb      	mov	fp, r7
10000d40:	46b2      	mov	sl, r6
10000d42:	46a9      	mov	r9, r5
10000d44:	bdf0      	pop	{r4, r5, r6, r7, pc}
10000d46:	42b4      	cmp	r4, r6
10000d48:	d002      	beq.n	10000d50 <_ZSt22__move_median_to_firstIPZN11flexbuffers7Builder6EndMapEjE8TwoValueN9__gnu_cxx5__ops15_Iter_comp_iterIZNS1_6EndMapEjEUlRKS2_S8_E_EEEvT_SB_SB_SB_T0_+0xb4>
10000d4a:	2301      	movs	r3, #1
10000d4c:	9a10      	ldr	r2, [sp, #64]	@ 0x40
10000d4e:	7653      	strb	r3, [r2, #25]
10000d50:	4659      	mov	r1, fp
10000d52:	4650      	mov	r0, sl
10000d54:	f015 fa9e 	bl	10016294 <strcmp>
10000d58:	2800      	cmp	r0, #0
10000d5a:	d116      	bne.n	10000d8a <_ZSt22__move_median_to_firstIPZN11flexbuffers7Builder6EndMapEjE8TwoValueN9__gnu_cxx5__ops15_Iter_comp_iterIZNS1_6EndMapEjEUlRKS2_S8_E_EEEvT_SB_SB_SB_T0_+0xee>
10000d5c:	42b5      	cmp	r5, r6
10000d5e:	d0c4      	beq.n	10000cea <_ZSt22__move_median_to_firstIPZN11flexbuffers7Builder6EndMapEjE8TwoValueN9__gnu_cxx5__ops15_Iter_comp_iterIZNS1_6EndMapEjEUlRKS2_S8_E_EEEvT_SB_SB_SB_T0_+0x4e>
10000d60:	2301      	movs	r3, #1
10000d62:	9a10      	ldr	r2, [sp, #64]	@ 0x40
10000d64:	7653      	strb	r3, [r2, #25]
10000d66:	e7c0      	b.n	10000cea <_ZSt22__move_median_to_firstIPZN11flexbuffers7Builder6EndMapEjE8TwoValueN9__gnu_cxx5__ops15_Iter_comp_iterIZNS1_6EndMapEjEUlRKS2_S8_E_EEEvT_SB_SB_SB_T0_+0x4e>
10000d68:	42b5      	cmp	r5, r6
10000d6a:	d002      	beq.n	10000d72 <_ZSt22__move_median_to_firstIPZN11flexbuffers7Builder6EndMapEjE8TwoValueN9__gnu_cxx5__ops15_Iter_comp_iterIZNS1_6EndMapEjEUlRKS2_S8_E_EEEvT_SB_SB_SB_T0_+0xd6>
10000d6c:	2301      	movs	r3, #1
10000d6e:	9a10      	ldr	r2, [sp, #64]	@ 0x40
10000d70:	7653      	strb	r3, [r2, #25]
10000d72:	4659      	mov	r1, fp
10000d74:	4648      	mov	r0, r9
10000d76:	f015 fa8d 	bl	10016294 <strcmp>
10000d7a:	2800      	cmp	r0, #0
10000d7c:	d117      	bne.n	10000dae <_ZSt22__move_median_to_firstIPZN11flexbuffers7Builder6EndMapEjE8TwoValueN9__gnu_cxx5__ops15_Iter_comp_iterIZNS1_6EndMapEjEUlRKS2_S8_E_EEEvT_SB_SB_SB_T0_+0x112>
10000d7e:	42b4      	cmp	r4, r6
10000d80:	d0cc      	beq.n	10000d1c <_ZSt22__move_median_to_firstIPZN11flexbuffers7Builder6EndMapEjE8TwoValueN9__gnu_cxx5__ops15_Iter_comp_iterIZNS1_6EndMapEjEUlRKS2_S8_E_EEEvT_SB_SB_SB_T0_+0x80>
10000d82:	2301      	movs	r3, #1
10000d84:	9a10      	ldr	r2, [sp, #64]	@ 0x40
10000d86:	7653      	strb	r3, [r2, #25]
10000d88:	e7c8      	b.n	10000d1c <_ZSt22__move_median_to_firstIPZN11flexbuffers7Builder6EndMapEjE8TwoValueN9__gnu_cxx5__ops15_Iter_comp_iterIZNS1_6EndMapEjEUlRKS2_S8_E_EEEvT_SB_SB_SB_T0_+0x80>
10000d8a:	2800      	cmp	r0, #0
10000d8c:	daad      	bge.n	10000cea <_ZSt22__move_median_to_firstIPZN11flexbuffers7Builder6EndMapEjE8TwoValueN9__gnu_cxx5__ops15_Iter_comp_iterIZNS1_6EndMapEjEUlRKS2_S8_E_EEEvT_SB_SB_SB_T0_+0x4e>
10000d8e:	0039      	movs	r1, r7
10000d90:	2220      	movs	r2, #32
10000d92:	4668      	mov	r0, sp
10000d94:	f006 f808 	bl	10006da8 <__wrap___aeabi_memcpy>
10000d98:	0031      	movs	r1, r6
10000d9a:	2220      	movs	r2, #32
10000d9c:	0038      	movs	r0, r7
10000d9e:	f006 f803 	bl	10006da8 <__wrap___aeabi_memcpy>
10000da2:	2220      	movs	r2, #32
10000da4:	4669      	mov	r1, sp
10000da6:	0030      	movs	r0, r6
10000da8:	f005 fffe 	bl	10006da8 <__wrap___aeabi_memcpy>
10000dac:	e7c5      	b.n	10000d3a <_ZSt22__move_median_to_firstIPZN11flexbuffers7Builder6EndMapEjE8TwoValueN9__gnu_cxx5__ops15_Iter_comp_iterIZNS1_6EndMapEjEUlRKS2_S8_E_EEEvT_SB_SB_SB_T0_+0x9e>
10000dae:	2800      	cmp	r0, #0
10000db0:	dbed      	blt.n	10000d8e <_ZSt22__move_median_to_firstIPZN11flexbuffers7Builder6EndMapEjE8TwoValueN9__gnu_cxx5__ops15_Iter_comp_iterIZNS1_6EndMapEjEUlRKS2_S8_E_EEEvT_SB_SB_SB_T0_+0xf2>
10000db2:	e7b3      	b.n	10000d1c <_ZSt22__move_median_to_firstIPZN11flexbuffers7Builder6EndMapEjE8TwoValueN9__gnu_cxx5__ops15_Iter_comp_iterIZNS1_6EndMapEjEUlRKS2_S8_E_EEEvT_SB_SB_SB_T0_+0x80>

10000db4 <_ZSt25__unguarded_linear_insertIPZN11flexbuffers7Builder6EndMapEjE8TwoValueN9__gnu_cxx5__ops14_Val_comp_iterIZNS1_6EndMapEjEUlRKS2_S8_E_EEEvT_T0_>:
10000db4:	b5f0      	push	{r4, r5, r6, r7, lr}
10000db6:	0005      	movs	r5, r0
10000db8:	000f      	movs	r7, r1
10000dba:	002c      	movs	r4, r5
10000dbc:	b089      	sub	sp, #36	@ 0x24
10000dbe:	0001      	movs	r1, r0
10000dc0:	2220      	movs	r2, #32
10000dc2:	4668      	mov	r0, sp
10000dc4:	f005 fff0 	bl	10006da8 <__wrap___aeabi_memcpy>
10000dc8:	683e      	ldr	r6, [r7, #0]
10000dca:	682d      	ldr	r5, [r5, #0]
10000dcc:	3c20      	subs	r4, #32
10000dce:	1975      	adds	r5, r6, r5
10000dd0:	6821      	ldr	r1, [r4, #0]
10000dd2:	0028      	movs	r0, r5
10000dd4:	1871      	adds	r1, r6, r1
10000dd6:	f015 fa5d 	bl	10016294 <strcmp>
10000dda:	2800      	cmp	r0, #0
10000ddc:	d109      	bne.n	10000df2 <_ZSt25__unguarded_linear_insertIPZN11flexbuffers7Builder6EndMapEjE8TwoValueN9__gnu_cxx5__ops14_Val_comp_iterIZNS1_6EndMapEjEUlRKS2_S8_E_EEEvT_T0_+0x3e>
10000dde:	2301      	movs	r3, #1
10000de0:	767b      	strb	r3, [r7, #25]
10000de2:	0020      	movs	r0, r4
10000de4:	2220      	movs	r2, #32
10000de6:	4669      	mov	r1, sp
10000de8:	3020      	adds	r0, #32
10000dea:	f005 ffdd 	bl	10006da8 <__wrap___aeabi_memcpy>
10000dee:	b009      	add	sp, #36	@ 0x24
10000df0:	bdf0      	pop	{r4, r5, r6, r7, pc}
10000df2:	2800      	cmp	r0, #0
10000df4:	daf5      	bge.n	10000de2 <_ZSt25__unguarded_linear_insertIPZN11flexbuffers7Builder6EndMapEjE8TwoValueN9__gnu_cxx5__ops14_Val_comp_iterIZNS1_6EndMapEjEUlRKS2_S8_E_EEEvT_T0_+0x2e>
10000df6:	0020      	movs	r0, r4
10000df8:	0021      	movs	r1, r4
10000dfa:	2220      	movs	r2, #32
10000dfc:	3020      	adds	r0, #32
10000dfe:	f005 ffd3 	bl	10006da8 <__wrap___aeabi_memcpy>
10000e02:	3c20      	subs	r4, #32
10000e04:	e7e4      	b.n	10000dd0 <_ZSt25__unguarded_linear_insertIPZN11flexbuffers7Builder6EndMapEjE8TwoValueN9__gnu_cxx5__ops14_Val_comp_iterIZNS1_6EndMapEjEUlRKS2_S8_E_EEEvT_T0_+0x1c>
10000e06:	46c0      	nop			@ (mov r8, r8)

10000e08 <_ZSt16__insertion_sortIPZN11flexbuffers7Builder6EndMapEjE8TwoValueN9__gnu_cxx5__ops15_Iter_comp_iterIZNS1_6EndMapEjEUlRKS2_S8_E_EEEvT_SB_T0_>:
10000e08:	b5f0      	push	{r4, r5, r6, r7, lr}
10000e0a:	4647      	mov	r7, r8
10000e0c:	46ce      	mov	lr, r9
10000e0e:	b580      	push	{r7, lr}
10000e10:	0005      	movs	r5, r0
10000e12:	000f      	movs	r7, r1
10000e14:	0016      	movs	r6, r2
10000e16:	b089      	sub	sp, #36	@ 0x24
10000e18:	4288      	cmp	r0, r1
10000e1a:	d033      	beq.n	10000e84 <_ZSt16__insertion_sortIPZN11flexbuffers7Builder6EndMapEjE8TwoValueN9__gnu_cxx5__ops15_Iter_comp_iterIZNS1_6EndMapEjEUlRKS2_S8_E_EEEvT_SB_T0_+0x7c>
10000e1c:	0004      	movs	r4, r0
10000e1e:	3420      	adds	r4, #32
10000e20:	42a1      	cmp	r1, r4
10000e22:	d02f      	beq.n	10000e84 <_ZSt16__insertion_sortIPZN11flexbuffers7Builder6EndMapEjE8TwoValueN9__gnu_cxx5__ops15_Iter_comp_iterIZNS1_6EndMapEjEUlRKS2_S8_E_EEEvT_SB_T0_+0x7c>
10000e24:	2320      	movs	r3, #32
10000e26:	4698      	mov	r8, r3
10000e28:	3b1f      	subs	r3, #31
10000e2a:	4699      	mov	r9, r3
10000e2c:	e00a      	b.n	10000e44 <_ZSt16__insertion_sortIPZN11flexbuffers7Builder6EndMapEjE8TwoValueN9__gnu_cxx5__ops15_Iter_comp_iterIZNS1_6EndMapEjEUlRKS2_S8_E_EEEvT_SB_T0_+0x3c>
10000e2e:	42a5      	cmp	r5, r4
10000e30:	d001      	beq.n	10000e36 <_ZSt16__insertion_sortIPZN11flexbuffers7Builder6EndMapEjE8TwoValueN9__gnu_cxx5__ops15_Iter_comp_iterIZNS1_6EndMapEjEUlRKS2_S8_E_EEEvT_SB_T0_+0x2e>
10000e32:	464b      	mov	r3, r9
10000e34:	7673      	strb	r3, [r6, #25]
10000e36:	0020      	movs	r0, r4
10000e38:	0031      	movs	r1, r6
10000e3a:	3420      	adds	r4, #32
10000e3c:	f7ff ffba 	bl	10000db4 <_ZSt25__unguarded_linear_insertIPZN11flexbuffers7Builder6EndMapEjE8TwoValueN9__gnu_cxx5__ops14_Val_comp_iterIZNS1_6EndMapEjEUlRKS2_S8_E_EEEvT_T0_>
10000e40:	42a7      	cmp	r7, r4
10000e42:	d01f      	beq.n	10000e84 <_ZSt16__insertion_sortIPZN11flexbuffers7Builder6EndMapEjE8TwoValueN9__gnu_cxx5__ops15_Iter_comp_iterIZNS1_6EndMapEjEUlRKS2_S8_E_EEEvT_SB_T0_+0x7c>
10000e44:	6833      	ldr	r3, [r6, #0]
10000e46:	6829      	ldr	r1, [r5, #0]
10000e48:	6820      	ldr	r0, [r4, #0]
10000e4a:	1859      	adds	r1, r3, r1
10000e4c:	1818      	adds	r0, r3, r0
10000e4e:	f015 fa21 	bl	10016294 <strcmp>
10000e52:	2800      	cmp	r0, #0
10000e54:	d0eb      	beq.n	10000e2e <_ZSt16__insertion_sortIPZN11flexbuffers7Builder6EndMapEjE8TwoValueN9__gnu_cxx5__ops15_Iter_comp_iterIZNS1_6EndMapEjEUlRKS2_S8_E_EEEvT_SB_T0_+0x26>
10000e56:	daee      	bge.n	10000e36 <_ZSt16__insertion_sortIPZN11flexbuffers7Builder6EndMapEjE8TwoValueN9__gnu_cxx5__ops15_Iter_comp_iterIZNS1_6EndMapEjEUlRKS2_S8_E_EEEvT_SB_T0_+0x2e>
10000e58:	2220      	movs	r2, #32
10000e5a:	0021      	movs	r1, r4
10000e5c:	4668      	mov	r0, sp
10000e5e:	f005 ffa3 	bl	10006da8 <__wrap___aeabi_memcpy>
10000e62:	1b62      	subs	r2, r4, r5
10000e64:	2a20      	cmp	r2, #32
10000e66:	dd12      	ble.n	10000e8e <_ZSt16__insertion_sortIPZN11flexbuffers7Builder6EndMapEjE8TwoValueN9__gnu_cxx5__ops15_Iter_comp_iterIZNS1_6EndMapEjEUlRKS2_S8_E_EEEvT_SB_T0_+0x86>
10000e68:	4643      	mov	r3, r8
10000e6a:	1a98      	subs	r0, r3, r2
10000e6c:	0029      	movs	r1, r5
10000e6e:	1820      	adds	r0, r4, r0
10000e70:	f015 f874 	bl	10015f5c <memmove>
10000e74:	2220      	movs	r2, #32
10000e76:	4669      	mov	r1, sp
10000e78:	0028      	movs	r0, r5
10000e7a:	3420      	adds	r4, #32
10000e7c:	f005 ff94 	bl	10006da8 <__wrap___aeabi_memcpy>
10000e80:	42a7      	cmp	r7, r4
10000e82:	d1df      	bne.n	10000e44 <_ZSt16__insertion_sortIPZN11flexbuffers7Builder6EndMapEjE8TwoValueN9__gnu_cxx5__ops15_Iter_comp_iterIZNS1_6EndMapEjEUlRKS2_S8_E_EEEvT_SB_T0_+0x3c>
10000e84:	b009      	add	sp, #36	@ 0x24
10000e86:	bcc0      	pop	{r6, r7}
10000e88:	46b9      	mov	r9, r7
10000e8a:	46b0      	mov	r8, r6
10000e8c:	bdf0      	pop	{r4, r5, r6, r7, pc}
10000e8e:	2a20      	cmp	r2, #32
10000e90:	d1f0      	bne.n	10000e74 <_ZSt16__insertion_sortIPZN11flexbuffers7Builder6EndMapEjE8TwoValueN9__gnu_cxx5__ops15_Iter_comp_iterIZNS1_6EndMapEjEUlRKS2_S8_E_EEEvT_SB_T0_+0x6c>
10000e92:	0029      	movs	r1, r5
10000e94:	0020      	movs	r0, r4
10000e96:	f005 ff87 	bl	10006da8 <__wrap___aeabi_memcpy>
10000e9a:	e7eb      	b.n	10000e74 <_ZSt16__insertion_sortIPZN11flexbuffers7Builder6EndMapEjE8TwoValueN9__gnu_cxx5__ops15_Iter_comp_iterIZNS1_6EndMapEjEUlRKS2_S8_E_EEEvT_SB_T0_+0x6c>

10000e9c <_ZSt13__adjust_heapIPZN11flexbuffers7Builder6EndMapEjE8TwoValueiS2_N9__gnu_cxx5__ops15_Iter_comp_iterIZNS1_6EndMapEjEUlRKS2_S8_E_EEEvT_T0_SC_T1_T2_>:
10000e9c:	b5f0      	push	{r4, r5, r6, r7, lr}
10000e9e:	464e      	mov	r6, r9
10000ea0:	46de      	mov	lr, fp
10000ea2:	4645      	mov	r5, r8
10000ea4:	4657      	mov	r7, sl
10000ea6:	4693      	mov	fp, r2
10000ea8:	b5e0      	push	{r5, r6, r7, lr}
10000eaa:	3a01      	subs	r2, #1
10000eac:	0fd3      	lsrs	r3, r2, #31
10000eae:	189b      	adds	r3, r3, r2
10000eb0:	b08d      	sub	sp, #52	@ 0x34
10000eb2:	105b      	asrs	r3, r3, #1
10000eb4:	4699      	mov	r9, r3
10000eb6:	9b16      	ldr	r3, [sp, #88]	@ 0x58
10000eb8:	2201      	movs	r2, #1
10000eba:	9300      	str	r3, [sp, #0]
10000ebc:	9b17      	ldr	r3, [sp, #92]	@ 0x5c
10000ebe:	0006      	movs	r6, r0
10000ec0:	9301      	str	r3, [sp, #4]
10000ec2:	465b      	mov	r3, fp
10000ec4:	4013      	ands	r3, r2
10000ec6:	4688      	mov	r8, r1
10000ec8:	9302      	str	r3, [sp, #8]
10000eca:	4589      	cmp	r9, r1
10000ecc:	dc00      	bgt.n	10000ed0 <_ZSt13__adjust_heapIPZN11flexbuffers7Builder6EndMapEjE8TwoValueiS2_N9__gnu_cxx5__ops15_Iter_comp_iterIZNS1_6EndMapEjEUlRKS2_S8_E_EEEvT_T0_SC_T1_T2_+0x34>
10000ece:	e08f      	b.n	10000ff0 <_ZSt13__adjust_heapIPZN11flexbuffers7Builder6EndMapEjE8TwoValueiS2_N9__gnu_cxx5__ops15_Iter_comp_iterIZNS1_6EndMapEjEUlRKS2_S8_E_EEEvT_T0_SC_T1_T2_+0x154>
10000ed0:	9b1e      	ldr	r3, [sp, #120]	@ 0x78
10000ed2:	000f      	movs	r7, r1
10000ed4:	681b      	ldr	r3, [r3, #0]
10000ed6:	4680      	mov	r8, r0
10000ed8:	469a      	mov	sl, r3
10000eda:	9103      	str	r1, [sp, #12]
10000edc:	e00d      	b.n	10000efa <_ZSt13__adjust_heapIPZN11flexbuffers7Builder6EndMapEjE8TwoValueiS2_N9__gnu_cxx5__ops15_Iter_comp_iterIZNS1_6EndMapEjEUlRKS2_S8_E_EEEvT_T0_SC_T1_T2_+0x5e>
10000ede:	42ac      	cmp	r4, r5
10000ee0:	d002      	beq.n	10000ee8 <_ZSt13__adjust_heapIPZN11flexbuffers7Builder6EndMapEjE8TwoValueiS2_N9__gnu_cxx5__ops15_Iter_comp_iterIZNS1_6EndMapEjEUlRKS2_S8_E_EEEvT_T0_SC_T1_T2_+0x4c>
10000ee2:	2201      	movs	r2, #1
10000ee4:	9b1e      	ldr	r3, [sp, #120]	@ 0x78
10000ee6:	765a      	strb	r2, [r3, #25]
10000ee8:	0178      	lsls	r0, r7, #5
10000eea:	2220      	movs	r2, #32
10000eec:	0021      	movs	r1, r4
10000eee:	4440      	add	r0, r8
10000ef0:	f005 ff5a 	bl	10006da8 <__wrap___aeabi_memcpy>
10000ef4:	454e      	cmp	r6, r9
10000ef6:	da1c      	bge.n	10000f32 <_ZSt13__adjust_heapIPZN11flexbuffers7Builder6EndMapEjE8TwoValueiS2_N9__gnu_cxx5__ops15_Iter_comp_iterIZNS1_6EndMapEjEUlRKS2_S8_E_EEEvT_T0_SC_T1_T2_+0x96>
10000ef8:	0037      	movs	r7, r6
10000efa:	1c7c      	adds	r4, r7, #1
10000efc:	4b43      	ldr	r3, [pc, #268]	@ (1000100c <_ZSt13__adjust_heapIPZN11flexbuffers7Builder6EndMapEjE8TwoValueiS2_N9__gnu_cxx5__ops15_Iter_comp_iterIZNS1_6EndMapEjEUlRKS2_S8_E_EEEvT_T0_SC_T1_T2_+0x170>)
10000efe:	0066      	lsls	r6, r4, #1
10000f00:	18f5      	adds	r5, r6, r3
10000f02:	01a4      	lsls	r4, r4, #6
10000f04:	016d      	lsls	r5, r5, #5
10000f06:	4444      	add	r4, r8
10000f08:	4445      	add	r5, r8
10000f0a:	6829      	ldr	r1, [r5, #0]
10000f0c:	6820      	ldr	r0, [r4, #0]
10000f0e:	4451      	add	r1, sl
10000f10:	4450      	add	r0, sl
10000f12:	f015 f9bf 	bl	10016294 <strcmp>
10000f16:	2800      	cmp	r0, #0
10000f18:	d0e1      	beq.n	10000ede <_ZSt13__adjust_heapIPZN11flexbuffers7Builder6EndMapEjE8TwoValueiS2_N9__gnu_cxx5__ops15_Iter_comp_iterIZNS1_6EndMapEjEUlRKS2_S8_E_EEEvT_T0_SC_T1_T2_+0x42>
10000f1a:	dae5      	bge.n	10000ee8 <_ZSt13__adjust_heapIPZN11flexbuffers7Builder6EndMapEjE8TwoValueiS2_N9__gnu_cxx5__ops15_Iter_comp_iterIZNS1_6EndMapEjEUlRKS2_S8_E_EEEvT_T0_SC_T1_T2_+0x4c>
10000f1c:	3e01      	subs	r6, #1
10000f1e:	0174      	lsls	r4, r6, #5
10000f20:	4444      	add	r4, r8
10000f22:	0178      	lsls	r0, r7, #5
10000f24:	2220      	movs	r2, #32
10000f26:	0021      	movs	r1, r4
10000f28:	4440      	add	r0, r8
10000f2a:	f005 ff3d 	bl	10006da8 <__wrap___aeabi_memcpy>
10000f2e:	454e      	cmp	r6, r9
10000f30:	dbe2      	blt.n	10000ef8 <_ZSt13__adjust_heapIPZN11flexbuffers7Builder6EndMapEjE8TwoValueiS2_N9__gnu_cxx5__ops15_Iter_comp_iterIZNS1_6EndMapEjEUlRKS2_S8_E_EEEvT_T0_SC_T1_T2_+0x5c>
10000f32:	9b03      	ldr	r3, [sp, #12]
10000f34:	0035      	movs	r5, r6
10000f36:	4646      	mov	r6, r8
10000f38:	4698      	mov	r8, r3
10000f3a:	9b02      	ldr	r3, [sp, #8]
10000f3c:	2b00      	cmp	r3, #0
10000f3e:	d033      	beq.n	10000fa8 <_ZSt13__adjust_heapIPZN11flexbuffers7Builder6EndMapEjE8TwoValueiS2_N9__gnu_cxx5__ops15_Iter_comp_iterIZNS1_6EndMapEjEUlRKS2_S8_E_EEEvT_T0_SC_T1_T2_+0x10c>
10000f40:	ab04      	add	r3, sp, #16
10000f42:	0018      	movs	r0, r3
10000f44:	2220      	movs	r2, #32
10000f46:	a916      	add	r1, sp, #88	@ 0x58
10000f48:	469b      	mov	fp, r3
10000f4a:	f005 ff2d 	bl	10006da8 <__wrap___aeabi_memcpy>
10000f4e:	1e6b      	subs	r3, r5, #1
10000f50:	0fdf      	lsrs	r7, r3, #31
10000f52:	18ff      	adds	r7, r7, r3
10000f54:	107f      	asrs	r7, r7, #1
10000f56:	4545      	cmp	r5, r8
10000f58:	dd15      	ble.n	10000f86 <_ZSt13__adjust_heapIPZN11flexbuffers7Builder6EndMapEjE8TwoValueiS2_N9__gnu_cxx5__ops15_Iter_comp_iterIZNS1_6EndMapEjEUlRKS2_S8_E_EEEvT_T0_SC_T1_T2_+0xea>
10000f5a:	9b1e      	ldr	r3, [sp, #120]	@ 0x78
10000f5c:	681b      	ldr	r3, [r3, #0]
10000f5e:	4699      	mov	r9, r3
10000f60:	9b00      	ldr	r3, [sp, #0]
10000f62:	444b      	add	r3, r9
10000f64:	469a      	mov	sl, r3
10000f66:	017c      	lsls	r4, r7, #5
10000f68:	1934      	adds	r4, r6, r4
10000f6a:	6820      	ldr	r0, [r4, #0]
10000f6c:	4651      	mov	r1, sl
10000f6e:	4448      	add	r0, r9
10000f70:	f015 f990 	bl	10016294 <strcmp>
10000f74:	016d      	lsls	r5, r5, #5
10000f76:	0003      	movs	r3, r0
10000f78:	1970      	adds	r0, r6, r5
10000f7a:	2b00      	cmp	r3, #0
10000f7c:	d129      	bne.n	10000fd2 <_ZSt13__adjust_heapIPZN11flexbuffers7Builder6EndMapEjE8TwoValueiS2_N9__gnu_cxx5__ops15_Iter_comp_iterIZNS1_6EndMapEjEUlRKS2_S8_E_EEEvT_T0_SC_T1_T2_+0x136>
10000f7e:	9a1e      	ldr	r2, [sp, #120]	@ 0x78
10000f80:	3301      	adds	r3, #1
10000f82:	7653      	strb	r3, [r2, #25]
10000f84:	0004      	movs	r4, r0
10000f86:	9b00      	ldr	r3, [sp, #0]
10000f88:	9a01      	ldr	r2, [sp, #4]
10000f8a:	9304      	str	r3, [sp, #16]
10000f8c:	465b      	mov	r3, fp
10000f8e:	4659      	mov	r1, fp
10000f90:	605a      	str	r2, [r3, #4]
10000f92:	0020      	movs	r0, r4
10000f94:	2220      	movs	r2, #32
10000f96:	f005 ff07 	bl	10006da8 <__wrap___aeabi_memcpy>
10000f9a:	b00d      	add	sp, #52	@ 0x34
10000f9c:	bcf0      	pop	{r4, r5, r6, r7}
10000f9e:	46bb      	mov	fp, r7
10000fa0:	46b2      	mov	sl, r6
10000fa2:	46a9      	mov	r9, r5
10000fa4:	46a0      	mov	r8, r4
10000fa6:	bdf0      	pop	{r4, r5, r6, r7, pc}
10000fa8:	465a      	mov	r2, fp
10000faa:	3a02      	subs	r2, #2
10000fac:	0fd3      	lsrs	r3, r2, #31
10000fae:	189b      	adds	r3, r3, r2
10000fb0:	105b      	asrs	r3, r3, #1
10000fb2:	42ab      	cmp	r3, r5
10000fb4:	d1c4      	bne.n	10000f40 <_ZSt13__adjust_heapIPZN11flexbuffers7Builder6EndMapEjE8TwoValueiS2_N9__gnu_cxx5__ops15_Iter_comp_iterIZNS1_6EndMapEjEUlRKS2_S8_E_EEEvT_T0_SC_T1_T2_+0xa4>
10000fb6:	4b15      	ldr	r3, [pc, #84]	@ (1000100c <_ZSt13__adjust_heapIPZN11flexbuffers7Builder6EndMapEjE8TwoValueiS2_N9__gnu_cxx5__ops15_Iter_comp_iterIZNS1_6EndMapEjEUlRKS2_S8_E_EEEvT_T0_SC_T1_T2_+0x170>)
10000fb8:	3501      	adds	r5, #1
10000fba:	006d      	lsls	r5, r5, #1
10000fbc:	18e9      	adds	r1, r5, r3
10000fbe:	0149      	lsls	r1, r1, #5
10000fc0:	3d01      	subs	r5, #1
10000fc2:	0020      	movs	r0, r4
10000fc4:	2220      	movs	r2, #32
10000fc6:	1871      	adds	r1, r6, r1
10000fc8:	016c      	lsls	r4, r5, #5
10000fca:	f005 feed 	bl	10006da8 <__wrap___aeabi_memcpy>
10000fce:	1934      	adds	r4, r6, r4
10000fd0:	e7b6      	b.n	10000f40 <_ZSt13__adjust_heapIPZN11flexbuffers7Builder6EndMapEjE8TwoValueiS2_N9__gnu_cxx5__ops15_Iter_comp_iterIZNS1_6EndMapEjEUlRKS2_S8_E_EEEvT_T0_SC_T1_T2_+0xa4>
10000fd2:	2b00      	cmp	r3, #0
10000fd4:	dad6      	bge.n	10000f84 <_ZSt13__adjust_heapIPZN11flexbuffers7Builder6EndMapEjE8TwoValueiS2_N9__gnu_cxx5__ops15_Iter_comp_iterIZNS1_6EndMapEjEUlRKS2_S8_E_EEEvT_T0_SC_T1_T2_+0xe8>
10000fd6:	2220      	movs	r2, #32
10000fd8:	0021      	movs	r1, r4
10000fda:	f005 fee5 	bl	10006da8 <__wrap___aeabi_memcpy>
10000fde:	1e7a      	subs	r2, r7, #1
10000fe0:	0fd3      	lsrs	r3, r2, #31
10000fe2:	189b      	adds	r3, r3, r2
10000fe4:	003d      	movs	r5, r7
10000fe6:	105b      	asrs	r3, r3, #1
10000fe8:	45b8      	cmp	r8, r7
10000fea:	dacc      	bge.n	10000f86 <_ZSt13__adjust_heapIPZN11flexbuffers7Builder6EndMapEjE8TwoValueiS2_N9__gnu_cxx5__ops15_Iter_comp_iterIZNS1_6EndMapEjEUlRKS2_S8_E_EEEvT_T0_SC_T1_T2_+0xea>
10000fec:	001f      	movs	r7, r3
10000fee:	e7ba      	b.n	10000f66 <_ZSt13__adjust_heapIPZN11flexbuffers7Builder6EndMapEjE8TwoValueiS2_N9__gnu_cxx5__ops15_Iter_comp_iterIZNS1_6EndMapEjEUlRKS2_S8_E_EEEvT_T0_SC_T1_T2_+0xca>
10000ff0:	9b02      	ldr	r3, [sp, #8]
10000ff2:	014c      	lsls	r4, r1, #5
10000ff4:	000d      	movs	r5, r1
10000ff6:	1904      	adds	r4, r0, r4
10000ff8:	2b00      	cmp	r3, #0
10000ffa:	d0d5      	beq.n	10000fa8 <_ZSt13__adjust_heapIPZN11flexbuffers7Builder6EndMapEjE8TwoValueiS2_N9__gnu_cxx5__ops15_Iter_comp_iterIZNS1_6EndMapEjEUlRKS2_S8_E_EEEvT_T0_SC_T1_T2_+0x10c>
10000ffc:	ab04      	add	r3, sp, #16
10000ffe:	2220      	movs	r2, #32
10001000:	0018      	movs	r0, r3
10001002:	a916      	add	r1, sp, #88	@ 0x58
10001004:	469b      	mov	fp, r3
10001006:	f005 fecf 	bl	10006da8 <__wrap___aeabi_memcpy>
1000100a:	e7bc      	b.n	10000f86 <_ZSt13__adjust_heapIPZN11flexbuffers7Builder6EndMapEjE8TwoValueiS2_N9__gnu_cxx5__ops15_Iter_comp_iterIZNS1_6EndMapEjEUlRKS2_S8_E_EEEvT_T0_SC_T1_T2_+0xea>
1000100c:	07ffffff 	.word	0x07ffffff

10001010 <_ZSt13__heap_selectIPZN11flexbuffers7Builder6EndMapEjE8TwoValueN9__gnu_cxx5__ops15_Iter_comp_iterIZNS1_6EndMapEjEUlRKS2_S8_E_EEEvT_SB_SB_T0_>:
10001010:	b5f0      	push	{r4, r5, r6, r7, lr}
10001012:	464f      	mov	r7, r9
10001014:	4646      	mov	r6, r8
10001016:	46d6      	mov	lr, sl
10001018:	b5c0      	push	{r6, r7, lr}
1000101a:	001f      	movs	r7, r3
1000101c:	1a0b      	subs	r3, r1, r0
1000101e:	0005      	movs	r5, r0
10001020:	000c      	movs	r4, r1
10001022:	4690      	mov	r8, r2
10001024:	4699      	mov	r9, r3
10001026:	b092      	sub	sp, #72	@ 0x48
10001028:	2b20      	cmp	r3, #32
1000102a:	dd1a      	ble.n	10001062 <_ZSt13__heap_selectIPZN11flexbuffers7Builder6EndMapEjE8TwoValueN9__gnu_cxx5__ops15_Iter_comp_iterIZNS1_6EndMapEjEUlRKS2_S8_E_EEEvT_SB_SB_T0_+0x52>
1000102c:	115b      	asrs	r3, r3, #5
1000102e:	469a      	mov	sl, r3
10001030:	3b02      	subs	r3, #2
10001032:	0fde      	lsrs	r6, r3, #31
10001034:	18f6      	adds	r6, r6, r3
10001036:	1076      	asrs	r6, r6, #1
10001038:	e000      	b.n	1000103c <_ZSt13__heap_selectIPZN11flexbuffers7Builder6EndMapEjE8TwoValueN9__gnu_cxx5__ops15_Iter_comp_iterIZNS1_6EndMapEjEUlRKS2_S8_E_EEEvT_SB_SB_T0_+0x2c>
1000103a:	3e01      	subs	r6, #1
1000103c:	0171      	lsls	r1, r6, #5
1000103e:	2220      	movs	r2, #32
10001040:	1869      	adds	r1, r5, r1
10001042:	a80a      	add	r0, sp, #40	@ 0x28
10001044:	f005 feb0 	bl	10006da8 <__wrap___aeabi_memcpy>
10001048:	2220      	movs	r2, #32
1000104a:	a90a      	add	r1, sp, #40	@ 0x28
1000104c:	4668      	mov	r0, sp
1000104e:	9708      	str	r7, [sp, #32]
10001050:	f005 feaa 	bl	10006da8 <__wrap___aeabi_memcpy>
10001054:	4652      	mov	r2, sl
10001056:	0031      	movs	r1, r6
10001058:	0028      	movs	r0, r5
1000105a:	f7ff ff1f 	bl	10000e9c <_ZSt13__adjust_heapIPZN11flexbuffers7Builder6EndMapEjE8TwoValueiS2_N9__gnu_cxx5__ops15_Iter_comp_iterIZNS1_6EndMapEjEUlRKS2_S8_E_EEEvT_T0_SC_T1_T2_>
1000105e:	2e00      	cmp	r6, #0
10001060:	d1eb      	bne.n	1000103a <_ZSt13__heap_selectIPZN11flexbuffers7Builder6EndMapEjE8TwoValueN9__gnu_cxx5__ops15_Iter_comp_iterIZNS1_6EndMapEjEUlRKS2_S8_E_EEEvT_SB_SB_T0_+0x2a>
10001062:	4544      	cmp	r4, r8
10001064:	d22e      	bcs.n	100010c4 <_ZSt13__heap_selectIPZN11flexbuffers7Builder6EndMapEjE8TwoValueN9__gnu_cxx5__ops15_Iter_comp_iterIZNS1_6EndMapEjEUlRKS2_S8_E_EEEvT_SB_SB_T0_+0xb4>
10001066:	464b      	mov	r3, r9
10001068:	115b      	asrs	r3, r3, #5
1000106a:	4699      	mov	r9, r3
1000106c:	2301      	movs	r3, #1
1000106e:	683e      	ldr	r6, [r7, #0]
10001070:	469a      	mov	sl, r3
10001072:	e006      	b.n	10001082 <_ZSt13__heap_selectIPZN11flexbuffers7Builder6EndMapEjE8TwoValueN9__gnu_cxx5__ops15_Iter_comp_iterIZNS1_6EndMapEjEUlRKS2_S8_E_EEEvT_SB_SB_T0_+0x72>
10001074:	42a5      	cmp	r5, r4
10001076:	d001      	beq.n	1000107c <_ZSt13__heap_selectIPZN11flexbuffers7Builder6EndMapEjE8TwoValueN9__gnu_cxx5__ops15_Iter_comp_iterIZNS1_6EndMapEjEUlRKS2_S8_E_EEEvT_SB_SB_T0_+0x6c>
10001078:	4653      	mov	r3, sl
1000107a:	767b      	strb	r3, [r7, #25]
1000107c:	3420      	adds	r4, #32
1000107e:	45a0      	cmp	r8, r4
10001080:	d920      	bls.n	100010c4 <_ZSt13__heap_selectIPZN11flexbuffers7Builder6EndMapEjE8TwoValueN9__gnu_cxx5__ops15_Iter_comp_iterIZNS1_6EndMapEjEUlRKS2_S8_E_EEEvT_SB_SB_T0_+0xb4>
10001082:	6829      	ldr	r1, [r5, #0]
10001084:	6820      	ldr	r0, [r4, #0]
10001086:	1871      	adds	r1, r6, r1
10001088:	1830      	adds	r0, r6, r0
1000108a:	f015 f903 	bl	10016294 <strcmp>
1000108e:	2800      	cmp	r0, #0
10001090:	d0f0      	beq.n	10001074 <_ZSt13__heap_selectIPZN11flexbuffers7Builder6EndMapEjE8TwoValueN9__gnu_cxx5__ops15_Iter_comp_iterIZNS1_6EndMapEjEUlRKS2_S8_E_EEEvT_SB_SB_T0_+0x64>
10001092:	daf3      	bge.n	1000107c <_ZSt13__heap_selectIPZN11flexbuffers7Builder6EndMapEjE8TwoValueN9__gnu_cxx5__ops15_Iter_comp_iterIZNS1_6EndMapEjEUlRKS2_S8_E_EEEvT_SB_SB_T0_+0x6c>
10001094:	0021      	movs	r1, r4
10001096:	2220      	movs	r2, #32
10001098:	a80a      	add	r0, sp, #40	@ 0x28
1000109a:	f005 fe85 	bl	10006da8 <__wrap___aeabi_memcpy>
1000109e:	2220      	movs	r2, #32
100010a0:	0029      	movs	r1, r5
100010a2:	0020      	movs	r0, r4
100010a4:	f005 fe80 	bl	10006da8 <__wrap___aeabi_memcpy>
100010a8:	2220      	movs	r2, #32
100010aa:	a90a      	add	r1, sp, #40	@ 0x28
100010ac:	4668      	mov	r0, sp
100010ae:	9708      	str	r7, [sp, #32]
100010b0:	3420      	adds	r4, #32
100010b2:	f005 fe79 	bl	10006da8 <__wrap___aeabi_memcpy>
100010b6:	464a      	mov	r2, r9
100010b8:	2100      	movs	r1, #0
100010ba:	0028      	movs	r0, r5
100010bc:	f7ff feee 	bl	10000e9c <_ZSt13__adjust_heapIPZN11flexbuffers7Builder6EndMapEjE8TwoValueiS2_N9__gnu_cxx5__ops15_Iter_comp_iterIZNS1_6EndMapEjEUlRKS2_S8_E_EEEvT_T0_SC_T1_T2_>
100010c0:	45a0      	cmp	r8, r4
100010c2:	d8de      	bhi.n	10001082 <_ZSt13__heap_selectIPZN11flexbuffers7Builder6EndMapEjE8TwoValueN9__gnu_cxx5__ops15_Iter_comp_iterIZNS1_6EndMapEjEUlRKS2_S8_E_EEEvT_SB_SB_T0_+0x72>
100010c4:	b012      	add	sp, #72	@ 0x48
100010c6:	bce0      	pop	{r5, r6, r7}
100010c8:	46ba      	mov	sl, r7
100010ca:	46b1      	mov	r9, r6
100010cc:	46a8      	mov	r8, r5
100010ce:	bdf0      	pop	{r4, r5, r6, r7, pc}

100010d0 <_ZSt16__introsort_loopIPZN11flexbuffers7Builder6EndMapEjE8TwoValueiN9__gnu_cxx5__ops15_Iter_comp_iterIZNS1_6EndMapEjEUlRKS2_S8_E_EEEvT_SB_T0_T1_>:
100010d0:	b5f0      	push	{r4, r5, r6, r7, lr}
100010d2:	46de      	mov	lr, fp
100010d4:	464e      	mov	r6, r9
100010d6:	4645      	mov	r5, r8
100010d8:	4657      	mov	r7, sl
100010da:	b5e0      	push	{r5, r6, r7, lr}
100010dc:	b095      	sub	sp, #84	@ 0x54
100010de:	920a      	str	r2, [sp, #40]	@ 0x28
100010e0:	2280      	movs	r2, #128	@ 0x80
100010e2:	4699      	mov	r9, r3
100010e4:	4680      	mov	r8, r0
100010e6:	468b      	mov	fp, r1
100010e8:	1a0b      	subs	r3, r1, r0
100010ea:	0092      	lsls	r2, r2, #2
100010ec:	4293      	cmp	r3, r2
100010ee:	dc00      	bgt.n	100010f2 <_ZSt16__introsort_loopIPZN11flexbuffers7Builder6EndMapEjE8TwoValueiN9__gnu_cxx5__ops15_Iter_comp_iterIZNS1_6EndMapEjEUlRKS2_S8_E_EEEvT_SB_T0_T1_+0x22>
100010f0:	e083      	b.n	100011fa <_ZSt16__introsort_loopIPZN11flexbuffers7Builder6EndMapEjE8TwoValueiN9__gnu_cxx5__ops15_Iter_comp_iterIZNS1_6EndMapEjEUlRKS2_S8_E_EEEvT_SB_T0_T1_+0x12a>
100010f2:	9a0a      	ldr	r2, [sp, #40]	@ 0x28
100010f4:	2a00      	cmp	r2, #0
100010f6:	d05d      	beq.n	100011b4 <_ZSt16__introsort_loopIPZN11flexbuffers7Builder6EndMapEjE8TwoValueiN9__gnu_cxx5__ops15_Iter_comp_iterIZNS1_6EndMapEjEUlRKS2_S8_E_EEEvT_SB_T0_T1_+0xe4>
100010f8:	2220      	movs	r2, #32
100010fa:	4442      	add	r2, r8
100010fc:	920b      	str	r2, [sp, #44]	@ 0x2c
100010fe:	2201      	movs	r2, #1
10001100:	4692      	mov	sl, r2
10001102:	9a0a      	ldr	r2, [sp, #40]	@ 0x28
10001104:	3a01      	subs	r2, #1
10001106:	920a      	str	r2, [sp, #40]	@ 0x28
10001108:	119a      	asrs	r2, r3, #6
1000110a:	464b      	mov	r3, r9
1000110c:	9300      	str	r3, [sp, #0]
1000110e:	465b      	mov	r3, fp
10001110:	9c0b      	ldr	r4, [sp, #44]	@ 0x2c
10001112:	0152      	lsls	r2, r2, #5
10001114:	3b20      	subs	r3, #32
10001116:	0021      	movs	r1, r4
10001118:	4640      	mov	r0, r8
1000111a:	4442      	add	r2, r8
1000111c:	f7ff fdbe 	bl	10000c9c <_ZSt22__move_median_to_firstIPZN11flexbuffers7Builder6EndMapEjE8TwoValueN9__gnu_cxx5__ops15_Iter_comp_iterIZNS1_6EndMapEjEUlRKS2_S8_E_EEEvT_SB_SB_SB_T0_>
10001120:	464b      	mov	r3, r9
10001122:	465d      	mov	r5, fp
10001124:	681f      	ldr	r7, [r3, #0]
10001126:	e016      	b.n	10001156 <_ZSt16__introsort_loopIPZN11flexbuffers7Builder6EndMapEjE8TwoValueiN9__gnu_cxx5__ops15_Iter_comp_iterIZNS1_6EndMapEjEUlRKS2_S8_E_EEEvT_SB_T0_T1_+0x86>
10001128:	45a8      	cmp	r8, r5
1000112a:	d002      	beq.n	10001132 <_ZSt16__introsort_loopIPZN11flexbuffers7Builder6EndMapEjE8TwoValueiN9__gnu_cxx5__ops15_Iter_comp_iterIZNS1_6EndMapEjEUlRKS2_S8_E_EEEvT_SB_T0_T1_+0x62>
1000112c:	464b      	mov	r3, r9
1000112e:	4652      	mov	r2, sl
10001130:	765a      	strb	r2, [r3, #25]
10001132:	42ac      	cmp	r4, r5
10001134:	d229      	bcs.n	1000118a <_ZSt16__introsort_loopIPZN11flexbuffers7Builder6EndMapEjE8TwoValueiN9__gnu_cxx5__ops15_Iter_comp_iterIZNS1_6EndMapEjEUlRKS2_S8_E_EEEvT_SB_T0_T1_+0xba>
10001136:	0021      	movs	r1, r4
10001138:	2220      	movs	r2, #32
1000113a:	a80c      	add	r0, sp, #48	@ 0x30
1000113c:	f005 fe34 	bl	10006da8 <__wrap___aeabi_memcpy>
10001140:	2220      	movs	r2, #32
10001142:	0029      	movs	r1, r5
10001144:	0020      	movs	r0, r4
10001146:	f005 fe2f 	bl	10006da8 <__wrap___aeabi_memcpy>
1000114a:	2220      	movs	r2, #32
1000114c:	0028      	movs	r0, r5
1000114e:	a90c      	add	r1, sp, #48	@ 0x30
10001150:	f005 fe2a 	bl	10006da8 <__wrap___aeabi_memcpy>
10001154:	3420      	adds	r4, #32
10001156:	4643      	mov	r3, r8
10001158:	681e      	ldr	r6, [r3, #0]
1000115a:	19be      	adds	r6, r7, r6
1000115c:	6820      	ldr	r0, [r4, #0]
1000115e:	0031      	movs	r1, r6
10001160:	1838      	adds	r0, r7, r0
10001162:	f015 f897 	bl	10016294 <strcmp>
10001166:	2800      	cmp	r0, #0
10001168:	d120      	bne.n	100011ac <_ZSt16__introsort_loopIPZN11flexbuffers7Builder6EndMapEjE8TwoValueiN9__gnu_cxx5__ops15_Iter_comp_iterIZNS1_6EndMapEjEUlRKS2_S8_E_EEEvT_SB_T0_T1_+0xdc>
1000116a:	45a0      	cmp	r8, r4
1000116c:	d002      	beq.n	10001174 <_ZSt16__introsort_loopIPZN11flexbuffers7Builder6EndMapEjE8TwoValueiN9__gnu_cxx5__ops15_Iter_comp_iterIZNS1_6EndMapEjEUlRKS2_S8_E_EEEvT_SB_T0_T1_+0xa4>
1000116e:	464b      	mov	r3, r9
10001170:	4652      	mov	r2, sl
10001172:	765a      	strb	r2, [r3, #25]
10001174:	3d20      	subs	r5, #32
10001176:	6829      	ldr	r1, [r5, #0]
10001178:	0030      	movs	r0, r6
1000117a:	1879      	adds	r1, r7, r1
1000117c:	f015 f88a 	bl	10016294 <strcmp>
10001180:	2800      	cmp	r0, #0
10001182:	d0d1      	beq.n	10001128 <_ZSt16__introsort_loopIPZN11flexbuffers7Builder6EndMapEjE8TwoValueiN9__gnu_cxx5__ops15_Iter_comp_iterIZNS1_6EndMapEjEUlRKS2_S8_E_EEEvT_SB_T0_T1_+0x58>
10001184:	dbf6      	blt.n	10001174 <_ZSt16__introsort_loopIPZN11flexbuffers7Builder6EndMapEjE8TwoValueiN9__gnu_cxx5__ops15_Iter_comp_iterIZNS1_6EndMapEjEUlRKS2_S8_E_EEEvT_SB_T0_T1_+0xa4>
10001186:	42ac      	cmp	r4, r5
10001188:	d3d5      	bcc.n	10001136 <_ZSt16__introsort_loopIPZN11flexbuffers7Builder6EndMapEjE8TwoValueiN9__gnu_cxx5__ops15_Iter_comp_iterIZNS1_6EndMapEjEUlRKS2_S8_E_EEEvT_SB_T0_T1_+0x66>
1000118a:	464b      	mov	r3, r9
1000118c:	9a0a      	ldr	r2, [sp, #40]	@ 0x28
1000118e:	4659      	mov	r1, fp
10001190:	0020      	movs	r0, r4
10001192:	f7ff ff9d 	bl	100010d0 <_ZSt16__introsort_loopIPZN11flexbuffers7Builder6EndMapEjE8TwoValueiN9__gnu_cxx5__ops15_Iter_comp_iterIZNS1_6EndMapEjEUlRKS2_S8_E_EEEvT_SB_T0_T1_>
10001196:	4643      	mov	r3, r8
10001198:	2280      	movs	r2, #128	@ 0x80
1000119a:	1ae3      	subs	r3, r4, r3
1000119c:	0092      	lsls	r2, r2, #2
1000119e:	4293      	cmp	r3, r2
100011a0:	dd2b      	ble.n	100011fa <_ZSt16__introsort_loopIPZN11flexbuffers7Builder6EndMapEjE8TwoValueiN9__gnu_cxx5__ops15_Iter_comp_iterIZNS1_6EndMapEjEUlRKS2_S8_E_EEEvT_SB_T0_T1_+0x12a>
100011a2:	9a0a      	ldr	r2, [sp, #40]	@ 0x28
100011a4:	2a00      	cmp	r2, #0
100011a6:	d006      	beq.n	100011b6 <_ZSt16__introsort_loopIPZN11flexbuffers7Builder6EndMapEjE8TwoValueiN9__gnu_cxx5__ops15_Iter_comp_iterIZNS1_6EndMapEjEUlRKS2_S8_E_EEEvT_SB_T0_T1_+0xe6>
100011a8:	46a3      	mov	fp, r4
100011aa:	e7ab      	b.n	10001104 <_ZSt16__introsort_loopIPZN11flexbuffers7Builder6EndMapEjE8TwoValueiN9__gnu_cxx5__ops15_Iter_comp_iterIZNS1_6EndMapEjEUlRKS2_S8_E_EEEvT_SB_T0_T1_+0x34>
100011ac:	2800      	cmp	r0, #0
100011ae:	dae1      	bge.n	10001174 <_ZSt16__introsort_loopIPZN11flexbuffers7Builder6EndMapEjE8TwoValueiN9__gnu_cxx5__ops15_Iter_comp_iterIZNS1_6EndMapEjEUlRKS2_S8_E_EEEvT_SB_T0_T1_+0xa4>
100011b0:	3420      	adds	r4, #32
100011b2:	e7d3      	b.n	1000115c <_ZSt16__introsort_loopIPZN11flexbuffers7Builder6EndMapEjE8TwoValueiN9__gnu_cxx5__ops15_Iter_comp_iterIZNS1_6EndMapEjEUlRKS2_S8_E_EEEvT_SB_T0_T1_+0x8c>
100011b4:	465c      	mov	r4, fp
100011b6:	464b      	mov	r3, r9
100011b8:	0022      	movs	r2, r4
100011ba:	0021      	movs	r1, r4
100011bc:	4640      	mov	r0, r8
100011be:	f7ff ff27 	bl	10001010 <_ZSt13__heap_selectIPZN11flexbuffers7Builder6EndMapEjE8TwoValueN9__gnu_cxx5__ops15_Iter_comp_iterIZNS1_6EndMapEjEUlRKS2_S8_E_EEEvT_SB_SB_T0_>
100011c2:	3c20      	subs	r4, #32
100011c4:	2220      	movs	r2, #32
100011c6:	0021      	movs	r1, r4
100011c8:	a80c      	add	r0, sp, #48	@ 0x30
100011ca:	f005 fded 	bl	10006da8 <__wrap___aeabi_memcpy>
100011ce:	2220      	movs	r2, #32
100011d0:	4641      	mov	r1, r8
100011d2:	0020      	movs	r0, r4
100011d4:	f005 fde8 	bl	10006da8 <__wrap___aeabi_memcpy>
100011d8:	4643      	mov	r3, r8
100011da:	1ae5      	subs	r5, r4, r3
100011dc:	464b      	mov	r3, r9
100011de:	2220      	movs	r2, #32
100011e0:	a90c      	add	r1, sp, #48	@ 0x30
100011e2:	4668      	mov	r0, sp
100011e4:	116e      	asrs	r6, r5, #5
100011e6:	9308      	str	r3, [sp, #32]
100011e8:	f005 fdde 	bl	10006da8 <__wrap___aeabi_memcpy>
100011ec:	0032      	movs	r2, r6
100011ee:	2100      	movs	r1, #0
100011f0:	4640      	mov	r0, r8
100011f2:	f7ff fe53 	bl	10000e9c <_ZSt13__adjust_heapIPZN11flexbuffers7Builder6EndMapEjE8TwoValueiS2_N9__gnu_cxx5__ops15_Iter_comp_iterIZNS1_6EndMapEjEUlRKS2_S8_E_EEEvT_T0_SC_T1_T2_>
100011f6:	2d20      	cmp	r5, #32
100011f8:	dce3      	bgt.n	100011c2 <_ZSt16__introsort_loopIPZN11flexbuffers7Builder6EndMapEjE8TwoValueiN9__gnu_cxx5__ops15_Iter_comp_iterIZNS1_6EndMapEjEUlRKS2_S8_E_EEEvT_SB_T0_T1_+0xf2>
100011fa:	b015      	add	sp, #84	@ 0x54
100011fc:	bcf0      	pop	{r4, r5, r6, r7}
100011fe:	46bb      	mov	fp, r7
10001200:	46b2      	mov	sl, r6
10001202:	46a9      	mov	r9, r5
10001204:	46a0      	mov	r8, r4
10001206:	bdf0      	pop	{r4, r5, r6, r7, pc}

10001208 <main>:
10001208:	b5f0      	push	{r4, r5, r6, r7, lr}
1000120a:	46de      	mov	lr, fp
1000120c:	4657      	mov	r7, sl
1000120e:	464e      	mov	r6, r9
10001210:	4645      	mov	r5, r8
10001212:	b5e0      	push	{r5, r6, r7, lr}
10001214:	4cfb      	ldr	r4, [pc, #1004]	@ (10001604 <main+0x3fc>)
10001216:	44a5      	add	sp, r4
10001218:	f008 f9b2 	bl	10009580 <_ZN6tflite16InitializeTargetEv>
1000121c:	4bfa      	ldr	r3, [pc, #1000]	@ (10001608 <main+0x400>)
1000121e:	931f      	str	r3, [sp, #124]	@ 0x7c
10001220:	4bfa      	ldr	r3, [pc, #1000]	@ (1000160c <main+0x404>)
10001222:	9322      	str	r3, [sp, #136]	@ 0x88
10001224:	4bfa      	ldr	r3, [pc, #1000]	@ (10001610 <main+0x408>)
10001226:	933a      	str	r3, [sp, #232]	@ 0xe8
10001228:	4bfa      	ldr	r3, [pc, #1000]	@ (10001614 <main+0x40c>)
1000122a:	9323      	str	r3, [sp, #140]	@ 0x8c
1000122c:	4bfa      	ldr	r3, [pc, #1000]	@ (10001618 <main+0x410>)
1000122e:	9318      	str	r3, [sp, #96]	@ 0x60
10001230:	ab70      	add	r3, sp, #448	@ 0x1c0
10001232:	469b      	mov	fp, r3
10001234:	4bf9      	ldr	r3, [pc, #996]	@ (1000161c <main+0x414>)
10001236:	933b      	str	r3, [sp, #236]	@ 0xec
10001238:	4bf9      	ldr	r3, [pc, #996]	@ (10001620 <main+0x418>)
1000123a:	933c      	str	r3, [sp, #240]	@ 0xf0
1000123c:	4bf9      	ldr	r3, [pc, #996]	@ (10001624 <main+0x41c>)
1000123e:	933d      	str	r3, [sp, #244]	@ 0xf4
10001240:	4bf9      	ldr	r3, [pc, #996]	@ (10001628 <main+0x420>)
10001242:	933e      	str	r3, [sp, #248]	@ 0xf8
10001244:	4bf9      	ldr	r3, [pc, #996]	@ (1000162c <main+0x424>)
10001246:	931e      	str	r3, [sp, #120]	@ 0x78
10001248:	4bf9      	ldr	r3, [pc, #996]	@ (10001630 <main+0x428>)
1000124a:	933f      	str	r3, [sp, #252]	@ 0xfc
1000124c:	4bf9      	ldr	r3, [pc, #996]	@ (10001634 <main+0x42c>)
1000124e:	9340      	str	r3, [sp, #256]	@ 0x100
10001250:	4bf9      	ldr	r3, [pc, #996]	@ (10001638 <main+0x430>)
10001252:	9341      	str	r3, [sp, #260]	@ 0x104
10001254:	4bf9      	ldr	r3, [pc, #996]	@ (1000163c <main+0x434>)
10001256:	9342      	str	r3, [sp, #264]	@ 0x108
10001258:	4bf9      	ldr	r3, [pc, #996]	@ (10001640 <main+0x438>)
1000125a:	9343      	str	r3, [sp, #268]	@ 0x10c
1000125c:	4bf9      	ldr	r3, [pc, #996]	@ (10001644 <main+0x43c>)
1000125e:	9320      	str	r3, [sp, #128]	@ 0x80
10001260:	4bf9      	ldr	r3, [pc, #996]	@ (10001648 <main+0x440>)
10001262:	9334      	str	r3, [sp, #208]	@ 0xd0
10001264:	4bf9      	ldr	r3, [pc, #996]	@ (1000164c <main+0x444>)
10001266:	9335      	str	r3, [sp, #212]	@ 0xd4
10001268:	4bf9      	ldr	r3, [pc, #996]	@ (10001650 <main+0x448>)
1000126a:	9336      	str	r3, [sp, #216]	@ 0xd8
1000126c:	4bf9      	ldr	r3, [pc, #996]	@ (10001654 <main+0x44c>)
1000126e:	9337      	str	r3, [sp, #220]	@ 0xdc
10001270:	4bf9      	ldr	r3, [pc, #996]	@ (10001658 <main+0x450>)
10001272:	9338      	str	r3, [sp, #224]	@ 0xe0
10001274:	4bf9      	ldr	r3, [pc, #996]	@ (1000165c <main+0x454>)
10001276:	9339      	str	r3, [sp, #228]	@ 0xe4
10001278:	4bf9      	ldr	r3, [pc, #996]	@ (10001660 <main+0x458>)
1000127a:	9324      	str	r3, [sp, #144]	@ 0x90
1000127c:	4bf9      	ldr	r3, [pc, #996]	@ (10001664 <main+0x45c>)
1000127e:	9325      	str	r3, [sp, #148]	@ 0x94
10001280:	2400      	movs	r4, #0
10001282:	9b1f      	ldr	r3, [sp, #124]	@ 0x7c
10001284:	983a      	ldr	r0, [sp, #232]	@ 0xe8
10001286:	601c      	str	r4, [r3, #0]
10001288:	9b22      	ldr	r3, [sp, #136]	@ 0x88
1000128a:	27d0      	movs	r7, #208	@ 0xd0
1000128c:	601c      	str	r4, [r3, #0]
1000128e:	f008 f965 	bl	1000955c <_Z11MicroPrintfPKcz>
10001292:	9b23      	ldr	r3, [sp, #140]	@ 0x8c
10001294:	aa72      	add	r2, sp, #456	@ 0x1c8
10001296:	701c      	strb	r4, [r3, #0]
10001298:	9b18      	ldr	r3, [sp, #96]	@ 0x60
1000129a:	0020      	movs	r0, r4
1000129c:	701c      	strb	r4, [r3, #0]
1000129e:	465b      	mov	r3, fp
100012a0:	601a      	str	r2, [r3, #0]
100012a2:	9a3b      	ldr	r2, [sp, #236]	@ 0xec
100012a4:	34a0      	adds	r4, #160	@ 0xa0
100012a6:	8813      	ldrh	r3, [r2, #0]
100012a8:	a94a      	add	r1, sp, #296	@ 0x128
100012aa:	1909      	adds	r1, r1, r4
100012ac:	800b      	strh	r3, [r1, #0]
100012ae:	21a2      	movs	r1, #162	@ 0xa2
100012b0:	7893      	ldrb	r3, [r2, #2]
100012b2:	aa4a      	add	r2, sp, #296	@ 0x128
100012b4:	1852      	adds	r2, r2, r1
100012b6:	7013      	strb	r3, [r2, #0]
100012b8:	2203      	movs	r2, #3
100012ba:	465b      	mov	r3, fp
100012bc:	a978      	add	r1, sp, #480	@ 0x1e0
100012be:	605a      	str	r2, [r3, #4]
100012c0:	72d8      	strb	r0, [r3, #11]
100012c2:	6199      	str	r1, [r3, #24]
100012c4:	9b3c      	ldr	r3, [sp, #240]	@ 0xf0
100012c6:	3418      	adds	r4, #24
100012c8:	881e      	ldrh	r6, [r3, #0]
100012ca:	a94a      	add	r1, sp, #296	@ 0x128
100012cc:	1909      	adds	r1, r1, r4
100012ce:	800e      	strh	r6, [r1, #0]
100012d0:	7899      	ldrb	r1, [r3, #2]
100012d2:	3402      	adds	r4, #2
100012d4:	ab4a      	add	r3, sp, #296	@ 0x128
100012d6:	191b      	adds	r3, r3, r4
100012d8:	7019      	strb	r1, [r3, #0]
100012da:	465b      	mov	r3, fp
100012dc:	465c      	mov	r4, fp
100012de:	61da      	str	r2, [r3, #28]
100012e0:	2323      	movs	r3, #35	@ 0x23
100012e2:	54e0      	strb	r0, [r4, r3]
100012e4:	465b      	mov	r3, fp
100012e6:	ac7e      	add	r4, sp, #504	@ 0x1f8
100012e8:	631c      	str	r4, [r3, #48]	@ 0x30
100012ea:	9c3d      	ldr	r4, [sp, #244]	@ 0xf4
100012ec:	ad4a      	add	r5, sp, #296	@ 0x128
100012ee:	8823      	ldrh	r3, [r4, #0]
100012f0:	19ed      	adds	r5, r5, r7
100012f2:	802b      	strh	r3, [r5, #0]
100012f4:	25d2      	movs	r5, #210	@ 0xd2
100012f6:	78a3      	ldrb	r3, [r4, #2]
100012f8:	ac4a      	add	r4, sp, #296	@ 0x128
100012fa:	1964      	adds	r4, r4, r5
100012fc:	7023      	strb	r3, [r4, #0]
100012fe:	465b      	mov	r3, fp
10001300:	465c      	mov	r4, fp
10001302:	635a      	str	r2, [r3, #52]	@ 0x34
10001304:	233b      	movs	r3, #59	@ 0x3b
10001306:	0007      	movs	r7, r0
10001308:	54e0      	strb	r0, [r4, r3]
1000130a:	a884      	add	r0, sp, #528	@ 0x210
1000130c:	64a0      	str	r0, [r4, #72]	@ 0x48
1000130e:	24ec      	movs	r4, #236	@ 0xec
10001310:	983e      	ldr	r0, [sp, #248]	@ 0xf8
10001312:	6803      	ldr	r3, [r0, #0]
10001314:	9384      	str	r3, [sp, #528]	@ 0x210
10001316:	8883      	ldrh	r3, [r0, #4]
10001318:	a84a      	add	r0, sp, #296	@ 0x128
1000131a:	1900      	adds	r0, r0, r4
1000131c:	8003      	strh	r3, [r0, #0]
1000131e:	2306      	movs	r3, #6
10001320:	4698      	mov	r8, r3
10001322:	465b      	mov	r3, fp
10001324:	4640      	mov	r0, r8
10001326:	465c      	mov	r4, fp
10001328:	64d8      	str	r0, [r3, #76]	@ 0x4c
1000132a:	2356      	movs	r3, #86	@ 0x56
1000132c:	54e7      	strb	r7, [r4, r3]
1000132e:	465b      	mov	r3, fp
10001330:	ac8a      	add	r4, sp, #552	@ 0x228
10001332:	661c      	str	r4, [r3, #96]	@ 0x60
10001334:	9b1e      	ldr	r3, [sp, #120]	@ 0x78
10001336:	003c      	movs	r4, r7
10001338:	681d      	ldr	r5, [r3, #0]
1000133a:	958a      	str	r5, [sp, #552]	@ 0x228
1000133c:	889b      	ldrh	r3, [r3, #4]
1000133e:	4699      	mov	r9, r3
10001340:	4648      	mov	r0, r9
10001342:	ab8b      	add	r3, sp, #556	@ 0x22c
10001344:	8018      	strh	r0, [r3, #0]
10001346:	465b      	mov	r3, fp
10001348:	4640      	mov	r0, r8
1000134a:	6658      	str	r0, [r3, #100]	@ 0x64
1000134c:	4658      	mov	r0, fp
1000134e:	236e      	movs	r3, #110	@ 0x6e
10001350:	54c7      	strb	r7, [r0, r3]
10001352:	9f3f      	ldr	r7, [sp, #252]	@ 0xfc
10001354:	ab90      	add	r3, sp, #576	@ 0x240
10001356:	6783      	str	r3, [r0, #120]	@ 0x78
10001358:	683b      	ldr	r3, [r7, #0]
1000135a:	a84a      	add	r0, sp, #296	@ 0x128
1000135c:	9390      	str	r3, [sp, #576]	@ 0x240
1000135e:	793b      	ldrb	r3, [r7, #4]
10001360:	278e      	movs	r7, #142	@ 0x8e
10001362:	007f      	lsls	r7, r7, #1
10001364:	19c0      	adds	r0, r0, r7
10001366:	7003      	strb	r3, [r0, #0]
10001368:	4658      	mov	r0, fp
1000136a:	2305      	movs	r3, #5
1000136c:	3f97      	subs	r7, #151	@ 0x97
1000136e:	55c4      	strb	r4, [r0, r7]
10001370:	469c      	mov	ip, r3
10001372:	67c3      	str	r3, [r0, #124]	@ 0x7c
10001374:	370b      	adds	r7, #11
10001376:	ab96      	add	r3, sp, #600	@ 0x258
10001378:	51c3      	str	r3, [r0, r7]
1000137a:	9b40      	ldr	r3, [sp, #256]	@ 0x100
1000137c:	a84a      	add	r0, sp, #296	@ 0x128
1000137e:	681f      	ldr	r7, [r3, #0]
10001380:	9796      	str	r7, [sp, #600]	@ 0x258
10001382:	791f      	ldrb	r7, [r3, #4]
10001384:	239a      	movs	r3, #154	@ 0x9a
10001386:	005b      	lsls	r3, r3, #1
10001388:	18c0      	adds	r0, r0, r3
1000138a:	7007      	strb	r7, [r0, #0]
1000138c:	4663      	mov	r3, ip
1000138e:	4658      	mov	r0, fp
10001390:	2794      	movs	r7, #148	@ 0x94
10001392:	51c3      	str	r3, [r0, r7]
10001394:	3709      	adds	r7, #9
10001396:	55c4      	strb	r4, [r0, r7]
10001398:	ab9c      	add	r3, sp, #624	@ 0x270
1000139a:	370b      	adds	r7, #11
1000139c:	51c3      	str	r3, [r0, r7]
1000139e:	37a0      	adds	r7, #160	@ 0xa0
100013a0:	a84a      	add	r0, sp, #296	@ 0x128
100013a2:	19c0      	adds	r0, r0, r7
100013a4:	8006      	strh	r6, [r0, #0]
100013a6:	3702      	adds	r7, #2
100013a8:	a84a      	add	r0, sp, #296	@ 0x128
100013aa:	19c0      	adds	r0, r0, r7
100013ac:	7001      	strb	r1, [r0, #0]
100013ae:	4658      	mov	r0, fp
100013b0:	21ac      	movs	r1, #172	@ 0xac
100013b2:	465b      	mov	r3, fp
100013b4:	5042      	str	r2, [r0, r1]
100013b6:	3107      	adds	r1, #7
100013b8:	5444      	strb	r4, [r0, r1]
100013ba:	310d      	adds	r1, #13
100013bc:	a8a2      	add	r0, sp, #648	@ 0x288
100013be:	5058      	str	r0, [r3, r1]
100013c0:	9b41      	ldr	r3, [sp, #260]	@ 0x104
100013c2:	3716      	adds	r7, #22
100013c4:	8819      	ldrh	r1, [r3, #0]
100013c6:	a84a      	add	r0, sp, #296	@ 0x128
100013c8:	19c0      	adds	r0, r0, r7
100013ca:	8001      	strh	r1, [r0, #0]
100013cc:	20b1      	movs	r0, #177	@ 0xb1
100013ce:	7899      	ldrb	r1, [r3, #2]
100013d0:	0040      	lsls	r0, r0, #1
100013d2:	ab4a      	add	r3, sp, #296	@ 0x128
100013d4:	181b      	adds	r3, r3, r0
100013d6:	7019      	strb	r1, [r3, #0]
100013d8:	465b      	mov	r3, fp
100013da:	21c4      	movs	r1, #196	@ 0xc4
100013dc:	505a      	str	r2, [r3, r1]
100013de:	32c8      	adds	r2, #200	@ 0xc8
100013e0:	549c      	strb	r4, [r3, r2]
100013e2:	a9a8      	add	r1, sp, #672	@ 0x2a0
100013e4:	320d      	adds	r2, #13
100013e6:	5099      	str	r1, [r3, r2]
100013e8:	21be      	movs	r1, #190	@ 0xbe
100013ea:	9b42      	ldr	r3, [sp, #264]	@ 0x108
100013ec:	0049      	lsls	r1, r1, #1
100013ee:	681a      	ldr	r2, [r3, #0]
100013f0:	0026      	movs	r6, r4
100013f2:	92a8      	str	r2, [sp, #672]	@ 0x2a0
100013f4:	791a      	ldrb	r2, [r3, #4]
100013f6:	ab4a      	add	r3, sp, #296	@ 0x128
100013f8:	185b      	adds	r3, r3, r1
100013fa:	701a      	strb	r2, [r3, #0]
100013fc:	4661      	mov	r1, ip
100013fe:	465b      	mov	r3, fp
10001400:	22dc      	movs	r2, #220	@ 0xdc
10001402:	5099      	str	r1, [r3, r2]
10001404:	3209      	adds	r2, #9
10001406:	549c      	strb	r4, [r3, r2]
10001408:	a9ae      	add	r1, sp, #696	@ 0x2b8
1000140a:	320b      	adds	r2, #11
1000140c:	5099      	str	r1, [r3, r2]
1000140e:	36f4      	adds	r6, #244	@ 0xf4
10001410:	3aec      	subs	r2, #236	@ 0xec
10001412:	519a      	str	r2, [r3, r6]
10001414:	3608      	adds	r6, #8
10001416:	559c      	strb	r4, [r3, r6]
10001418:	a8b4      	add	r0, sp, #720	@ 0x2d0
1000141a:	360c      	adds	r6, #12
1000141c:	5198      	str	r0, [r3, r6]
1000141e:	20d6      	movs	r0, #214	@ 0xd6
10001420:	4991      	ldr	r1, [pc, #580]	@ (10001668 <main+0x460>)
10001422:	9b43      	ldr	r3, [sp, #268]	@ 0x10c
10001424:	91ae      	str	r1, [sp, #696]	@ 0x2b8
10001426:	681e      	ldr	r6, [r3, #0]
10001428:	0040      	lsls	r0, r0, #1
1000142a:	96b4      	str	r6, [sp, #720]	@ 0x2d0
1000142c:	791e      	ldrb	r6, [r3, #4]
1000142e:	ab4a      	add	r3, sp, #296	@ 0x128
10001430:	181b      	adds	r3, r3, r0
10001432:	701e      	strb	r6, [r3, #0]
10001434:	2686      	movs	r6, #134	@ 0x86
10001436:	465b      	mov	r3, fp
10001438:	4660      	mov	r0, ip
1000143a:	0076      	lsls	r6, r6, #1
1000143c:	5198      	str	r0, [r3, r6]
1000143e:	2616      	movs	r6, #22
10001440:	36ff      	adds	r6, #255	@ 0xff
10001442:	559c      	strb	r4, [r3, r6]
10001444:	a8ba      	add	r0, sp, #744	@ 0x2e8
10001446:	360b      	adds	r6, #11
10001448:	5198      	str	r0, [r3, r6]
1000144a:	4e88      	ldr	r6, [pc, #544]	@ (1000166c <main+0x464>)
1000144c:	a8c0      	add	r0, sp, #768	@ 0x300
1000144e:	96ba      	str	r6, [sp, #744]	@ 0x2e8
10001450:	2692      	movs	r6, #146	@ 0x92
10001452:	0076      	lsls	r6, r6, #1
10001454:	519a      	str	r2, [r3, r6]
10001456:	3608      	adds	r6, #8
10001458:	559c      	strb	r4, [r3, r6]
1000145a:	360c      	adds	r6, #12
1000145c:	5198      	str	r0, [r3, r6]
1000145e:	20ee      	movs	r0, #238	@ 0xee
10001460:	9b20      	ldr	r3, [sp, #128]	@ 0x80
10001462:	0040      	lsls	r0, r0, #1
10001464:	681e      	ldr	r6, [r3, #0]
10001466:	0027      	movs	r7, r4
10001468:	96c0      	str	r6, [sp, #768]	@ 0x300
1000146a:	791e      	ldrb	r6, [r3, #4]
1000146c:	ab4a      	add	r3, sp, #296	@ 0x128
1000146e:	181b      	adds	r3, r3, r0
10001470:	701e      	strb	r6, [r3, #0]
10001472:	269e      	movs	r6, #158	@ 0x9e
10001474:	465b      	mov	r3, fp
10001476:	4660      	mov	r0, ip
10001478:	0076      	lsls	r6, r6, #1
1000147a:	5198      	str	r0, [r3, r6]
1000147c:	2646      	movs	r6, #70	@ 0x46
1000147e:	36ff      	adds	r6, #255	@ 0xff
10001480:	559c      	strb	r4, [r3, r6]
10001482:	a8c6      	add	r0, sp, #792	@ 0x318
10001484:	360b      	adds	r6, #11
10001486:	5198      	str	r0, [r3, r6]
10001488:	20fa      	movs	r0, #250	@ 0xfa
1000148a:	9b34      	ldr	r3, [sp, #208]	@ 0xd0
1000148c:	0040      	lsls	r0, r0, #1
1000148e:	681e      	ldr	r6, [r3, #0]
10001490:	3708      	adds	r7, #8
10001492:	96c6      	str	r6, [sp, #792]	@ 0x318
10001494:	791e      	ldrb	r6, [r3, #4]
10001496:	ab4a      	add	r3, sp, #296	@ 0x128
10001498:	181b      	adds	r3, r3, r0
1000149a:	701e      	strb	r6, [r3, #0]
1000149c:	26aa      	movs	r6, #170	@ 0xaa
1000149e:	465b      	mov	r3, fp
100014a0:	4660      	mov	r0, ip
100014a2:	0076      	lsls	r6, r6, #1
100014a4:	5198      	str	r0, [r3, r6]
100014a6:	265e      	movs	r6, #94	@ 0x5e
100014a8:	36ff      	adds	r6, #255	@ 0xff
100014aa:	559c      	strb	r4, [r3, r6]
100014ac:	a8cc      	add	r0, sp, #816	@ 0x330
100014ae:	360b      	adds	r6, #11
100014b0:	5198      	str	r0, [r3, r6]
100014b2:	0003      	movs	r3, r0
100014b4:	9835      	ldr	r0, [sp, #212]	@ 0xd4
100014b6:	c850      	ldmia	r0!, {r4, r6}
100014b8:	c350      	stmia	r3!, {r4, r6}
100014ba:	26b6      	movs	r6, #182	@ 0xb6
100014bc:	465b      	mov	r3, fp
100014be:	0076      	lsls	r6, r6, #1
100014c0:	519f      	str	r7, [r3, r6]
100014c2:	2700      	movs	r7, #0
100014c4:	360c      	adds	r6, #12
100014c6:	559f      	strb	r7, [r3, r6]
100014c8:	a8d2      	add	r0, sp, #840	@ 0x348
100014ca:	3608      	adds	r6, #8
100014cc:	5198      	str	r0, [r3, r6]
100014ce:	4658      	mov	r0, fp
100014d0:	003c      	movs	r4, r7
100014d2:	3604      	adds	r6, #4
100014d4:	519a      	str	r2, [r3, r6]
100014d6:	3608      	adds	r6, #8
100014d8:	559f      	strb	r7, [r3, r6]
100014da:	379d      	adds	r7, #157	@ 0x9d
100014dc:	360c      	adds	r6, #12
100014de:	abd8      	add	r3, sp, #864	@ 0x360
100014e0:	37ff      	adds	r7, #255	@ 0xff
100014e2:	51c2      	str	r2, [r0, r7]
100014e4:	5183      	str	r3, [r0, r6]
100014e6:	3708      	adds	r7, #8
100014e8:	4e61      	ldr	r6, [pc, #388]	@ (10001670 <main+0x468>)
100014ea:	55c4      	strb	r4, [r0, r7]
100014ec:	abde      	add	r3, sp, #888	@ 0x378
100014ee:	370c      	adds	r7, #12
100014f0:	51c3      	str	r3, [r0, r7]
100014f2:	91d2      	str	r1, [sp, #840]	@ 0x348
100014f4:	96d8      	str	r6, [sp, #864]	@ 0x360
100014f6:	9b36      	ldr	r3, [sp, #216]	@ 0xd8
100014f8:	a84a      	add	r0, sp, #296	@ 0x128
100014fa:	681f      	ldr	r7, [r3, #0]
100014fc:	97de      	str	r7, [sp, #888]	@ 0x378
100014fe:	791f      	ldrb	r7, [r3, #4]
10001500:	2395      	movs	r3, #149	@ 0x95
10001502:	009b      	lsls	r3, r3, #2
10001504:	18c0      	adds	r0, r0, r3
10001506:	7007      	strb	r7, [r0, #0]
10001508:	27da      	movs	r7, #218	@ 0xda
1000150a:	4658      	mov	r0, fp
1000150c:	4663      	mov	r3, ip
1000150e:	007f      	lsls	r7, r7, #1
10001510:	51c3      	str	r3, [r0, r7]
10001512:	23be      	movs	r3, #190	@ 0xbe
10001514:	33ff      	adds	r3, #255	@ 0xff
10001516:	54c4      	strb	r4, [r0, r3]
10001518:	0027      	movs	r7, r4
1000151a:	330b      	adds	r3, #11
1000151c:	ace4      	add	r4, sp, #912	@ 0x390
1000151e:	50c4      	str	r4, [r0, r3]
10001520:	209b      	movs	r0, #155	@ 0x9b
10001522:	ab4a      	add	r3, sp, #296	@ 0x128
10001524:	0080      	lsls	r0, r0, #2
10001526:	181b      	adds	r3, r3, r0
10001528:	4648      	mov	r0, r9
1000152a:	95e4      	str	r5, [sp, #912]	@ 0x390
1000152c:	8018      	strh	r0, [r3, #0]
1000152e:	23e6      	movs	r3, #230	@ 0xe6
10001530:	4658      	mov	r0, fp
10001532:	4644      	mov	r4, r8
10001534:	005b      	lsls	r3, r3, #1
10001536:	50c4      	str	r4, [r0, r3]
10001538:	330a      	adds	r3, #10
1000153a:	54c7      	strb	r7, [r0, r3]
1000153c:	acea      	add	r4, sp, #936	@ 0x3a8
1000153e:	330a      	adds	r3, #10
10001540:	50c4      	str	r4, [r0, r3]
10001542:	0023      	movs	r3, r4
10001544:	9837      	ldr	r0, [sp, #220]	@ 0xdc
10001546:	c8b0      	ldmia	r0!, {r4, r5, r7}
10001548:	c3b0      	stmia	r3!, {r4, r5, r7}
1000154a:	23f2      	movs	r3, #242	@ 0xf2
1000154c:	465c      	mov	r4, fp
1000154e:	200c      	movs	r0, #12
10001550:	2700      	movs	r7, #0
10001552:	005b      	lsls	r3, r3, #1
10001554:	50e0      	str	r0, [r4, r3]
10001556:	4658      	mov	r0, fp
10001558:	3310      	adds	r3, #16
1000155a:	54e7      	strb	r7, [r4, r3]
1000155c:	acf0      	add	r4, sp, #960	@ 0x3c0
1000155e:	3304      	adds	r3, #4
10001560:	50c4      	str	r4, [r0, r3]
10001562:	0023      	movs	r3, r4
10001564:	9838      	ldr	r0, [sp, #224]	@ 0xe0
10001566:	c830      	ldmia	r0!, {r4, r5}
10001568:	c330      	stmia	r3!, {r4, r5}
1000156a:	7800      	ldrb	r0, [r0, #0]
1000156c:	465c      	mov	r4, fp
1000156e:	7018      	strb	r0, [r3, #0]
10001570:	23fe      	movs	r3, #254	@ 0xfe
10001572:	2009      	movs	r0, #9
10001574:	005b      	lsls	r3, r3, #1
10001576:	50e0      	str	r0, [r4, r3]
10001578:	4658      	mov	r0, fp
1000157a:	4b3e      	ldr	r3, [pc, #248]	@ (10001674 <main+0x46c>)
1000157c:	465d      	mov	r5, fp
1000157e:	54e7      	strb	r7, [r4, r3]
10001580:	acf6      	add	r4, sp, #984	@ 0x3d8
10001582:	3307      	adds	r3, #7
10001584:	50c4      	str	r4, [r0, r3]
10001586:	91f6      	str	r1, [sp, #984]	@ 0x3d8
10001588:	4659      	mov	r1, fp
1000158a:	3304      	adds	r3, #4
1000158c:	50c2      	str	r2, [r0, r3]
1000158e:	3308      	adds	r3, #8
10001590:	54c7      	strb	r7, [r0, r3]
10001592:	a8fc      	add	r0, sp, #1008	@ 0x3f0
10001594:	330c      	adds	r3, #12
10001596:	50c8      	str	r0, [r1, r3]
10001598:	3304      	adds	r3, #4
1000159a:	50ca      	str	r2, [r1, r3]
1000159c:	9a39      	ldr	r2, [sp, #228]	@ 0xe4
1000159e:	3308      	adds	r3, #8
100015a0:	54cf      	strb	r7, [r1, r3]
100015a2:	96fc      	str	r6, [sp, #1008]	@ 0x3f0
100015a4:	ab55      	add	r3, sp, #340	@ 0x154
100015a6:	ca13      	ldmia	r2!, {r0, r1, r4}
100015a8:	c313      	stmia	r3!, {r0, r1, r4}
100015aa:	ca13      	ldmia	r2!, {r0, r1, r4}
100015ac:	c313      	stmia	r3!, {r0, r1, r4}
100015ae:	ca03      	ldmia	r2!, {r0, r1}
100015b0:	c303      	stmia	r3!, {r0, r1}
100015b2:	2080      	movs	r0, #128	@ 0x80
100015b4:	0040      	lsls	r0, r0, #1
100015b6:	975d      	str	r7, [sp, #372]	@ 0x174
100015b8:	975e      	str	r7, [sp, #376]	@ 0x178
100015ba:	975f      	str	r7, [sp, #380]	@ 0x17c
100015bc:	f005 fbfa 	bl	10006db4 <_Znwj>
100015c0:	1c43      	adds	r3, r0, #1
100015c2:	33ff      	adds	r3, #255	@ 0xff
100015c4:	7007      	strb	r7, [r0, #0]
100015c6:	0004      	movs	r4, r0
100015c8:	2100      	movs	r1, #0
100015ca:	905d      	str	r0, [sp, #372]	@ 0x174
100015cc:	22ff      	movs	r2, #255	@ 0xff
100015ce:	3001      	adds	r0, #1
100015d0:	935f      	str	r3, [sp, #380]	@ 0x17c
100015d2:	f005 fbe3 	bl	10006d9c <__wrap_memset>
100015d6:	2380      	movs	r3, #128	@ 0x80
100015d8:	025b      	lsls	r3, r3, #9
100015da:	214c      	movs	r1, #76	@ 0x4c
100015dc:	9363      	str	r3, [sp, #396]	@ 0x18c
100015de:	ab5d      	add	r3, sp, #372	@ 0x174
100015e0:	9364      	str	r3, [sp, #400]	@ 0x190
100015e2:	2320      	movs	r3, #32
100015e4:	a84a      	add	r0, sp, #296	@ 0x128
100015e6:	1840      	adds	r0, r0, r1
100015e8:	54c7      	strb	r7, [r0, r3]
100015ea:	ab65      	add	r3, sp, #404	@ 0x194
100015ec:	9367      	str	r3, [sp, #412]	@ 0x19c
100015ee:	9368      	str	r3, [sp, #416]	@ 0x1a0
100015f0:	ab5d      	add	r3, sp, #372	@ 0x174
100015f2:	936a      	str	r3, [sp, #424]	@ 0x1a8
100015f4:	2338      	movs	r3, #56	@ 0x38
100015f6:	a84a      	add	r0, sp, #296	@ 0x128
100015f8:	1841      	adds	r1, r0, r1
100015fa:	54cf      	strb	r7, [r1, r3]
100015fc:	ab6b      	add	r3, sp, #428	@ 0x1ac
100015fe:	9760      	str	r7, [sp, #384]	@ 0x180
10001600:	e03a      	b.n	10001678 <main+0x470>
10001602:	46c0      	nop			@ (mov r8, r8)
10001604:	fffffbfc 	.word	0xfffffbfc
10001608:	200028ec 	.word	0x200028ec
1000160c:	200028e8 	.word	0x200028e8
10001610:	10019740 	.word	0x10019740
10001614:	200034ee 	.word	0x200034ee
10001618:	200034ed 	.word	0x200034ed
1000161c:	10019760 	.word	0x10019760
10001620:	10019764 	.word	0x10019764
10001624:	10019768 	.word	0x10019768
10001628:	1001976c 	.word	0x1001976c
1000162c:	10019774 	.word	0x10019774
10001630:	1001977c 	.word	0x1001977c
10001634:	10019784 	.word	0x10019784
10001638:	1001978c 	.word	0x1001978c
1000163c:	10019790 	.word	0x10019790
10001640:	10019798 	.word	0x10019798
10001644:	100197a0 	.word	0x100197a0
10001648:	100197a8 	.word	0x100197a8
1000164c:	100197b0 	.word	0x100197b0
10001650:	100197bc 	.word	0x100197bc
10001654:	100197c4 	.word	0x100197c4
10001658:	100197d4 	.word	0x100197d4
1000165c:	1001a794 	.word	0x1001a794
10001660:	10019808 	.word	0x10019808
10001664:	10019868 	.word	0x10019868
10001668:	6c6f6f42 	.word	0x6c6f6f42
1000166c:	6c727543 	.word	0x6c727543
10001670:	65757274 	.word	0x65757274
10001674:	00000209 	.word	0x00000209
10001678:	9761      	str	r7, [sp, #388]	@ 0x184
1000167a:	9762      	str	r7, [sp, #392]	@ 0x188
1000167c:	9766      	str	r7, [sp, #408]	@ 0x198
1000167e:	9769      	str	r7, [sp, #420]	@ 0x1a4
10001680:	976c      	str	r7, [sp, #432]	@ 0x1b0
10001682:	976f      	str	r7, [sp, #444]	@ 0x1bc
10001684:	936d      	str	r3, [sp, #436]	@ 0x1b4
10001686:	936e      	str	r3, [sp, #440]	@ 0x1b8
10001688:	945e      	str	r4, [sp, #376]	@ 0x178
1000168a:	af50      	add	r7, sp, #320	@ 0x140
1000168c:	e00e      	b.n	100016ac <main+0x4a4>
1000168e:	2b04      	cmp	r3, #4
10001690:	d000      	beq.n	10001694 <main+0x48c>
10001692:	e1c5      	b.n	10001a20 <main+0x818>
10001694:	69ab      	ldr	r3, [r5, #24]
10001696:	781a      	ldrb	r2, [r3, #0]
10001698:	2a42      	cmp	r2, #66	@ 0x42
1000169a:	d101      	bne.n	100016a0 <main+0x498>
1000169c:	f000 ff2b 	bl	100024f6 <main+0x12ee>
100016a0:	abff      	add	r3, sp, #1020	@ 0x3fc
100016a2:	3548      	adds	r5, #72	@ 0x48
100016a4:	3304      	adds	r3, #4
100016a6:	42ab      	cmp	r3, r5
100016a8:	d100      	bne.n	100016ac <main+0x4a4>
100016aa:	e0c1      	b.n	10001830 <main+0x628>
100016ac:	69eb      	ldr	r3, [r5, #28]
100016ae:	2b03      	cmp	r3, #3
100016b0:	d1ed      	bne.n	1000168e <main+0x486>
100016b2:	69ab      	ldr	r3, [r5, #24]
100016b4:	781a      	ldrb	r2, [r3, #0]
100016b6:	2a49      	cmp	r2, #73	@ 0x49
100016b8:	d1f2      	bne.n	100016a0 <main+0x498>
100016ba:	785a      	ldrb	r2, [r3, #1]
100016bc:	2a6e      	cmp	r2, #110	@ 0x6e
100016be:	d1ef      	bne.n	100016a0 <main+0x498>
100016c0:	789b      	ldrb	r3, [r3, #2]
100016c2:	2b74      	cmp	r3, #116	@ 0x74
100016c4:	d1ec      	bne.n	100016a0 <main+0x498>
100016c6:	6b2b      	ldr	r3, [r5, #48]	@ 0x30
100016c8:	682c      	ldr	r4, [r5, #0]
100016ca:	4698      	mov	r8, r3
100016cc:	f014 fdce 	bl	1001626c <__errno>
100016d0:	6806      	ldr	r6, [r0, #0]
100016d2:	f014 fdcb 	bl	1001626c <__errno>
100016d6:	2300      	movs	r3, #0
100016d8:	220a      	movs	r2, #10
100016da:	6003      	str	r3, [r0, #0]
100016dc:	a94a      	add	r1, sp, #296	@ 0x128
100016de:	4640      	mov	r0, r8
100016e0:	f014 f8ac 	bl	1001583c <strtol>
100016e4:	9b4a      	ldr	r3, [sp, #296]	@ 0x128
100016e6:	9007      	str	r0, [sp, #28]
100016e8:	4598      	cmp	r8, r3
100016ea:	d101      	bne.n	100016f0 <main+0x4e8>
100016ec:	f001 fa2a 	bl	10002b44 <main+0x193c>
100016f0:	f014 fdbc 	bl	1001626c <__errno>
100016f4:	6803      	ldr	r3, [r0, #0]
100016f6:	2b22      	cmp	r3, #34	@ 0x22
100016f8:	d101      	bne.n	100016fe <main+0x4f6>
100016fa:	f001 fa20 	bl	10002b3e <main+0x1936>
100016fe:	f014 fdb5 	bl	1001626c <__errno>
10001702:	6803      	ldr	r3, [r0, #0]
10001704:	2b00      	cmp	r3, #0
10001706:	d101      	bne.n	1000170c <main+0x504>
10001708:	f001 f8d0 	bl	100028ac <main+0x16a4>
1000170c:	9b07      	ldr	r3, [sp, #28]
1000170e:	0020      	movs	r0, r4
10001710:	17db      	asrs	r3, r3, #31
10001712:	4698      	mov	r8, r3
10001714:	f014 fe44 	bl	100163a0 <strlen>
10001718:	995e      	ldr	r1, [sp, #376]	@ 0x178
1000171a:	9b5d      	ldr	r3, [sp, #372]	@ 0x174
1000171c:	3001      	adds	r0, #1
1000171e:	1acb      	subs	r3, r1, r3
10001720:	0022      	movs	r2, r4
10001722:	9300      	str	r3, [sp, #0]
10001724:	1823      	adds	r3, r4, r0
10001726:	a85d      	add	r0, sp, #372	@ 0x174
10001728:	f7fe fe7a 	bl	10000420 <_ZNSt6vectorIhSaIhEE15_M_range_insertIPKhEEvN9__gnu_cxx17__normal_iteratorIPhS1_EET_S9_St20forward_iterator_tag.isra.0>
1000172c:	2166      	movs	r1, #102	@ 0x66
1000172e:	aa4a      	add	r2, sp, #296	@ 0x128
10001730:	1852      	adds	r2, r2, r1
10001732:	7813      	ldrb	r3, [r2, #0]
10001734:	2201      	movs	r2, #1
10001736:	421a      	tst	r2, r3
10001738:	d03e      	beq.n	100017b8 <main+0x5b0>
1000173a:	9c66      	ldr	r4, [sp, #408]	@ 0x198
1000173c:	2c00      	cmp	r4, #0
1000173e:	d101      	bne.n	10001744 <main+0x53c>
10001740:	f001 f8fc 	bl	1000293c <main+0x1734>
10001744:	9b64      	ldr	r3, [sp, #400]	@ 0x190
10001746:	681e      	ldr	r6, [r3, #0]
10001748:	9b00      	ldr	r3, [sp, #0]
1000174a:	4699      	mov	r9, r3
1000174c:	ab65      	add	r3, sp, #404	@ 0x194
1000174e:	469a      	mov	sl, r3
10001750:	002b      	movs	r3, r5
10001752:	44b1      	add	r9, r6
10001754:	464d      	mov	r5, r9
10001756:	4699      	mov	r9, r3
10001758:	e003      	b.n	10001762 <main+0x55a>
1000175a:	46a2      	mov	sl, r4
1000175c:	68a4      	ldr	r4, [r4, #8]
1000175e:	2c00      	cmp	r4, #0
10001760:	d009      	beq.n	10001776 <main+0x56e>
10001762:	6920      	ldr	r0, [r4, #16]
10001764:	0029      	movs	r1, r5
10001766:	1830      	adds	r0, r6, r0
10001768:	f014 fd94 	bl	10016294 <strcmp>
1000176c:	2800      	cmp	r0, #0
1000176e:	daf4      	bge.n	1000175a <main+0x552>
10001770:	68e4      	ldr	r4, [r4, #12]
10001772:	2c00      	cmp	r4, #0
10001774:	d1f5      	bne.n	10001762 <main+0x55a>
10001776:	464b      	mov	r3, r9
10001778:	46a9      	mov	r9, r5
1000177a:	001d      	movs	r5, r3
1000177c:	ab65      	add	r3, sp, #404	@ 0x194
1000177e:	459a      	cmp	sl, r3
10001780:	d101      	bne.n	10001786 <main+0x57e>
10001782:	f001 f8db 	bl	1000293c <main+0x1734>
10001786:	4653      	mov	r3, sl
10001788:	691c      	ldr	r4, [r3, #16]
1000178a:	4648      	mov	r0, r9
1000178c:	1931      	adds	r1, r6, r4
1000178e:	f014 fd81 	bl	10016294 <strcmp>
10001792:	2800      	cmp	r0, #0
10001794:	da01      	bge.n	1000179a <main+0x592>
10001796:	f001 f8d1 	bl	1000293c <main+0x1734>
1000179a:	9a5e      	ldr	r2, [sp, #376]	@ 0x178
1000179c:	9b5d      	ldr	r3, [sp, #372]	@ 0x174
1000179e:	9800      	ldr	r0, [sp, #0]
100017a0:	1ad1      	subs	r1, r2, r3
100017a2:	4288      	cmp	r0, r1
100017a4:	d901      	bls.n	100017aa <main+0x5a2>
100017a6:	f001 f8f0 	bl	1000298a <main+0x1782>
100017aa:	d204      	bcs.n	100017b6 <main+0x5ae>
100017ac:	4684      	mov	ip, r0
100017ae:	4463      	add	r3, ip
100017b0:	429a      	cmp	r2, r3
100017b2:	d000      	beq.n	100017b6 <main+0x5ae>
100017b4:	935e      	str	r3, [sp, #376]	@ 0x178
100017b6:	9400      	str	r4, [sp, #0]
100017b8:	9b00      	ldr	r3, [sp, #0]
100017ba:	9c61      	ldr	r4, [sp, #388]	@ 0x184
100017bc:	603b      	str	r3, [r7, #0]
100017be:	2300      	movs	r3, #0
100017c0:	9e62      	ldr	r6, [sp, #392]	@ 0x188
100017c2:	607b      	str	r3, [r7, #4]
100017c4:	3304      	adds	r3, #4
100017c6:	813b      	strh	r3, [r7, #8]
100017c8:	42b4      	cmp	r4, r6
100017ca:	d101      	bne.n	100017d0 <main+0x5c8>
100017cc:	f001 f8ad 	bl	1000292a <main+0x1722>
100017d0:	0020      	movs	r0, r4
100017d2:	2210      	movs	r2, #16
100017d4:	0039      	movs	r1, r7
100017d6:	3410      	adds	r4, #16
100017d8:	f005 fae6 	bl	10006da8 <__wrap___aeabi_memcpy>
100017dc:	9461      	str	r4, [sp, #388]	@ 0x184
100017de:	9b07      	ldr	r3, [sp, #28]
100017e0:	9308      	str	r3, [sp, #32]
100017e2:	4643      	mov	r3, r8
100017e4:	9309      	str	r3, [sp, #36]	@ 0x24
100017e6:	9808      	ldr	r0, [sp, #32]
100017e8:	9909      	ldr	r1, [sp, #36]	@ 0x24
100017ea:	000b      	movs	r3, r1
100017ec:	0002      	movs	r2, r0
100017ee:	1812      	adds	r2, r2, r0
100017f0:	414b      	adcs	r3, r1
100017f2:	4641      	mov	r1, r8
100017f4:	9200      	str	r2, [sp, #0]
100017f6:	9301      	str	r3, [sp, #4]
100017f8:	9b01      	ldr	r3, [sp, #4]
100017fa:	4051      	eors	r1, r2
100017fc:	2203      	movs	r2, #3
100017fe:	4598      	cmp	r8, r3
10001800:	d101      	bne.n	10001806 <main+0x5fe>
10001802:	f001 f870 	bl	100028e6 <main+0x16de>
10001806:	9b07      	ldr	r3, [sp, #28]
10001808:	727a      	strb	r2, [r7, #9]
1000180a:	603b      	str	r3, [r7, #0]
1000180c:	4643      	mov	r3, r8
1000180e:	607b      	str	r3, [r7, #4]
10001810:	2301      	movs	r3, #1
10001812:	723b      	strb	r3, [r7, #8]
10001814:	42b4      	cmp	r4, r6
10001816:	d000      	beq.n	1000181a <main+0x612>
10001818:	e1b1      	b.n	10001b7e <main+0x976>
1000181a:	003a      	movs	r2, r7
1000181c:	0021      	movs	r1, r4
1000181e:	a860      	add	r0, sp, #384	@ 0x180
10001820:	f7ff f9ba 	bl	10000b98 <_ZNSt6vectorIN11flexbuffers7Builder5ValueESaIS2_EE17_M_realloc_insertIJS2_EEEvN9__gnu_cxx17__normal_iteratorIPS2_S4_EEDpOT_>
10001824:	abff      	add	r3, sp, #1020	@ 0x3fc
10001826:	3548      	adds	r5, #72	@ 0x48
10001828:	3304      	adds	r3, #4
1000182a:	42ab      	cmp	r3, r5
1000182c:	d000      	beq.n	10001830 <main+0x628>
1000182e:	e73d      	b.n	100016ac <main+0x4a4>
10001830:	9e60      	ldr	r6, [sp, #384]	@ 0x180
10001832:	9a61      	ldr	r2, [sp, #388]	@ 0x184
10001834:	1b93      	subs	r3, r2, r6
10001836:	111b      	asrs	r3, r3, #4
10001838:	4698      	mov	r8, r3
1000183a:	085b      	lsrs	r3, r3, #1
1000183c:	015c      	lsls	r4, r3, #5
1000183e:	1935      	adds	r5, r6, r4
10001840:	469a      	mov	sl, r3
10001842:	42ae      	cmp	r6, r5
10001844:	d024      	beq.n	10001890 <main+0x688>
10001846:	1160      	asrs	r0, r4, #5
10001848:	f004 fa3c 	bl	10005cc4 <__wrap___clz>
1000184c:	221f      	movs	r2, #31
1000184e:	1a12      	subs	r2, r2, r0
10001850:	ab5d      	add	r3, sp, #372	@ 0x174
10001852:	0029      	movs	r1, r5
10001854:	0030      	movs	r0, r6
10001856:	0052      	lsls	r2, r2, #1
10001858:	f7ff fc3a 	bl	100010d0 <_ZSt16__introsort_loopIPZN11flexbuffers7Builder6EndMapEjE8TwoValueiN9__gnu_cxx5__ops15_Iter_comp_iterIZNS1_6EndMapEjEUlRKS2_S8_E_EEEvT_SB_T0_T1_>
1000185c:	2380      	movs	r3, #128	@ 0x80
1000185e:	009b      	lsls	r3, r3, #2
10001860:	429c      	cmp	r4, r3
10001862:	dc01      	bgt.n	10001868 <main+0x660>
10001864:	f000 ffc8 	bl	100027f8 <main+0x15f0>
10001868:	18f4      	adds	r4, r6, r3
1000186a:	0021      	movs	r1, r4
1000186c:	0030      	movs	r0, r6
1000186e:	aa5d      	add	r2, sp, #372	@ 0x174
10001870:	f7ff faca 	bl	10000e08 <_ZSt16__insertion_sortIPZN11flexbuffers7Builder6EndMapEjE8TwoValueN9__gnu_cxx5__ops15_Iter_comp_iterIZNS1_6EndMapEjEUlRKS2_S8_E_EEEvT_SB_T0_>
10001874:	42a5      	cmp	r5, r4
10001876:	d006      	beq.n	10001886 <main+0x67e>
10001878:	0020      	movs	r0, r4
1000187a:	a95d      	add	r1, sp, #372	@ 0x174
1000187c:	3420      	adds	r4, #32
1000187e:	f7ff fa99 	bl	10000db4 <_ZSt25__unguarded_linear_insertIPZN11flexbuffers7Builder6EndMapEjE8TwoValueN9__gnu_cxx5__ops14_Val_comp_iterIZNS1_6EndMapEjEUlRKS2_S8_E_EEEvT_T0_>
10001882:	42a5      	cmp	r5, r4
10001884:	d1f8      	bne.n	10001878 <main+0x670>
10001886:	9a61      	ldr	r2, [sp, #388]	@ 0x184
10001888:	9d60      	ldr	r5, [sp, #384]	@ 0x180
1000188a:	1b53      	subs	r3, r2, r5
1000188c:	111b      	asrs	r3, r3, #4
1000188e:	4698      	mov	r8, r3
10001890:	2167      	movs	r1, #103	@ 0x67
10001892:	ab4a      	add	r3, sp, #296	@ 0x128
10001894:	185b      	adds	r3, r3, r1
10001896:	781b      	ldrb	r3, [r3, #0]
10001898:	4699      	mov	r9, r3
1000189a:	4653      	mov	r3, sl
1000189c:	2bff      	cmp	r3, #255	@ 0xff
1000189e:	d90e      	bls.n	100018be <main+0x6b6>
100018a0:	2380      	movs	r3, #128	@ 0x80
100018a2:	2100      	movs	r1, #0
100018a4:	2000      	movs	r0, #0
100018a6:	4654      	mov	r4, sl
100018a8:	025b      	lsls	r3, r3, #9
100018aa:	429c      	cmp	r4, r3
100018ac:	4141      	adcs	r1, r0
100018ae:	000b      	movs	r3, r1
100018b0:	3301      	adds	r3, #1
100018b2:	1c19      	adds	r1, r3, #0
100018b4:	454b      	cmp	r3, r9
100018b6:	d200      	bcs.n	100018ba <main+0x6b2>
100018b8:	4649      	mov	r1, r9
100018ba:	b2cb      	uxtb	r3, r1
100018bc:	4699      	mov	r9, r3
100018be:	9c5d      	ldr	r4, [sp, #372]	@ 0x174
100018c0:	4295      	cmp	r5, r2
100018c2:	d101      	bne.n	100018c8 <main+0x6c0>
100018c4:	f001 f8aa 	bl	10002a1c <main+0x1814>
100018c8:	2003      	movs	r0, #3
100018ca:	9a5e      	ldr	r2, [sp, #376]	@ 0x178
100018cc:	2601      	movs	r6, #1
100018ce:	1b13      	subs	r3, r2, r4
100018d0:	1aa2      	subs	r2, r4, r2
100018d2:	4002      	ands	r2, r0
100018d4:	4694      	mov	ip, r2
100018d6:	401e      	ands	r6, r3
100018d8:	1c9a      	adds	r2, r3, #2
100018da:	1d18      	adds	r0, r3, #4
100018dc:	18b6      	adds	r6, r6, r2
100018de:	2204      	movs	r2, #4
100018e0:	4484      	add	ip, r0
100018e2:	0029      	movs	r1, r5
100018e4:	2000      	movs	r0, #0
100018e6:	464f      	mov	r7, r9
100018e8:	3301      	adds	r3, #1
100018ea:	9207      	str	r2, [sp, #28]
100018ec:	9319      	str	r3, [sp, #100]	@ 0x64
100018ee:	9421      	str	r4, [sp, #132]	@ 0x84
100018f0:	9600      	str	r6, [sp, #0]
100018f2:	7a0c      	ldrb	r4, [r1, #8]
100018f4:	2c03      	cmp	r4, #3
100018f6:	d800      	bhi.n	100018fa <main+0x6f2>
100018f8:	e1fa      	b.n	10001cf0 <main+0xae8>
100018fa:	2c1a      	cmp	r4, #26
100018fc:	d100      	bne.n	10001900 <main+0x6f8>
100018fe:	e1f7      	b.n	10001cf0 <main+0xae8>
10001900:	680a      	ldr	r2, [r1, #0]
10001902:	684b      	ldr	r3, [r1, #4]
10001904:	9d19      	ldr	r5, [sp, #100]	@ 0x64
10001906:	46a9      	mov	r9, r5
10001908:	4481      	add	r9, r0
1000190a:	464d      	mov	r5, r9
1000190c:	9502      	str	r5, [sp, #8]
1000190e:	2500      	movs	r5, #0
10001910:	9503      	str	r5, [sp, #12]
10001912:	9d02      	ldr	r5, [sp, #8]
10001914:	9e03      	ldr	r6, [sp, #12]
10001916:	1aad      	subs	r5, r5, r2
10001918:	419e      	sbcs	r6, r3
1000191a:	951a      	str	r5, [sp, #104]	@ 0x68
1000191c:	961b      	str	r6, [sp, #108]	@ 0x6c
1000191e:	2e00      	cmp	r6, #0
10001920:	d101      	bne.n	10001926 <main+0x71e>
10001922:	f000 fe72 	bl	1000260a <main+0x1402>
10001926:	9d00      	ldr	r5, [sp, #0]
10001928:	950a      	str	r5, [sp, #40]	@ 0x28
1000192a:	2500      	movs	r5, #0
1000192c:	950b      	str	r5, [sp, #44]	@ 0x2c
1000192e:	9d0a      	ldr	r5, [sp, #40]	@ 0x28
10001930:	9e0b      	ldr	r6, [sp, #44]	@ 0x2c
10001932:	1aad      	subs	r5, r5, r2
10001934:	419e      	sbcs	r6, r3
10001936:	951a      	str	r5, [sp, #104]	@ 0x68
10001938:	961b      	str	r6, [sp, #108]	@ 0x6c
1000193a:	2e00      	cmp	r6, #0
1000193c:	d101      	bne.n	10001942 <main+0x73a>
1000193e:	f000 fe6c 	bl	1000261a <main+0x1412>
10001942:	4665      	mov	r5, ip
10001944:	950e      	str	r5, [sp, #56]	@ 0x38
10001946:	2500      	movs	r5, #0
10001948:	950f      	str	r5, [sp, #60]	@ 0x3c
1000194a:	9d0e      	ldr	r5, [sp, #56]	@ 0x38
1000194c:	9e0f      	ldr	r6, [sp, #60]	@ 0x3c
1000194e:	1aad      	subs	r5, r5, r2
10001950:	419e      	sbcs	r6, r3
10001952:	002a      	movs	r2, r5
10001954:	2e00      	cmp	r6, #0
10001956:	d100      	bne.n	1000195a <main+0x752>
10001958:	e1c0      	b.n	10001cdc <main+0xad4>
1000195a:	2603      	movs	r6, #3
1000195c:	1c3a      	adds	r2, r7, #0
1000195e:	42b7      	cmp	r7, r6
10001960:	d200      	bcs.n	10001964 <main+0x75c>
10001962:	1c32      	adds	r2, r6, #0
10001964:	b2d7      	uxtb	r7, r2
10001966:	2800      	cmp	r0, #0
10001968:	d100      	bne.n	1000196c <main+0x764>
1000196a:	e1c3      	b.n	10001cf4 <main+0xaec>
1000196c:	2308      	movs	r3, #8
1000196e:	4699      	mov	r9, r3
10001970:	9b00      	ldr	r3, [sp, #0]
10001972:	3002      	adds	r0, #2
10001974:	3304      	adds	r3, #4
10001976:	3120      	adds	r1, #32
10001978:	44cc      	add	ip, r9
1000197a:	9300      	str	r3, [sp, #0]
1000197c:	4580      	cmp	r8, r0
1000197e:	d8b8      	bhi.n	100018f2 <main+0x6ea>
10001980:	46b9      	mov	r9, r7
10001982:	9c21      	ldr	r4, [sp, #132]	@ 0x84
10001984:	464b      	mov	r3, r9
10001986:	2501      	movs	r5, #1
10001988:	409d      	lsls	r5, r3
1000198a:	2600      	movs	r6, #0
1000198c:	995e      	ldr	r1, [sp, #376]	@ 0x178
1000198e:	9319      	str	r3, [sp, #100]	@ 0x64
10001990:	1a64      	subs	r4, r4, r1
10001992:	ab4a      	add	r3, sp, #296	@ 0x128
10001994:	1e6a      	subs	r2, r5, #1
10001996:	761e      	strb	r6, [r3, #24]
10001998:	4022      	ands	r2, r4
1000199a:	ab50      	add	r3, sp, #320	@ 0x140
1000199c:	a85d      	add	r0, sp, #372	@ 0x174
1000199e:	f7ff f827 	bl	100009f0 <_ZNSt6vectorIhSaIhEE14_M_fill_insertEN9__gnu_cxx17__normal_iteratorIPhS1_EEjRKh>
100019a2:	4652      	mov	r2, sl
100019a4:	23ff      	movs	r3, #255	@ 0xff
100019a6:	9250      	str	r2, [sp, #320]	@ 0x140
100019a8:	402b      	ands	r3, r5
100019aa:	aa50      	add	r2, sp, #320	@ 0x140
100019ac:	9651      	str	r6, [sp, #324]	@ 0x144
100019ae:	18d6      	adds	r6, r2, r3
100019b0:	0033      	movs	r3, r6
100019b2:	a85d      	add	r0, sp, #372	@ 0x174
100019b4:	995e      	ldr	r1, [sp, #376]	@ 0x178
100019b6:	f7fe fd33 	bl	10000420 <_ZNSt6vectorIhSaIhEE15_M_range_insertIPKhEEvN9__gnu_cxx17__normal_iteratorIPhS1_EET_S9_St20forward_iterator_tag.isra.0>
100019ba:	9a5e      	ldr	r2, [sp, #376]	@ 0x178
100019bc:	9b5d      	ldr	r3, [sp, #372]	@ 0x174
100019be:	b2ef      	uxtb	r7, r5
100019c0:	9861      	ldr	r0, [sp, #388]	@ 0x184
100019c2:	9d60      	ldr	r5, [sp, #384]	@ 0x180
100019c4:	1ad3      	subs	r3, r2, r3
100019c6:	4698      	mov	r8, r3
100019c8:	4285      	cmp	r5, r0
100019ca:	d101      	bne.n	100019d0 <main+0x7c8>
100019cc:	f001 f823 	bl	10002a16 <main+0x180e>
100019d0:	2400      	movs	r4, #0
100019d2:	2f04      	cmp	r7, #4
100019d4:	d116      	bne.n	10001a04 <main+0x7fc>
100019d6:	f000 fe75 	bl	100026c4 <main+0x14bc>
100019da:	2a03      	cmp	r2, #3
100019dc:	d900      	bls.n	100019e0 <main+0x7d8>
100019de:	e198      	b.n	10001d12 <main+0xb0a>
100019e0:	681a      	ldr	r2, [r3, #0]
100019e2:	685b      	ldr	r3, [r3, #4]
100019e4:	9250      	str	r2, [sp, #320]	@ 0x140
100019e6:	9351      	str	r3, [sp, #324]	@ 0x144
100019e8:	0033      	movs	r3, r6
100019ea:	995e      	ldr	r1, [sp, #376]	@ 0x178
100019ec:	a85d      	add	r0, sp, #372	@ 0x174
100019ee:	aa50      	add	r2, sp, #320	@ 0x140
100019f0:	f7fe fd16 	bl	10000420 <_ZNSt6vectorIhSaIhEE15_M_range_insertIPKhEEvN9__gnu_cxx17__normal_iteratorIPhS1_EET_S9_St20forward_iterator_tag.isra.0>
100019f4:	9d60      	ldr	r5, [sp, #384]	@ 0x180
100019f6:	9861      	ldr	r0, [sp, #388]	@ 0x184
100019f8:	1b41      	subs	r1, r0, r5
100019fa:	3402      	adds	r4, #2
100019fc:	1109      	asrs	r1, r1, #4
100019fe:	42a1      	cmp	r1, r4
10001a00:	d800      	bhi.n	10001a04 <main+0x7fc>
10001a02:	e1a7      	b.n	10001d54 <main+0xb4c>
10001a04:	0123      	lsls	r3, r4, #4
10001a06:	18eb      	adds	r3, r5, r3
10001a08:	7a1a      	ldrb	r2, [r3, #8]
10001a0a:	2a03      	cmp	r2, #3
10001a0c:	d1e5      	bne.n	100019da <main+0x7d2>
10001a0e:	2f08      	cmp	r7, #8
10001a10:	d1f2      	bne.n	100019f8 <main+0x7f0>
10001a12:	681a      	ldr	r2, [r3, #0]
10001a14:	685b      	ldr	r3, [r3, #4]
10001a16:	995e      	ldr	r1, [sp, #376]	@ 0x178
10001a18:	9250      	str	r2, [sp, #320]	@ 0x140
10001a1a:	9351      	str	r3, [sp, #324]	@ 0x144
10001a1c:	ab52      	add	r3, sp, #328	@ 0x148
10001a1e:	e7e5      	b.n	100019ec <main+0x7e4>
10001a20:	2b06      	cmp	r3, #6
10001a22:	d000      	beq.n	10001a26 <main+0x81e>
10001a24:	e0b3      	b.n	10001b8e <main+0x986>
10001a26:	2206      	movs	r2, #6
10001a28:	69a8      	ldr	r0, [r5, #24]
10001a2a:	991e      	ldr	r1, [sp, #120]	@ 0x78
10001a2c:	f014 fa72 	bl	10015f14 <memcmp>
10001a30:	4681      	mov	r9, r0
10001a32:	2800      	cmp	r0, #0
10001a34:	d000      	beq.n	10001a38 <main+0x830>
10001a36:	e633      	b.n	100016a0 <main+0x498>
10001a38:	6b2e      	ldr	r6, [r5, #48]	@ 0x30
10001a3a:	682c      	ldr	r4, [r5, #0]
10001a3c:	f014 fc16 	bl	1001626c <__errno>
10001a40:	6803      	ldr	r3, [r0, #0]
10001a42:	4698      	mov	r8, r3
10001a44:	f014 fc12 	bl	1001626c <__errno>
10001a48:	464b      	mov	r3, r9
10001a4a:	a94a      	add	r1, sp, #296	@ 0x128
10001a4c:	6003      	str	r3, [r0, #0]
10001a4e:	0030      	movs	r0, r6
10001a50:	f013 fdd0 	bl	100155f4 <strtod>
10001a54:	9b4a      	ldr	r3, [sp, #296]	@ 0x128
10001a56:	9000      	str	r0, [sp, #0]
10001a58:	9101      	str	r1, [sp, #4]
10001a5a:	429e      	cmp	r6, r3
10001a5c:	d101      	bne.n	10001a62 <main+0x85a>
10001a5e:	f001 f877 	bl	10002b50 <main+0x1948>
10001a62:	f014 fc03 	bl	1001626c <__errno>
10001a66:	6803      	ldr	r3, [r0, #0]
10001a68:	2b22      	cmp	r3, #34	@ 0x22
10001a6a:	d101      	bne.n	10001a70 <main+0x868>
10001a6c:	f001 f86d 	bl	10002b4a <main+0x1942>
10001a70:	f014 fbfc 	bl	1001626c <__errno>
10001a74:	6803      	ldr	r3, [r0, #0]
10001a76:	2b00      	cmp	r3, #0
10001a78:	d101      	bne.n	10001a7e <main+0x876>
10001a7a:	f000 fe11 	bl	100026a0 <main+0x1498>
10001a7e:	0020      	movs	r0, r4
10001a80:	f014 fc8e 	bl	100163a0 <strlen>
10001a84:	995e      	ldr	r1, [sp, #376]	@ 0x178
10001a86:	9e5d      	ldr	r6, [sp, #372]	@ 0x174
10001a88:	3001      	adds	r0, #1
10001a8a:	1823      	adds	r3, r4, r0
10001a8c:	0022      	movs	r2, r4
10001a8e:	1b8e      	subs	r6, r1, r6
10001a90:	a85d      	add	r0, sp, #372	@ 0x174
10001a92:	964b      	str	r6, [sp, #300]	@ 0x12c
10001a94:	f7fe fcc4 	bl	10000420 <_ZNSt6vectorIhSaIhEE15_M_range_insertIPKhEEvN9__gnu_cxx17__normal_iteratorIPhS1_EET_S9_St20forward_iterator_tag.isra.0>
10001a98:	2266      	movs	r2, #102	@ 0x66
10001a9a:	ab4a      	add	r3, sp, #296	@ 0x128
10001a9c:	189b      	adds	r3, r3, r2
10001a9e:	781b      	ldrb	r3, [r3, #0]
10001aa0:	3a65      	subs	r2, #101	@ 0x65
10001aa2:	421a      	tst	r2, r3
10001aa4:	d042      	beq.n	10001b2c <main+0x924>
10001aa6:	9c66      	ldr	r4, [sp, #408]	@ 0x198
10001aa8:	2c00      	cmp	r4, #0
10001aaa:	d101      	bne.n	10001ab0 <main+0x8a8>
10001aac:	f000 fee6 	bl	1000287c <main+0x1674>
10001ab0:	9b64      	ldr	r3, [sp, #400]	@ 0x190
10001ab2:	46b1      	mov	r9, r6
10001ab4:	681b      	ldr	r3, [r3, #0]
10001ab6:	4698      	mov	r8, r3
10001ab8:	ab65      	add	r3, sp, #404	@ 0x194
10001aba:	469a      	mov	sl, r3
10001abc:	002b      	movs	r3, r5
10001abe:	44c1      	add	r9, r8
10001ac0:	4645      	mov	r5, r8
10001ac2:	46b0      	mov	r8, r6
10001ac4:	464e      	mov	r6, r9
10001ac6:	4699      	mov	r9, r3
10001ac8:	e003      	b.n	10001ad2 <main+0x8ca>
10001aca:	46a2      	mov	sl, r4
10001acc:	68a4      	ldr	r4, [r4, #8]
10001ace:	2c00      	cmp	r4, #0
10001ad0:	d009      	beq.n	10001ae6 <main+0x8de>
10001ad2:	6920      	ldr	r0, [r4, #16]
10001ad4:	0031      	movs	r1, r6
10001ad6:	1828      	adds	r0, r5, r0
10001ad8:	f014 fbdc 	bl	10016294 <strcmp>
10001adc:	2800      	cmp	r0, #0
10001ade:	daf4      	bge.n	10001aca <main+0x8c2>
10001ae0:	68e4      	ldr	r4, [r4, #12]
10001ae2:	2c00      	cmp	r4, #0
10001ae4:	d1f5      	bne.n	10001ad2 <main+0x8ca>
10001ae6:	464b      	mov	r3, r9
10001ae8:	46b1      	mov	r9, r6
10001aea:	4646      	mov	r6, r8
10001aec:	46a8      	mov	r8, r5
10001aee:	001d      	movs	r5, r3
10001af0:	ab65      	add	r3, sp, #404	@ 0x194
10001af2:	459a      	cmp	sl, r3
10001af4:	d101      	bne.n	10001afa <main+0x8f2>
10001af6:	f000 fec1 	bl	1000287c <main+0x1674>
10001afa:	4653      	mov	r3, sl
10001afc:	691c      	ldr	r4, [r3, #16]
10001afe:	4643      	mov	r3, r8
10001b00:	4648      	mov	r0, r9
10001b02:	1919      	adds	r1, r3, r4
10001b04:	f014 fbc6 	bl	10016294 <strcmp>
10001b08:	2800      	cmp	r0, #0
10001b0a:	da01      	bge.n	10001b10 <main+0x908>
10001b0c:	f000 feb6 	bl	1000287c <main+0x1674>
10001b10:	9a5e      	ldr	r2, [sp, #376]	@ 0x178
10001b12:	9b5d      	ldr	r3, [sp, #372]	@ 0x174
10001b14:	1ad1      	subs	r1, r2, r3
10001b16:	428e      	cmp	r6, r1
10001b18:	d901      	bls.n	10001b1e <main+0x916>
10001b1a:	f000 ff6e 	bl	100029fa <main+0x17f2>
10001b1e:	d203      	bcs.n	10001b28 <main+0x920>
10001b20:	199b      	adds	r3, r3, r6
10001b22:	429a      	cmp	r2, r3
10001b24:	d000      	beq.n	10001b28 <main+0x920>
10001b26:	935e      	str	r3, [sp, #376]	@ 0x178
10001b28:	0026      	movs	r6, r4
10001b2a:	944b      	str	r4, [sp, #300]	@ 0x12c
10001b2c:	2300      	movs	r3, #0
10001b2e:	603e      	str	r6, [r7, #0]
10001b30:	9c61      	ldr	r4, [sp, #388]	@ 0x184
10001b32:	9e62      	ldr	r6, [sp, #392]	@ 0x188
10001b34:	607b      	str	r3, [r7, #4]
10001b36:	3304      	adds	r3, #4
10001b38:	813b      	strh	r3, [r7, #8]
10001b3a:	42b4      	cmp	r4, r6
10001b3c:	d101      	bne.n	10001b42 <main+0x93a>
10001b3e:	f000 fe81 	bl	10002844 <main+0x163c>
10001b42:	0020      	movs	r0, r4
10001b44:	2210      	movs	r2, #16
10001b46:	0039      	movs	r1, r7
10001b48:	3410      	adds	r4, #16
10001b4a:	f005 f92d 	bl	10006da8 <__wrap___aeabi_memcpy>
10001b4e:	9461      	str	r4, [sp, #388]	@ 0x184
10001b50:	2303      	movs	r3, #3
10001b52:	9900      	ldr	r1, [sp, #0]
10001b54:	9a01      	ldr	r2, [sp, #4]
10001b56:	723b      	strb	r3, [r7, #8]
10001b58:	6039      	str	r1, [r7, #0]
10001b5a:	607a      	str	r2, [r7, #4]
10001b5c:	0008      	movs	r0, r1
10001b5e:	0011      	movs	r1, r2
10001b60:	f004 fc74 	bl	1000644c <__wrap___aeabi_d2f>
10001b64:	f005 f85a 	bl	10006c1c <__wrap___aeabi_f2d>
10001b68:	9a00      	ldr	r2, [sp, #0]
10001b6a:	9b01      	ldr	r3, [sp, #4]
10001b6c:	f004 fbb8 	bl	100062e0 <__wrap___aeabi_dcmpeq>
10001b70:	4243      	negs	r3, r0
10001b72:	4158      	adcs	r0, r3
10001b74:	3002      	adds	r0, #2
10001b76:	7278      	strb	r0, [r7, #9]
10001b78:	42a6      	cmp	r6, r4
10001b7a:	d100      	bne.n	10001b7e <main+0x976>
10001b7c:	e0a8      	b.n	10001cd0 <main+0xac8>
10001b7e:	0020      	movs	r0, r4
10001b80:	2210      	movs	r2, #16
10001b82:	0039      	movs	r1, r7
10001b84:	3410      	adds	r4, #16
10001b86:	f005 f90f 	bl	10006da8 <__wrap___aeabi_memcpy>
10001b8a:	9461      	str	r4, [sp, #388]	@ 0x184
10001b8c:	e588      	b.n	100016a0 <main+0x498>
10001b8e:	2b05      	cmp	r3, #5
10001b90:	d000      	beq.n	10001b94 <main+0x98c>
10001b92:	e585      	b.n	100016a0 <main+0x498>
10001b94:	2205      	movs	r2, #5
10001b96:	69a8      	ldr	r0, [r5, #24]
10001b98:	9920      	ldr	r1, [sp, #128]	@ 0x80
10001b9a:	f014 f9bb 	bl	10015f14 <memcmp>
10001b9e:	1e04      	subs	r4, r0, #0
10001ba0:	d000      	beq.n	10001ba4 <main+0x99c>
10001ba2:	e57d      	b.n	100016a0 <main+0x498>
10001ba4:	682b      	ldr	r3, [r5, #0]
10001ba6:	6b2e      	ldr	r6, [r5, #48]	@ 0x30
10001ba8:	4698      	mov	r8, r3
10001baa:	f014 fb5f 	bl	1001626c <__errno>
10001bae:	6803      	ldr	r3, [r0, #0]
10001bb0:	4699      	mov	r9, r3
10001bb2:	f014 fb5b 	bl	1001626c <__errno>
10001bb6:	a94a      	add	r1, sp, #296	@ 0x128
10001bb8:	6004      	str	r4, [r0, #0]
10001bba:	0030      	movs	r0, r6
10001bbc:	f013 fd28 	bl	10015610 <strtof>
10001bc0:	9b4a      	ldr	r3, [sp, #296]	@ 0x128
10001bc2:	9000      	str	r0, [sp, #0]
10001bc4:	429e      	cmp	r6, r3
10001bc6:	d101      	bne.n	10001bcc <main+0x9c4>
10001bc8:	f000 ffc8 	bl	10002b5c <main+0x1954>
10001bcc:	f014 fb4e 	bl	1001626c <__errno>
10001bd0:	6803      	ldr	r3, [r0, #0]
10001bd2:	2b22      	cmp	r3, #34	@ 0x22
10001bd4:	d101      	bne.n	10001bda <main+0x9d2>
10001bd6:	f000 ffbe 	bl	10002b56 <main+0x194e>
10001bda:	f014 fb47 	bl	1001626c <__errno>
10001bde:	6803      	ldr	r3, [r0, #0]
10001be0:	2b00      	cmp	r3, #0
10001be2:	d101      	bne.n	10001be8 <main+0x9e0>
10001be4:	f000 fe0f 	bl	10002806 <main+0x15fe>
10001be8:	4640      	mov	r0, r8
10001bea:	f014 fbd9 	bl	100163a0 <strlen>
10001bee:	3001      	adds	r0, #1
10001bf0:	0003      	movs	r3, r0
10001bf2:	995e      	ldr	r1, [sp, #376]	@ 0x178
10001bf4:	9e5d      	ldr	r6, [sp, #372]	@ 0x174
10001bf6:	4642      	mov	r2, r8
10001bf8:	1b8e      	subs	r6, r1, r6
10001bfa:	4443      	add	r3, r8
10001bfc:	a85d      	add	r0, sp, #372	@ 0x174
10001bfe:	964b      	str	r6, [sp, #300]	@ 0x12c
10001c00:	f7fe fc0e 	bl	10000420 <_ZNSt6vectorIhSaIhEE15_M_range_insertIPKhEEvN9__gnu_cxx17__normal_iteratorIPhS1_EET_S9_St20forward_iterator_tag.isra.0>
10001c04:	2266      	movs	r2, #102	@ 0x66
10001c06:	ab4a      	add	r3, sp, #296	@ 0x128
10001c08:	189b      	adds	r3, r3, r2
10001c0a:	781b      	ldrb	r3, [r3, #0]
10001c0c:	3a65      	subs	r2, #101	@ 0x65
10001c0e:	421a      	tst	r2, r3
10001c10:	d042      	beq.n	10001c98 <main+0xa90>
10001c12:	9c66      	ldr	r4, [sp, #408]	@ 0x198
10001c14:	2c00      	cmp	r4, #0
10001c16:	d101      	bne.n	10001c1c <main+0xa14>
10001c18:	f000 fef7 	bl	10002a0a <main+0x1802>
10001c1c:	9b64      	ldr	r3, [sp, #400]	@ 0x190
10001c1e:	46b1      	mov	r9, r6
10001c20:	681b      	ldr	r3, [r3, #0]
10001c22:	4698      	mov	r8, r3
10001c24:	ab65      	add	r3, sp, #404	@ 0x194
10001c26:	469a      	mov	sl, r3
10001c28:	002b      	movs	r3, r5
10001c2a:	44c1      	add	r9, r8
10001c2c:	4645      	mov	r5, r8
10001c2e:	46b0      	mov	r8, r6
10001c30:	464e      	mov	r6, r9
10001c32:	4699      	mov	r9, r3
10001c34:	e003      	b.n	10001c3e <main+0xa36>
10001c36:	46a2      	mov	sl, r4
10001c38:	68a4      	ldr	r4, [r4, #8]
10001c3a:	2c00      	cmp	r4, #0
10001c3c:	d009      	beq.n	10001c52 <main+0xa4a>
10001c3e:	6920      	ldr	r0, [r4, #16]
10001c40:	0031      	movs	r1, r6
10001c42:	1828      	adds	r0, r5, r0
10001c44:	f014 fb26 	bl	10016294 <strcmp>
10001c48:	2800      	cmp	r0, #0
10001c4a:	daf4      	bge.n	10001c36 <main+0xa2e>
10001c4c:	68e4      	ldr	r4, [r4, #12]
10001c4e:	2c00      	cmp	r4, #0
10001c50:	d1f5      	bne.n	10001c3e <main+0xa36>
10001c52:	464b      	mov	r3, r9
10001c54:	46b1      	mov	r9, r6
10001c56:	4646      	mov	r6, r8
10001c58:	46a8      	mov	r8, r5
10001c5a:	001d      	movs	r5, r3
10001c5c:	ab65      	add	r3, sp, #404	@ 0x194
10001c5e:	459a      	cmp	sl, r3
10001c60:	d101      	bne.n	10001c66 <main+0xa5e>
10001c62:	f000 fed2 	bl	10002a0a <main+0x1802>
10001c66:	4653      	mov	r3, sl
10001c68:	691c      	ldr	r4, [r3, #16]
10001c6a:	4643      	mov	r3, r8
10001c6c:	4648      	mov	r0, r9
10001c6e:	1919      	adds	r1, r3, r4
10001c70:	f014 fb10 	bl	10016294 <strcmp>
10001c74:	2800      	cmp	r0, #0
10001c76:	da01      	bge.n	10001c7c <main+0xa74>
10001c78:	f000 fec7 	bl	10002a0a <main+0x1802>
10001c7c:	9a5e      	ldr	r2, [sp, #376]	@ 0x178
10001c7e:	9b5d      	ldr	r3, [sp, #372]	@ 0x174
10001c80:	1ad1      	subs	r1, r2, r3
10001c82:	428e      	cmp	r6, r1
10001c84:	d901      	bls.n	10001c8a <main+0xa82>
10001c86:	f000 fecd 	bl	10002a24 <main+0x181c>
10001c8a:	d203      	bcs.n	10001c94 <main+0xa8c>
10001c8c:	199b      	adds	r3, r3, r6
10001c8e:	429a      	cmp	r2, r3
10001c90:	d000      	beq.n	10001c94 <main+0xa8c>
10001c92:	935e      	str	r3, [sp, #376]	@ 0x178
10001c94:	0026      	movs	r6, r4
10001c96:	944b      	str	r4, [sp, #300]	@ 0x12c
10001c98:	2300      	movs	r3, #0
10001c9a:	603e      	str	r6, [r7, #0]
10001c9c:	9c61      	ldr	r4, [sp, #388]	@ 0x184
10001c9e:	9e62      	ldr	r6, [sp, #392]	@ 0x188
10001ca0:	607b      	str	r3, [r7, #4]
10001ca2:	3304      	adds	r3, #4
10001ca4:	813b      	strh	r3, [r7, #8]
10001ca6:	42b4      	cmp	r4, r6
10001ca8:	d101      	bne.n	10001cae <main+0xaa6>
10001caa:	f000 fe9d 	bl	100029e8 <main+0x17e0>
10001cae:	0020      	movs	r0, r4
10001cb0:	2210      	movs	r2, #16
10001cb2:	0039      	movs	r1, r7
10001cb4:	3410      	adds	r4, #16
10001cb6:	f005 f877 	bl	10006da8 <__wrap___aeabi_memcpy>
10001cba:	9461      	str	r4, [sp, #388]	@ 0x184
10001cbc:	9800      	ldr	r0, [sp, #0]
10001cbe:	f004 ffad 	bl	10006c1c <__wrap___aeabi_f2d>
10001cc2:	4bbc      	ldr	r3, [pc, #752]	@ (10001fb4 <main+0xdac>)
10001cc4:	6038      	str	r0, [r7, #0]
10001cc6:	6079      	str	r1, [r7, #4]
10001cc8:	813b      	strh	r3, [r7, #8]
10001cca:	42a6      	cmp	r6, r4
10001ccc:	d000      	beq.n	10001cd0 <main+0xac8>
10001cce:	e756      	b.n	10001b7e <main+0x976>
10001cd0:	003a      	movs	r2, r7
10001cd2:	0031      	movs	r1, r6
10001cd4:	a860      	add	r0, sp, #384	@ 0x180
10001cd6:	f7fe ff5f 	bl	10000b98 <_ZNSt6vectorIN11flexbuffers7Builder5ValueESaIS2_EE17_M_realloc_insertIJS2_EEEvN9__gnu_cxx17__normal_iteratorIPS2_S4_EEDpOT_>
10001cda:	e4e1      	b.n	100016a0 <main+0x498>
10001cdc:	2dff      	cmp	r5, #255	@ 0xff
10001cde:	d800      	bhi.n	10001ce2 <main+0xada>
10001ce0:	e63b      	b.n	1000195a <main+0x752>
10001ce2:	2580      	movs	r5, #128	@ 0x80
10001ce4:	2602      	movs	r6, #2
10001ce6:	026d      	lsls	r5, r5, #9
10001ce8:	42aa      	cmp	r2, r5
10001cea:	d300      	bcc.n	10001cee <main+0xae6>
10001cec:	e636      	b.n	1000195c <main+0x754>
10001cee:	e634      	b.n	1000195a <main+0x752>
10001cf0:	7a4e      	ldrb	r6, [r1, #9]
10001cf2:	e633      	b.n	1000195c <main+0x754>
10001cf4:	2308      	movs	r3, #8
10001cf6:	4699      	mov	r9, r3
10001cf8:	9b00      	ldr	r3, [sp, #0]
10001cfa:	3120      	adds	r1, #32
10001cfc:	3304      	adds	r3, #4
10001cfe:	9300      	str	r3, [sp, #0]
10001d00:	4643      	mov	r3, r8
10001d02:	44cc      	add	ip, r9
10001d04:	2b02      	cmp	r3, #2
10001d06:	d801      	bhi.n	10001d0c <main+0xb04>
10001d08:	f000 fcd5 	bl	100026b6 <main+0x14ae>
10001d0c:	2002      	movs	r0, #2
10001d0e:	9407      	str	r4, [sp, #28]
10001d10:	e5ef      	b.n	100018f2 <main+0x6ea>
10001d12:	2a1a      	cmp	r2, #26
10001d14:	d100      	bne.n	10001d18 <main+0xb10>
10001d16:	e663      	b.n	100019e0 <main+0x7d8>
10001d18:	9d5e      	ldr	r5, [sp, #376]	@ 0x178
10001d1a:	9a5d      	ldr	r2, [sp, #372]	@ 0x174
10001d1c:	3402      	adds	r4, #2
10001d1e:	1aaa      	subs	r2, r5, r2
10001d20:	9212      	str	r2, [sp, #72]	@ 0x48
10001d22:	2200      	movs	r2, #0
10001d24:	9213      	str	r2, [sp, #76]	@ 0x4c
10001d26:	9812      	ldr	r0, [sp, #72]	@ 0x48
10001d28:	9913      	ldr	r1, [sp, #76]	@ 0x4c
10001d2a:	681a      	ldr	r2, [r3, #0]
10001d2c:	685b      	ldr	r3, [r3, #4]
10001d2e:	1a80      	subs	r0, r0, r2
10001d30:	4199      	sbcs	r1, r3
10001d32:	0002      	movs	r2, r0
10001d34:	000b      	movs	r3, r1
10001d36:	a85d      	add	r0, sp, #372	@ 0x174
10001d38:	0029      	movs	r1, r5
10001d3a:	9250      	str	r2, [sp, #320]	@ 0x140
10001d3c:	9351      	str	r3, [sp, #324]	@ 0x144
10001d3e:	0033      	movs	r3, r6
10001d40:	aa50      	add	r2, sp, #320	@ 0x140
10001d42:	f7fe fb6d 	bl	10000420 <_ZNSt6vectorIhSaIhEE15_M_range_insertIPKhEEvN9__gnu_cxx17__normal_iteratorIPhS1_EET_S9_St20forward_iterator_tag.isra.0>
10001d46:	9d60      	ldr	r5, [sp, #384]	@ 0x180
10001d48:	9861      	ldr	r0, [sp, #388]	@ 0x184
10001d4a:	1b41      	subs	r1, r0, r5
10001d4c:	1109      	asrs	r1, r1, #4
10001d4e:	42a1      	cmp	r1, r4
10001d50:	d900      	bls.n	10001d54 <main+0xb4c>
10001d52:	e657      	b.n	10001a04 <main+0x7fc>
10001d54:	2467      	movs	r4, #103	@ 0x67
10001d56:	aa4a      	add	r2, sp, #296	@ 0x128
10001d58:	4643      	mov	r3, r8
10001d5a:	1912      	adds	r2, r2, r4
10001d5c:	7812      	ldrb	r2, [r2, #0]
10001d5e:	2000      	movs	r0, #0
10001d60:	4694      	mov	ip, r2
10001d62:	4652      	mov	r2, sl
10001d64:	9316      	str	r3, [sp, #88]	@ 0x58
10001d66:	9b07      	ldr	r3, [sp, #28]
10001d68:	9017      	str	r0, [sp, #92]	@ 0x5c
10001d6a:	330a      	adds	r3, #10
10001d6c:	b2db      	uxtb	r3, r3
10001d6e:	2aff      	cmp	r2, #255	@ 0xff
10001d70:	d90d      	bls.n	10001d8e <main+0xb86>
10001d72:	2280      	movs	r2, #128	@ 0x80
10001d74:	2400      	movs	r4, #0
10001d76:	4656      	mov	r6, sl
10001d78:	0252      	lsls	r2, r2, #9
10001d7a:	4296      	cmp	r6, r2
10001d7c:	4144      	adcs	r4, r0
10001d7e:	0022      	movs	r2, r4
10001d80:	3201      	adds	r2, #1
10001d82:	1c10      	adds	r0, r2, #0
10001d84:	4562      	cmp	r2, ip
10001d86:	d200      	bcs.n	10001d8a <main+0xb82>
10001d88:	4660      	mov	r0, ip
10001d8a:	b2c2      	uxtb	r2, r0
10001d8c:	4694      	mov	ip, r2
10001d8e:	9c5e      	ldr	r4, [sp, #376]	@ 0x178
10001d90:	9a5d      	ldr	r2, [sp, #372]	@ 0x174
10001d92:	1aa0      	subs	r0, r4, r2
10001d94:	1b12      	subs	r2, r2, r4
10001d96:	9207      	str	r2, [sp, #28]
10001d98:	2b03      	cmp	r3, #3
10001d9a:	d933      	bls.n	10001e04 <main+0xbfc>
10001d9c:	2b1a      	cmp	r3, #26
10001d9e:	d031      	beq.n	10001e04 <main+0xbfc>
10001da0:	9e16      	ldr	r6, [sp, #88]	@ 0x58
10001da2:	9f17      	ldr	r7, [sp, #92]	@ 0x5c
10001da4:	2300      	movs	r3, #0
10001da6:	9026      	str	r0, [sp, #152]	@ 0x98
10001da8:	9327      	str	r3, [sp, #156]	@ 0x9c
10001daa:	9a26      	ldr	r2, [sp, #152]	@ 0x98
10001dac:	9b27      	ldr	r3, [sp, #156]	@ 0x9c
10001dae:	1b92      	subs	r2, r2, r6
10001db0:	41bb      	sbcs	r3, r7
10001db2:	2b00      	cmp	r3, #0
10001db4:	d101      	bne.n	10001dba <main+0xbb2>
10001db6:	f000 fe3d 	bl	10002a34 <main+0x182c>
10001dba:	9e16      	ldr	r6, [sp, #88]	@ 0x58
10001dbc:	9f17      	ldr	r7, [sp, #92]	@ 0x5c
10001dbe:	2301      	movs	r3, #1
10001dc0:	4003      	ands	r3, r0
10001dc2:	181b      	adds	r3, r3, r0
10001dc4:	9328      	str	r3, [sp, #160]	@ 0xa0
10001dc6:	2300      	movs	r3, #0
10001dc8:	9329      	str	r3, [sp, #164]	@ 0xa4
10001dca:	9a28      	ldr	r2, [sp, #160]	@ 0xa0
10001dcc:	9b29      	ldr	r3, [sp, #164]	@ 0xa4
10001dce:	1b92      	subs	r2, r2, r6
10001dd0:	41bb      	sbcs	r3, r7
10001dd2:	0016      	movs	r6, r2
10001dd4:	2b00      	cmp	r3, #0
10001dd6:	d101      	bne.n	10001ddc <main+0xbd4>
10001dd8:	f000 fe34 	bl	10002a44 <main+0x183c>
10001ddc:	9e16      	ldr	r6, [sp, #88]	@ 0x58
10001dde:	9f17      	ldr	r7, [sp, #92]	@ 0x5c
10001de0:	2303      	movs	r3, #3
10001de2:	9a07      	ldr	r2, [sp, #28]
10001de4:	4013      	ands	r3, r2
10001de6:	181b      	adds	r3, r3, r0
10001de8:	932c      	str	r3, [sp, #176]	@ 0xb0
10001dea:	2300      	movs	r3, #0
10001dec:	932d      	str	r3, [sp, #180]	@ 0xb4
10001dee:	9a2c      	ldr	r2, [sp, #176]	@ 0xb0
10001df0:	9b2d      	ldr	r3, [sp, #180]	@ 0xb4
10001df2:	1b92      	subs	r2, r2, r6
10001df4:	41bb      	sbcs	r3, r7
10001df6:	0016      	movs	r6, r2
10001df8:	2b00      	cmp	r3, #0
10001dfa:	d101      	bne.n	10001e00 <main+0xbf8>
10001dfc:	f000 fe37 	bl	10002a6e <main+0x1866>
10001e00:	2303      	movs	r3, #3
10001e02:	4699      	mov	r9, r3
10001e04:	4663      	mov	r3, ip
10001e06:	45cc      	cmp	ip, r9
10001e08:	d200      	bcs.n	10001e0c <main+0xc04>
10001e0a:	464b      	mov	r3, r9
10001e0c:	b2db      	uxtb	r3, r3
10001e0e:	4698      	mov	r8, r3
10001e10:	2901      	cmp	r1, #1
10001e12:	d952      	bls.n	10001eba <main+0xcb2>
10001e14:	2603      	movs	r6, #3
10001e16:	002b      	movs	r3, r5
10001e18:	2501      	movs	r5, #1
10001e1a:	9a07      	ldr	r2, [sp, #28]
10001e1c:	002f      	movs	r7, r5
10001e1e:	4016      	ands	r6, r2
10001e20:	0002      	movs	r2, r0
10001e22:	3902      	subs	r1, #2
10001e24:	43a9      	bics	r1, r5
10001e26:	468c      	mov	ip, r1
10001e28:	320c      	adds	r2, #12
10001e2a:	18b6      	adds	r6, r6, r2
10001e2c:	4007      	ands	r7, r0
10001e2e:	1d82      	adds	r2, r0, #6
10001e30:	18bf      	adds	r7, r7, r2
10001e32:	1cc2      	adds	r2, r0, #3
10001e34:	3005      	adds	r0, #5
10001e36:	4484      	add	ip, r0
10001e38:	4661      	mov	r1, ip
10001e3a:	46b4      	mov	ip, r6
10001e3c:	4646      	mov	r6, r8
10001e3e:	4688      	mov	r8, r1
10001e40:	3310      	adds	r3, #16
10001e42:	941a      	str	r4, [sp, #104]	@ 0x68
10001e44:	7a19      	ldrb	r1, [r3, #8]
10001e46:	2903      	cmp	r1, #3
10001e48:	d800      	bhi.n	10001e4c <main+0xc44>
10001e4a:	e29b      	b.n	10002384 <main+0x117c>
10001e4c:	291a      	cmp	r1, #26
10001e4e:	d100      	bne.n	10001e52 <main+0xc4a>
10001e50:	e298      	b.n	10002384 <main+0x117c>
10001e52:	6818      	ldr	r0, [r3, #0]
10001e54:	6859      	ldr	r1, [r3, #4]
10001e56:	2400      	movs	r4, #0
10001e58:	9204      	str	r2, [sp, #16]
10001e5a:	9405      	str	r4, [sp, #20]
10001e5c:	9c04      	ldr	r4, [sp, #16]
10001e5e:	9d05      	ldr	r5, [sp, #20]
10001e60:	1a24      	subs	r4, r4, r0
10001e62:	418d      	sbcs	r5, r1
10001e64:	2d00      	cmp	r5, #0
10001e66:	d100      	bne.n	10001e6a <main+0xc62>
10001e68:	e3ca      	b.n	10002600 <main+0x13f8>
10001e6a:	2400      	movs	r4, #0
10001e6c:	970c      	str	r7, [sp, #48]	@ 0x30
10001e6e:	940d      	str	r4, [sp, #52]	@ 0x34
10001e70:	9c0c      	ldr	r4, [sp, #48]	@ 0x30
10001e72:	9d0d      	ldr	r5, [sp, #52]	@ 0x34
10001e74:	1a24      	subs	r4, r4, r0
10001e76:	418d      	sbcs	r5, r1
10001e78:	9400      	str	r4, [sp, #0]
10001e7a:	9501      	str	r5, [sp, #4]
10001e7c:	2d00      	cmp	r5, #0
10001e7e:	d100      	bne.n	10001e82 <main+0xc7a>
10001e80:	e3da      	b.n	10002638 <main+0x1430>
10001e82:	4664      	mov	r4, ip
10001e84:	9410      	str	r4, [sp, #64]	@ 0x40
10001e86:	2400      	movs	r4, #0
10001e88:	9411      	str	r4, [sp, #68]	@ 0x44
10001e8a:	9c10      	ldr	r4, [sp, #64]	@ 0x40
10001e8c:	9d11      	ldr	r5, [sp, #68]	@ 0x44
10001e8e:	1a24      	subs	r4, r4, r0
10001e90:	418d      	sbcs	r5, r1
10001e92:	0020      	movs	r0, r4
10001e94:	2d00      	cmp	r5, #0
10001e96:	d100      	bne.n	10001e9a <main+0xc92>
10001e98:	e263      	b.n	10002362 <main+0x115a>
10001e9a:	2503      	movs	r5, #3
10001e9c:	1c28      	adds	r0, r5, #0
10001e9e:	42b5      	cmp	r5, r6
10001ea0:	d200      	bcs.n	10001ea4 <main+0xc9c>
10001ea2:	1c30      	adds	r0, r6, #0
10001ea4:	2108      	movs	r1, #8
10001ea6:	4689      	mov	r9, r1
10001ea8:	3202      	adds	r2, #2
10001eaa:	b2c6      	uxtb	r6, r0
10001eac:	3320      	adds	r3, #32
10001eae:	44cc      	add	ip, r9
10001eb0:	3704      	adds	r7, #4
10001eb2:	4590      	cmp	r8, r2
10001eb4:	d1c6      	bne.n	10001e44 <main+0xc3c>
10001eb6:	46b0      	mov	r8, r6
10001eb8:	9c1a      	ldr	r4, [sp, #104]	@ 0x68
10001eba:	2501      	movs	r5, #1
10001ebc:	4643      	mov	r3, r8
10001ebe:	002e      	movs	r6, r5
10001ec0:	2700      	movs	r7, #0
10001ec2:	409e      	lsls	r6, r3
10001ec4:	0021      	movs	r1, r4
10001ec6:	24ff      	movs	r4, #255	@ 0xff
10001ec8:	ab4a      	add	r3, sp, #296	@ 0x128
10001eca:	761f      	strb	r7, [r3, #24]
10001ecc:	9b07      	ldr	r3, [sp, #28]
10001ece:	1e72      	subs	r2, r6, #1
10001ed0:	4013      	ands	r3, r2
10001ed2:	001a      	movs	r2, r3
10001ed4:	a85d      	add	r0, sp, #372	@ 0x174
10001ed6:	ab50      	add	r3, sp, #320	@ 0x140
10001ed8:	f7fe fd8a 	bl	100009f0 <_ZNSt6vectorIhSaIhEE14_M_fill_insertEN9__gnu_cxx17__normal_iteratorIPhS1_EEjRKh>
10001edc:	b2f3      	uxtb	r3, r6
10001ede:	995e      	ldr	r1, [sp, #376]	@ 0x178
10001ee0:	4699      	mov	r9, r3
10001ee2:	9b5d      	ldr	r3, [sp, #372]	@ 0x174
10001ee4:	971d      	str	r7, [sp, #116]	@ 0x74
10001ee6:	1acb      	subs	r3, r1, r3
10001ee8:	931c      	str	r3, [sp, #112]	@ 0x70
10001eea:	4034      	ands	r4, r6
10001eec:	9a1c      	ldr	r2, [sp, #112]	@ 0x70
10001eee:	9b1d      	ldr	r3, [sp, #116]	@ 0x74
10001ef0:	9e16      	ldr	r6, [sp, #88]	@ 0x58
10001ef2:	9f17      	ldr	r7, [sp, #92]	@ 0x5c
10001ef4:	1b92      	subs	r2, r2, r6
10001ef6:	41bb      	sbcs	r3, r7
10001ef8:	9250      	str	r2, [sp, #320]	@ 0x140
10001efa:	9351      	str	r3, [sp, #324]	@ 0x144
10001efc:	ab50      	add	r3, sp, #320	@ 0x140
10001efe:	191b      	adds	r3, r3, r4
10001f00:	aa50      	add	r2, sp, #320	@ 0x140
10001f02:	a85d      	add	r0, sp, #372	@ 0x174
10001f04:	f7fe fa8c 	bl	10000420 <_ZNSt6vectorIhSaIhEE15_M_range_insertIPKhEEvN9__gnu_cxx17__normal_iteratorIPhS1_EET_S9_St20forward_iterator_tag.isra.0>
10001f08:	9b19      	ldr	r3, [sp, #100]	@ 0x64
10001f0a:	3b20      	subs	r3, #32
10001f0c:	d500      	bpl.n	10001f10 <main+0xd08>
10001f0e:	e3c1      	b.n	10002694 <main+0x148c>
10001f10:	409d      	lsls	r5, r3
10001f12:	9551      	str	r5, [sp, #324]	@ 0x144
10001f14:	2301      	movs	r3, #1
10001f16:	9a19      	ldr	r2, [sp, #100]	@ 0x64
10001f18:	995e      	ldr	r1, [sp, #376]	@ 0x178
10001f1a:	4093      	lsls	r3, r2
10001f1c:	9350      	str	r3, [sp, #320]	@ 0x140
10001f1e:	ab50      	add	r3, sp, #320	@ 0x140
10001f20:	191d      	adds	r5, r3, r4
10001f22:	002b      	movs	r3, r5
10001f24:	aa50      	add	r2, sp, #320	@ 0x140
10001f26:	a85d      	add	r0, sp, #372	@ 0x174
10001f28:	f7fe fa7a 	bl	10000420 <_ZNSt6vectorIhSaIhEE15_M_range_insertIPKhEEvN9__gnu_cxx17__normal_iteratorIPhS1_EET_S9_St20forward_iterator_tag.isra.0>
10001f2c:	4653      	mov	r3, sl
10001f2e:	9350      	str	r3, [sp, #320]	@ 0x140
10001f30:	2300      	movs	r3, #0
10001f32:	995e      	ldr	r1, [sp, #376]	@ 0x178
10001f34:	9351      	str	r3, [sp, #324]	@ 0x144
10001f36:	aa50      	add	r2, sp, #320	@ 0x140
10001f38:	002b      	movs	r3, r5
10001f3a:	a85d      	add	r0, sp, #372	@ 0x174
10001f3c:	f7fe fa70 	bl	10000420 <_ZNSt6vectorIhSaIhEE15_M_range_insertIPKhEEvN9__gnu_cxx17__normal_iteratorIPhS1_EET_S9_St20forward_iterator_tag.isra.0>
10001f40:	9a5e      	ldr	r2, [sp, #376]	@ 0x178
10001f42:	9b5d      	ldr	r3, [sp, #372]	@ 0x174
10001f44:	9f61      	ldr	r7, [sp, #388]	@ 0x184
10001f46:	9c60      	ldr	r4, [sp, #384]	@ 0x180
10001f48:	1ad3      	subs	r3, r2, r3
10001f4a:	1b39      	subs	r1, r7, r4
10001f4c:	469a      	mov	sl, r3
10001f4e:	000b      	movs	r3, r1
10001f50:	2910      	cmp	r1, #16
10001f52:	d800      	bhi.n	10001f56 <main+0xd4e>
10001f54:	e08b      	b.n	1000206e <main+0xe66>
10001f56:	464b      	mov	r3, r9
10001f58:	2601      	movs	r6, #1
10001f5a:	2b04      	cmp	r3, #4
10001f5c:	d101      	bne.n	10001f62 <main+0xd5a>
10001f5e:	f000 fbfa 	bl	10002756 <main+0x154e>
10001f62:	0020      	movs	r0, r4
10001f64:	003c      	movs	r4, r7
10001f66:	002f      	movs	r7, r5
10001f68:	0133      	lsls	r3, r6, #4
10001f6a:	18c3      	adds	r3, r0, r3
10001f6c:	7a1a      	ldrb	r2, [r3, #8]
10001f6e:	2a03      	cmp	r2, #3
10001f70:	d100      	bne.n	10001f74 <main+0xd6c>
10001f72:	e21d      	b.n	100023b0 <main+0x11a8>
10001f74:	d900      	bls.n	10001f78 <main+0xd70>
10001f76:	e207      	b.n	10002388 <main+0x1180>
10001f78:	681a      	ldr	r2, [r3, #0]
10001f7a:	685b      	ldr	r3, [r3, #4]
10001f7c:	9250      	str	r2, [sp, #320]	@ 0x140
10001f7e:	9351      	str	r3, [sp, #324]	@ 0x144
10001f80:	995e      	ldr	r1, [sp, #376]	@ 0x178
10001f82:	003b      	movs	r3, r7
10001f84:	a85d      	add	r0, sp, #372	@ 0x174
10001f86:	aa50      	add	r2, sp, #320	@ 0x140
10001f88:	f7fe fa4a 	bl	10000420 <_ZNSt6vectorIhSaIhEE15_M_range_insertIPKhEEvN9__gnu_cxx17__normal_iteratorIPhS1_EET_S9_St20forward_iterator_tag.isra.0>
10001f8c:	9860      	ldr	r0, [sp, #384]	@ 0x180
10001f8e:	9c61      	ldr	r4, [sp, #388]	@ 0x184
10001f90:	1a21      	subs	r1, r4, r0
10001f92:	3602      	adds	r6, #2
10001f94:	000b      	movs	r3, r1
10001f96:	110a      	asrs	r2, r1, #4
10001f98:	42b2      	cmp	r2, r6
10001f9a:	d8e5      	bhi.n	10001f68 <main+0xd60>
10001f9c:	0027      	movs	r7, r4
10001f9e:	0004      	movs	r4, r0
10001fa0:	2b10      	cmp	r3, #16
10001fa2:	d964      	bls.n	1000206e <main+0xe66>
10001fa4:	4643      	mov	r3, r8
10001fa6:	466a      	mov	r2, sp
10001fa8:	2601      	movs	r6, #1
10001faa:	46d1      	mov	r9, sl
10001fac:	9d5e      	ldr	r5, [sp, #376]	@ 0x178
10001fae:	7713      	strb	r3, [r2, #28]
10001fb0:	e016      	b.n	10001fe0 <main+0xdd8>
10001fb2:	46c0      	nop			@ (mov r8, r8)
10001fb4:	00000203 	.word	0x00000203
10001fb8:	2a1a      	cmp	r2, #26
10001fba:	d016      	beq.n	10001fea <main+0xde2>
10001fbc:	7a5c      	ldrb	r4, [r3, #9]
10001fbe:	0092      	lsls	r2, r2, #2
10001fc0:	9b5f      	ldr	r3, [sp, #380]	@ 0x17c
10001fc2:	4314      	orrs	r4, r2
10001fc4:	b2e4      	uxtb	r4, r4
10001fc6:	42ab      	cmp	r3, r5
10001fc8:	d01c      	beq.n	10002004 <main+0xdfc>
10001fca:	702c      	strb	r4, [r5, #0]
10001fcc:	9d5e      	ldr	r5, [sp, #376]	@ 0x178
10001fce:	9f61      	ldr	r7, [sp, #388]	@ 0x184
10001fd0:	9c60      	ldr	r4, [sp, #384]	@ 0x180
10001fd2:	3501      	adds	r5, #1
10001fd4:	1b3b      	subs	r3, r7, r4
10001fd6:	3602      	adds	r6, #2
10001fd8:	955e      	str	r5, [sp, #376]	@ 0x178
10001fda:	111a      	asrs	r2, r3, #4
10001fdc:	4296      	cmp	r6, r2
10001fde:	d245      	bcs.n	1000206c <main+0xe64>
10001fe0:	0133      	lsls	r3, r6, #4
10001fe2:	18e3      	adds	r3, r4, r3
10001fe4:	7a1a      	ldrb	r2, [r3, #8]
10001fe6:	2a03      	cmp	r2, #3
10001fe8:	d8e6      	bhi.n	10001fb8 <main+0xdb0>
10001fea:	7a5b      	ldrb	r3, [r3, #9]
10001fec:	1c1c      	adds	r4, r3, #0
10001fee:	4543      	cmp	r3, r8
10001ff0:	d201      	bcs.n	10001ff6 <main+0xdee>
10001ff2:	466b      	mov	r3, sp
10001ff4:	7f1c      	ldrb	r4, [r3, #28]
10001ff6:	b2e4      	uxtb	r4, r4
10001ff8:	0092      	lsls	r2, r2, #2
10001ffa:	9b5f      	ldr	r3, [sp, #380]	@ 0x17c
10001ffc:	4314      	orrs	r4, r2
10001ffe:	b2e4      	uxtb	r4, r4
10002000:	42ab      	cmp	r3, r5
10002002:	d1e2      	bne.n	10001fca <main+0xdc2>
10002004:	9b5d      	ldr	r3, [sp, #372]	@ 0x174
10002006:	469a      	mov	sl, r3
10002008:	1aed      	subs	r5, r5, r3
1000200a:	4bdb      	ldr	r3, [pc, #876]	@ (10002378 <main+0x1170>)
1000200c:	429d      	cmp	r5, r3
1000200e:	d101      	bne.n	10002014 <main+0xe0c>
10002010:	f000 fda7 	bl	10002b62 <main+0x195a>
10002014:	2d00      	cmp	r5, #0
10002016:	d100      	bne.n	1000201a <main+0xe12>
10002018:	e257      	b.n	100024ca <main+0x12c2>
1000201a:	006b      	lsls	r3, r5, #1
1000201c:	42ab      	cmp	r3, r5
1000201e:	d305      	bcc.n	1000202c <main+0xe24>
10002020:	001a      	movs	r2, r3
10002022:	9300      	str	r3, [sp, #0]
10002024:	2380      	movs	r3, #128	@ 0x80
10002026:	061b      	lsls	r3, r3, #24
10002028:	429a      	cmp	r2, r3
1000202a:	d301      	bcc.n	10002030 <main+0xe28>
1000202c:	4bd2      	ldr	r3, [pc, #840]	@ (10002378 <main+0x1170>)
1000202e:	9300      	str	r3, [sp, #0]
10002030:	9800      	ldr	r0, [sp, #0]
10002032:	f004 febf 	bl	10006db4 <_Znwj>
10002036:	0007      	movs	r7, r0
10002038:	5544      	strb	r4, [r0, r5]
1000203a:	2d00      	cmp	r5, #0
1000203c:	dc00      	bgt.n	10002040 <main+0xe38>
1000203e:	e24b      	b.n	100024d8 <main+0x12d0>
10002040:	002a      	movs	r2, r5
10002042:	4651      	mov	r1, sl
10002044:	f013 ff8a 	bl	10015f5c <memmove>
10002048:	3501      	adds	r5, #1
1000204a:	197d      	adds	r5, r7, r5
1000204c:	4650      	mov	r0, sl
1000204e:	f004 feb5 	bl	10006dbc <_ZdlPv>
10002052:	9b00      	ldr	r3, [sp, #0]
10002054:	975d      	str	r7, [sp, #372]	@ 0x174
10002056:	469c      	mov	ip, r3
10002058:	4467      	add	r7, ip
1000205a:	9c60      	ldr	r4, [sp, #384]	@ 0x180
1000205c:	975f      	str	r7, [sp, #380]	@ 0x17c
1000205e:	9f61      	ldr	r7, [sp, #388]	@ 0x184
10002060:	3602      	adds	r6, #2
10002062:	1b3b      	subs	r3, r7, r4
10002064:	955e      	str	r5, [sp, #376]	@ 0x178
10002066:	111a      	asrs	r2, r3, #4
10002068:	4296      	cmp	r6, r2
1000206a:	d3b9      	bcc.n	10001fe0 <main+0xdd8>
1000206c:	46ca      	mov	sl, r9
1000206e:	4652      	mov	r2, sl
10002070:	2020      	movs	r0, #32
10002072:	9250      	str	r2, [sp, #320]	@ 0x140
10002074:	2200      	movs	r2, #0
10002076:	a94a      	add	r1, sp, #296	@ 0x128
10002078:	9251      	str	r2, [sp, #324]	@ 0x144
1000207a:	1809      	adds	r1, r1, r0
1000207c:	3209      	adds	r2, #9
1000207e:	700a      	strb	r2, [r1, #0]
10002080:	2121      	movs	r1, #33	@ 0x21
10002082:	aa4a      	add	r2, sp, #296	@ 0x128
10002084:	1852      	adds	r2, r2, r1
10002086:	4641      	mov	r1, r8
10002088:	7011      	strb	r1, [r2, #0]
1000208a:	2b00      	cmp	r3, #0
1000208c:	d003      	beq.n	10002096 <main+0xe8e>
1000208e:	42a7      	cmp	r7, r4
10002090:	d000      	beq.n	10002094 <main+0xe8c>
10002092:	9461      	str	r4, [sp, #388]	@ 0x184
10002094:	0027      	movs	r7, r4
10002096:	9b62      	ldr	r3, [sp, #392]	@ 0x188
10002098:	42bb      	cmp	r3, r7
1000209a:	d101      	bne.n	100020a0 <main+0xe98>
1000209c:	f000 fbf4 	bl	10002888 <main+0x1680>
100020a0:	0038      	movs	r0, r7
100020a2:	2210      	movs	r2, #16
100020a4:	a950      	add	r1, sp, #320	@ 0x140
100020a6:	3710      	adds	r7, #16
100020a8:	f004 fe7e 	bl	10006da8 <__wrap___aeabi_memcpy>
100020ac:	9761      	str	r7, [sp, #388]	@ 0x184
100020ae:	995e      	ldr	r1, [sp, #376]	@ 0x178
100020b0:	9b5d      	ldr	r3, [sp, #372]	@ 0x174
100020b2:	7a22      	ldrb	r2, [r4, #8]
100020b4:	1ac8      	subs	r0, r1, r3
100020b6:	1a5b      	subs	r3, r3, r1
100020b8:	2a03      	cmp	r2, #3
100020ba:	d800      	bhi.n	100020be <main+0xeb6>
100020bc:	e213      	b.n	100024e6 <main+0x12de>
100020be:	2a1a      	cmp	r2, #26
100020c0:	d100      	bne.n	100020c4 <main+0xebc>
100020c2:	e210      	b.n	100024e6 <main+0x12de>
100020c4:	6865      	ldr	r5, [r4, #4]
100020c6:	6824      	ldr	r4, [r4, #0]
100020c8:	2200      	movs	r2, #0
100020ca:	902a      	str	r0, [sp, #168]	@ 0xa8
100020cc:	922b      	str	r2, [sp, #172]	@ 0xac
100020ce:	9e2a      	ldr	r6, [sp, #168]	@ 0xa8
100020d0:	9f2b      	ldr	r7, [sp, #172]	@ 0xac
100020d2:	1b36      	subs	r6, r6, r4
100020d4:	41af      	sbcs	r7, r5
100020d6:	2201      	movs	r2, #1
100020d8:	2f00      	cmp	r7, #0
100020da:	d101      	bne.n	100020e0 <main+0xed8>
100020dc:	f000 fcc0 	bl	10002a60 <main+0x1858>
100020e0:	4002      	ands	r2, r0
100020e2:	1812      	adds	r2, r2, r0
100020e4:	922e      	str	r2, [sp, #184]	@ 0xb8
100020e6:	2200      	movs	r2, #0
100020e8:	922f      	str	r2, [sp, #188]	@ 0xbc
100020ea:	9e2e      	ldr	r6, [sp, #184]	@ 0xb8
100020ec:	9f2f      	ldr	r7, [sp, #188]	@ 0xbc
100020ee:	1b36      	subs	r6, r6, r4
100020f0:	41af      	sbcs	r7, r5
100020f2:	2f00      	cmp	r7, #0
100020f4:	d101      	bne.n	100020fa <main+0xef2>
100020f6:	f000 fcc8 	bl	10002a8a <main+0x1882>
100020fa:	2203      	movs	r2, #3
100020fc:	401a      	ands	r2, r3
100020fe:	1812      	adds	r2, r2, r0
10002100:	9230      	str	r2, [sp, #192]	@ 0xc0
10002102:	2200      	movs	r2, #0
10002104:	9231      	str	r2, [sp, #196]	@ 0xc4
10002106:	9e30      	ldr	r6, [sp, #192]	@ 0xc0
10002108:	9f31      	ldr	r7, [sp, #196]	@ 0xc4
1000210a:	1b36      	subs	r6, r6, r4
1000210c:	41af      	sbcs	r7, r5
1000210e:	2f00      	cmp	r7, #0
10002110:	d101      	bne.n	10002116 <main+0xf0e>
10002112:	f000 fcd7 	bl	10002ac4 <main+0x18bc>
10002116:	2207      	movs	r2, #7
10002118:	401a      	ands	r2, r3
1000211a:	1810      	adds	r0, r2, r0
1000211c:	9032      	str	r0, [sp, #200]	@ 0xc8
1000211e:	2000      	movs	r0, #0
10002120:	9033      	str	r0, [sp, #204]	@ 0xcc
10002122:	9e32      	ldr	r6, [sp, #200]	@ 0xc8
10002124:	9f33      	ldr	r7, [sp, #204]	@ 0xcc
10002126:	1b36      	subs	r6, r6, r4
10002128:	41af      	sbcs	r7, r5
1000212a:	3008      	adds	r0, #8
1000212c:	4680      	mov	r8, r0
1000212e:	2f00      	cmp	r7, #0
10002130:	d101      	bne.n	10002136 <main+0xf2e>
10002132:	f000 fcd6 	bl	10002ae2 <main+0x18da>
10002136:	4642      	mov	r2, r8
10002138:	4640      	mov	r0, r8
1000213a:	3a01      	subs	r2, #1
1000213c:	b2c4      	uxtb	r4, r0
1000213e:	2500      	movs	r5, #0
10002140:	a84a      	add	r0, sp, #296	@ 0x128
10002142:	401a      	ands	r2, r3
10002144:	7605      	strb	r5, [r0, #24]
10002146:	ab50      	add	r3, sp, #320	@ 0x140
10002148:	a85d      	add	r0, sp, #372	@ 0x174
1000214a:	f7fe fc51 	bl	100009f0 <_ZNSt6vectorIhSaIhEE14_M_fill_insertEN9__gnu_cxx17__normal_iteratorIPhS1_EEjRKh>
1000214e:	9a60      	ldr	r2, [sp, #384]	@ 0x180
10002150:	7a13      	ldrb	r3, [r2, #8]
10002152:	2b03      	cmp	r3, #3
10002154:	d100      	bne.n	10002158 <main+0xf50>
10002156:	e37e      	b.n	10002856 <main+0x164e>
10002158:	2b03      	cmp	r3, #3
1000215a:	d900      	bls.n	1000215e <main+0xf56>
1000215c:	e359      	b.n	10002812 <main+0x160a>
1000215e:	6853      	ldr	r3, [r2, #4]
10002160:	6812      	ldr	r2, [r2, #0]
10002162:	9250      	str	r2, [sp, #320]	@ 0x140
10002164:	9351      	str	r3, [sp, #324]	@ 0x144
10002166:	995e      	ldr	r1, [sp, #376]	@ 0x178
10002168:	4642      	mov	r2, r8
1000216a:	23ff      	movs	r3, #255	@ 0xff
1000216c:	4013      	ands	r3, r2
1000216e:	aa50      	add	r2, sp, #320	@ 0x140
10002170:	4694      	mov	ip, r2
10002172:	a85d      	add	r0, sp, #372	@ 0x174
10002174:	4463      	add	r3, ip
10002176:	f7fe f953 	bl	10000420 <_ZNSt6vectorIhSaIhEE15_M_range_insertIPKhEEvN9__gnu_cxx17__normal_iteratorIPhS1_EET_S9_St20forward_iterator_tag.isra.0>
1000217a:	9a60      	ldr	r2, [sp, #384]	@ 0x180
1000217c:	7a13      	ldrb	r3, [r2, #8]
1000217e:	7a52      	ldrb	r2, [r2, #9]
10002180:	009b      	lsls	r3, r3, #2
10002182:	4313      	orrs	r3, r2
10002184:	aa4a      	add	r2, sp, #296	@ 0x128
10002186:	4694      	mov	ip, r2
10002188:	7613      	strb	r3, [r2, #24]
1000218a:	2319      	movs	r3, #25
1000218c:	995e      	ldr	r1, [sp, #376]	@ 0x178
1000218e:	4463      	add	r3, ip
10002190:	aa50      	add	r2, sp, #320	@ 0x140
10002192:	a85d      	add	r0, sp, #372	@ 0x174
10002194:	f7fe f944 	bl	10000420 <_ZNSt6vectorIhSaIhEE15_M_range_insertIPKhEEvN9__gnu_cxx17__normal_iteratorIPhS1_EET_S9_St20forward_iterator_tag.isra.0>
10002198:	ab4a      	add	r3, sp, #296	@ 0x128
1000219a:	aa4a      	add	r2, sp, #296	@ 0x128
1000219c:	4694      	mov	ip, r2
1000219e:	761c      	strb	r4, [r3, #24]
100021a0:	2319      	movs	r3, #25
100021a2:	995e      	ldr	r1, [sp, #376]	@ 0x178
100021a4:	4463      	add	r3, ip
100021a6:	aa50      	add	r2, sp, #320	@ 0x140
100021a8:	a85d      	add	r0, sp, #372	@ 0x174
100021aa:	f7fe f939 	bl	10000420 <_ZNSt6vectorIhSaIhEE15_M_range_insertIPKhEEvN9__gnu_cxx17__normal_iteratorIPhS1_EET_S9_St20forward_iterator_tag.isra.0>
100021ae:	2164      	movs	r1, #100	@ 0x64
100021b0:	2301      	movs	r3, #1
100021b2:	aa4a      	add	r2, sp, #296	@ 0x128
100021b4:	1852      	adds	r2, r2, r1
100021b6:	7013      	strb	r3, [r2, #0]
100021b8:	9a5e      	ldr	r2, [sp, #376]	@ 0x178
100021ba:	9b5d      	ldr	r3, [sp, #372]	@ 0x174
100021bc:	1ad4      	subs	r4, r2, r3
100021be:	429a      	cmp	r2, r3
100021c0:	d100      	bne.n	100021c4 <main+0xfbc>
100021c2:	e265      	b.n	10002690 <main+0x1488>
100021c4:	2c00      	cmp	r4, #0
100021c6:	da01      	bge.n	100021cc <main+0xfc4>
100021c8:	f000 fc9d 	bl	10002b06 <main+0x18fe>
100021cc:	0020      	movs	r0, r4
100021ce:	f004 fdf1 	bl	10006db4 <_Znwj>
100021d2:	995d      	ldr	r1, [sp, #372]	@ 0x174
100021d4:	9c5e      	ldr	r4, [sp, #376]	@ 0x178
100021d6:	0007      	movs	r7, r0
100021d8:	1a64      	subs	r4, r4, r1
100021da:	2c01      	cmp	r4, #1
100021dc:	dc01      	bgt.n	100021e2 <main+0xfda>
100021de:	f000 fca6 	bl	10002b2e <main+0x1926>
100021e2:	0022      	movs	r2, r4
100021e4:	f013 feba 	bl	10015f5c <memmove>
100021e8:	0022      	movs	r2, r4
100021ea:	0039      	movs	r1, r7
100021ec:	a850      	add	r0, sp, #320	@ 0x140
100021ee:	f007 f913 	bl	10009418 <_ZN6tflite17FlexbufferWrapperC1EPKhj>
100021f2:	2500      	movs	r5, #0
100021f4:	46ba      	mov	sl, r7
100021f6:	ac55      	add	r4, sp, #340	@ 0x154
100021f8:	e00b      	b.n	10002212 <main+0x100a>
100021fa:	2b04      	cmp	r3, #4
100021fc:	d000      	beq.n	10002200 <main+0xff8>
100021fe:	e0e2      	b.n	100023c6 <main+0x11be>
10002200:	69bb      	ldr	r3, [r7, #24]
10002202:	781a      	ldrb	r2, [r3, #0]
10002204:	2a42      	cmp	r2, #66	@ 0x42
10002206:	d100      	bne.n	1000220a <main+0x1002>
10002208:	e221      	b.n	1000264e <main+0x1446>
1000220a:	3501      	adds	r5, #1
1000220c:	3404      	adds	r4, #4
1000220e:	2d08      	cmp	r5, #8
10002210:	d045      	beq.n	1000229e <main+0x1096>
10002212:	6823      	ldr	r3, [r4, #0]
10002214:	00df      	lsls	r7, r3, #3
10002216:	18ff      	adds	r7, r7, r3
10002218:	00ff      	lsls	r7, r7, #3
1000221a:	445f      	add	r7, fp
1000221c:	69fb      	ldr	r3, [r7, #28]
1000221e:	2b03      	cmp	r3, #3
10002220:	d1eb      	bne.n	100021fa <main+0xff2>
10002222:	69bb      	ldr	r3, [r7, #24]
10002224:	781a      	ldrb	r2, [r3, #0]
10002226:	2a49      	cmp	r2, #73	@ 0x49
10002228:	d1ef      	bne.n	1000220a <main+0x1002>
1000222a:	785a      	ldrb	r2, [r3, #1]
1000222c:	2a6e      	cmp	r2, #110	@ 0x6e
1000222e:	d1ec      	bne.n	1000220a <main+0x1002>
10002230:	789b      	ldrb	r3, [r3, #2]
10002232:	2b74      	cmp	r3, #116	@ 0x74
10002234:	d1e9      	bne.n	1000220a <main+0x1002>
10002236:	0029      	movs	r1, r5
10002238:	a850      	add	r0, sp, #320	@ 0x140
1000223a:	f007 f91d 	bl	10009478 <_ZNK6tflite17FlexbufferWrapper14ElementAsInt32Ej>
1000223e:	6b3b      	ldr	r3, [r7, #48]	@ 0x30
10002240:	4680      	mov	r8, r0
10002242:	4699      	mov	r9, r3
10002244:	f014 f812 	bl	1001626c <__errno>
10002248:	6807      	ldr	r7, [r0, #0]
1000224a:	f014 f80f 	bl	1001626c <__errno>
1000224e:	2300      	movs	r3, #0
10002250:	220a      	movs	r2, #10
10002252:	6003      	str	r3, [r0, #0]
10002254:	a94b      	add	r1, sp, #300	@ 0x12c
10002256:	4648      	mov	r0, r9
10002258:	f013 faf0 	bl	1001583c <strtol>
1000225c:	9b4b      	ldr	r3, [sp, #300]	@ 0x12c
1000225e:	0006      	movs	r6, r0
10002260:	4599      	cmp	r9, r3
10002262:	d101      	bne.n	10002268 <main+0x1060>
10002264:	f000 fc6e 	bl	10002b44 <main+0x193c>
10002268:	f014 f800 	bl	1001626c <__errno>
1000226c:	6803      	ldr	r3, [r0, #0]
1000226e:	2b22      	cmp	r3, #34	@ 0x22
10002270:	d101      	bne.n	10002276 <main+0x106e>
10002272:	f000 fc64 	bl	10002b3e <main+0x1936>
10002276:	f013 fff9 	bl	1001626c <__errno>
1000227a:	6803      	ldr	r3, [r0, #0]
1000227c:	2b00      	cmp	r3, #0
1000227e:	d100      	bne.n	10002282 <main+0x107a>
10002280:	e319      	b.n	100028b6 <main+0x16ae>
10002282:	45b0      	cmp	r8, r6
10002284:	d0c1      	beq.n	1000220a <main+0x1002>
10002286:	2245      	movs	r2, #69	@ 0x45
10002288:	9924      	ldr	r1, [sp, #144]	@ 0x90
1000228a:	9825      	ldr	r0, [sp, #148]	@ 0x94
1000228c:	f007 f966 	bl	1000955c <_Z11MicroPrintfPKcz>
10002290:	2301      	movs	r3, #1
10002292:	9a18      	ldr	r2, [sp, #96]	@ 0x60
10002294:	3501      	adds	r5, #1
10002296:	7013      	strb	r3, [r2, #0]
10002298:	3404      	adds	r4, #4
1000229a:	2d08      	cmp	r5, #8
1000229c:	d1b9      	bne.n	10002212 <main+0x100a>
1000229e:	4657      	mov	r7, sl
100022a0:	2f00      	cmp	r7, #0
100022a2:	d002      	beq.n	100022aa <main+0x10a2>
100022a4:	0038      	movs	r0, r7
100022a6:	f004 fd89 	bl	10006dbc <_ZdlPv>
100022aa:	9c6c      	ldr	r4, [sp, #432]	@ 0x1b0
100022ac:	2c00      	cmp	r4, #0
100022ae:	d008      	beq.n	100022c2 <main+0x10ba>
100022b0:	68e0      	ldr	r0, [r4, #12]
100022b2:	f7fe fa21 	bl	100006f8 <_ZNSt8_Rb_treeISt4pairIjjES1_St9_IdentityIS1_EN11flexbuffers7Builder19StringOffsetCompareESaIS1_EE8_M_eraseEPSt13_Rb_tree_nodeIS1_E.isra.0>
100022b6:	0020      	movs	r0, r4
100022b8:	68a4      	ldr	r4, [r4, #8]
100022ba:	f004 fd7f 	bl	10006dbc <_ZdlPv>
100022be:	2c00      	cmp	r4, #0
100022c0:	d1f6      	bne.n	100022b0 <main+0x10a8>
100022c2:	9c66      	ldr	r4, [sp, #408]	@ 0x198
100022c4:	2c00      	cmp	r4, #0
100022c6:	d008      	beq.n	100022da <main+0x10d2>
100022c8:	68e0      	ldr	r0, [r4, #12]
100022ca:	f7fe f995 	bl	100005f8 <_ZNSt8_Rb_treeIjjSt9_IdentityIjEN11flexbuffers7Builder16KeyOffsetCompareESaIjEE8_M_eraseEPSt13_Rb_tree_nodeIjE.isra.0>
100022ce:	0020      	movs	r0, r4
100022d0:	68a4      	ldr	r4, [r4, #8]
100022d2:	f004 fd73 	bl	10006dbc <_ZdlPv>
100022d6:	2c00      	cmp	r4, #0
100022d8:	d1f6      	bne.n	100022c8 <main+0x10c0>
100022da:	9860      	ldr	r0, [sp, #384]	@ 0x180
100022dc:	2800      	cmp	r0, #0
100022de:	d001      	beq.n	100022e4 <main+0x10dc>
100022e0:	f004 fd6c 	bl	10006dbc <_ZdlPv>
100022e4:	985d      	ldr	r0, [sp, #372]	@ 0x174
100022e6:	2800      	cmp	r0, #0
100022e8:	d001      	beq.n	100022ee <main+0x10e6>
100022ea:	f004 fd67 	bl	10006dbc <_ZdlPv>
100022ee:	acff      	add	r4, sp, #1020	@ 0x3fc
100022f0:	3404      	adds	r4, #4
100022f2:	3c48      	subs	r4, #72	@ 0x48
100022f4:	0023      	movs	r3, r4
100022f6:	6b20      	ldr	r0, [r4, #48]	@ 0x30
100022f8:	3338      	adds	r3, #56	@ 0x38
100022fa:	4298      	cmp	r0, r3
100022fc:	d001      	beq.n	10002302 <main+0x10fa>
100022fe:	f004 fd5d 	bl	10006dbc <_ZdlPv>
10002302:	0023      	movs	r3, r4
10002304:	69a0      	ldr	r0, [r4, #24]
10002306:	3320      	adds	r3, #32
10002308:	4298      	cmp	r0, r3
1000230a:	d001      	beq.n	10002310 <main+0x1108>
1000230c:	f004 fd56 	bl	10006dbc <_ZdlPv>
10002310:	0023      	movs	r3, r4
10002312:	6820      	ldr	r0, [r4, #0]
10002314:	3308      	adds	r3, #8
10002316:	4298      	cmp	r0, r3
10002318:	d100      	bne.n	1000231c <main+0x1114>
1000231a:	e0d2      	b.n	100024c2 <main+0x12ba>
1000231c:	f004 fd4e 	bl	10006dbc <_ZdlPv>
10002320:	455c      	cmp	r4, fp
10002322:	d1e6      	bne.n	100022f2 <main+0x10ea>
10002324:	2301      	movs	r3, #1
10002326:	9a23      	ldr	r2, [sp, #140]	@ 0x8c
10002328:	7013      	strb	r3, [r2, #0]
1000232a:	9b1f      	ldr	r3, [sp, #124]	@ 0x7c
1000232c:	2201      	movs	r2, #1
1000232e:	6819      	ldr	r1, [r3, #0]
10002330:	9b18      	ldr	r3, [sp, #96]	@ 0x60
10002332:	781b      	ldrb	r3, [r3, #0]
10002334:	2b00      	cmp	r3, #0
10002336:	d101      	bne.n	1000233c <main+0x1134>
10002338:	2200      	movs	r2, #0
1000233a:	3101      	adds	r1, #1
1000233c:	9c22      	ldr	r4, [sp, #136]	@ 0x88
1000233e:	9b1f      	ldr	r3, [sp, #124]	@ 0x7c
10002340:	480e      	ldr	r0, [pc, #56]	@ (1000237c <main+0x1174>)
10002342:	6019      	str	r1, [r3, #0]
10002344:	6823      	ldr	r3, [r4, #0]
10002346:	18d2      	adds	r2, r2, r3
10002348:	6022      	str	r2, [r4, #0]
1000234a:	1852      	adds	r2, r2, r1
1000234c:	f007 f906 	bl	1000955c <_Z11MicroPrintfPKcz>
10002350:	6823      	ldr	r3, [r4, #0]
10002352:	2b00      	cmp	r3, #0
10002354:	d000      	beq.n	10002358 <main+0x1150>
10002356:	e3d8      	b.n	10002b0a <main+0x1902>
10002358:	4809      	ldr	r0, [pc, #36]	@ (10002380 <main+0x1178>)
1000235a:	f007 f8ff 	bl	1000955c <_Z11MicroPrintfPKcz>
1000235e:	f7fe ff8f 	bl	10001280 <main+0x78>
10002362:	2cff      	cmp	r4, #255	@ 0xff
10002364:	d800      	bhi.n	10002368 <main+0x1160>
10002366:	e598      	b.n	10001e9a <main+0xc92>
10002368:	2480      	movs	r4, #128	@ 0x80
1000236a:	2502      	movs	r5, #2
1000236c:	0264      	lsls	r4, r4, #9
1000236e:	42a0      	cmp	r0, r4
10002370:	d300      	bcc.n	10002374 <main+0x116c>
10002372:	e593      	b.n	10001e9c <main+0xc94>
10002374:	e591      	b.n	10001e9a <main+0xc92>
10002376:	46c0      	nop			@ (mov r8, r8)
10002378:	7fffffff 	.word	0x7fffffff
1000237c:	1001997c 	.word	0x1001997c
10002380:	10019990 	.word	0x10019990
10002384:	7a5d      	ldrb	r5, [r3, #9]
10002386:	e589      	b.n	10001e9c <main+0xc94>
10002388:	2a1a      	cmp	r2, #26
1000238a:	d100      	bne.n	1000238e <main+0x1186>
1000238c:	e5f4      	b.n	10001f78 <main+0xd70>
1000238e:	995e      	ldr	r1, [sp, #376]	@ 0x178
10002390:	9a5d      	ldr	r2, [sp, #372]	@ 0x174
10002392:	1a8a      	subs	r2, r1, r2
10002394:	9214      	str	r2, [sp, #80]	@ 0x50
10002396:	2200      	movs	r2, #0
10002398:	9215      	str	r2, [sp, #84]	@ 0x54
1000239a:	9c14      	ldr	r4, [sp, #80]	@ 0x50
1000239c:	9d15      	ldr	r5, [sp, #84]	@ 0x54
1000239e:	681a      	ldr	r2, [r3, #0]
100023a0:	685b      	ldr	r3, [r3, #4]
100023a2:	1aa4      	subs	r4, r4, r2
100023a4:	419d      	sbcs	r5, r3
100023a6:	0022      	movs	r2, r4
100023a8:	002b      	movs	r3, r5
100023aa:	9250      	str	r2, [sp, #320]	@ 0x140
100023ac:	9351      	str	r3, [sp, #324]	@ 0x144
100023ae:	e5e8      	b.n	10001f82 <main+0xd7a>
100023b0:	464a      	mov	r2, r9
100023b2:	2a08      	cmp	r2, #8
100023b4:	d000      	beq.n	100023b8 <main+0x11b0>
100023b6:	e5ec      	b.n	10001f92 <main+0xd8a>
100023b8:	681a      	ldr	r2, [r3, #0]
100023ba:	685b      	ldr	r3, [r3, #4]
100023bc:	995e      	ldr	r1, [sp, #376]	@ 0x178
100023be:	9250      	str	r2, [sp, #320]	@ 0x140
100023c0:	9351      	str	r3, [sp, #324]	@ 0x144
100023c2:	ab52      	add	r3, sp, #328	@ 0x148
100023c4:	e5de      	b.n	10001f84 <main+0xd7c>
100023c6:	2b06      	cmp	r3, #6
100023c8:	d13e      	bne.n	10002448 <main+0x1240>
100023ca:	2206      	movs	r2, #6
100023cc:	69b8      	ldr	r0, [r7, #24]
100023ce:	991e      	ldr	r1, [sp, #120]	@ 0x78
100023d0:	f013 fda0 	bl	10015f14 <memcmp>
100023d4:	1e06      	subs	r6, r0, #0
100023d6:	d000      	beq.n	100023da <main+0x11d2>
100023d8:	e717      	b.n	1000220a <main+0x1002>
100023da:	0029      	movs	r1, r5
100023dc:	a850      	add	r0, sp, #320	@ 0x140
100023de:	f007 f873 	bl	100094c8 <_ZNK6tflite17FlexbufferWrapper15ElementAsDoubleEj>
100023e2:	6b3b      	ldr	r3, [r7, #48]	@ 0x30
100023e4:	9000      	str	r0, [sp, #0]
100023e6:	9101      	str	r1, [sp, #4]
100023e8:	4698      	mov	r8, r3
100023ea:	f013 ff3f 	bl	1001626c <__errno>
100023ee:	6803      	ldr	r3, [r0, #0]
100023f0:	4699      	mov	r9, r3
100023f2:	f013 ff3b 	bl	1001626c <__errno>
100023f6:	a94b      	add	r1, sp, #300	@ 0x12c
100023f8:	6006      	str	r6, [r0, #0]
100023fa:	4640      	mov	r0, r8
100023fc:	f013 f8fa 	bl	100155f4 <strtod>
10002400:	9b4b      	ldr	r3, [sp, #300]	@ 0x12c
10002402:	0006      	movs	r6, r0
10002404:	000f      	movs	r7, r1
10002406:	4598      	cmp	r8, r3
10002408:	d100      	bne.n	1000240c <main+0x1204>
1000240a:	e3a1      	b.n	10002b50 <main+0x1948>
1000240c:	f013 ff2e 	bl	1001626c <__errno>
10002410:	6803      	ldr	r3, [r0, #0]
10002412:	2b22      	cmp	r3, #34	@ 0x22
10002414:	d100      	bne.n	10002418 <main+0x1210>
10002416:	e398      	b.n	10002b4a <main+0x1942>
10002418:	f013 ff28 	bl	1001626c <__errno>
1000241c:	6803      	ldr	r3, [r0, #0]
1000241e:	2b00      	cmp	r3, #0
10002420:	d100      	bne.n	10002424 <main+0x121c>
10002422:	e143      	b.n	100026ac <main+0x14a4>
10002424:	9800      	ldr	r0, [sp, #0]
10002426:	9901      	ldr	r1, [sp, #4]
10002428:	0032      	movs	r2, r6
1000242a:	003b      	movs	r3, r7
1000242c:	f003 ff58 	bl	100062e0 <__wrap___aeabi_dcmpeq>
10002430:	2800      	cmp	r0, #0
10002432:	d000      	beq.n	10002436 <main+0x122e>
10002434:	e6e9      	b.n	1000220a <main+0x1002>
10002436:	2249      	movs	r2, #73	@ 0x49
10002438:	49c9      	ldr	r1, [pc, #804]	@ (10002760 <main+0x1558>)
1000243a:	48ca      	ldr	r0, [pc, #808]	@ (10002764 <main+0x155c>)
1000243c:	f007 f88e 	bl	1000955c <_Z11MicroPrintfPKcz>
10002440:	2301      	movs	r3, #1
10002442:	9a18      	ldr	r2, [sp, #96]	@ 0x60
10002444:	7013      	strb	r3, [r2, #0]
10002446:	e6e0      	b.n	1000220a <main+0x1002>
10002448:	2b05      	cmp	r3, #5
1000244a:	d000      	beq.n	1000244e <main+0x1246>
1000244c:	e6dd      	b.n	1000220a <main+0x1002>
1000244e:	2205      	movs	r2, #5
10002450:	69b8      	ldr	r0, [r7, #24]
10002452:	9920      	ldr	r1, [sp, #128]	@ 0x80
10002454:	f013 fd5e 	bl	10015f14 <memcmp>
10002458:	1e06      	subs	r6, r0, #0
1000245a:	d000      	beq.n	1000245e <main+0x1256>
1000245c:	e6d5      	b.n	1000220a <main+0x1002>
1000245e:	0029      	movs	r1, r5
10002460:	a850      	add	r0, sp, #320	@ 0x140
10002462:	f007 f84d 	bl	10009500 <_ZNK6tflite17FlexbufferWrapper14ElementAsFloatEj>
10002466:	6b3f      	ldr	r7, [r7, #48]	@ 0x30
10002468:	4680      	mov	r8, r0
1000246a:	f013 feff 	bl	1001626c <__errno>
1000246e:	6803      	ldr	r3, [r0, #0]
10002470:	4699      	mov	r9, r3
10002472:	f013 fefb 	bl	1001626c <__errno>
10002476:	a94b      	add	r1, sp, #300	@ 0x12c
10002478:	6006      	str	r6, [r0, #0]
1000247a:	0038      	movs	r0, r7
1000247c:	f013 f8c8 	bl	10015610 <strtof>
10002480:	9b4b      	ldr	r3, [sp, #300]	@ 0x12c
10002482:	1c06      	adds	r6, r0, #0
10002484:	429f      	cmp	r7, r3
10002486:	d100      	bne.n	1000248a <main+0x1282>
10002488:	e368      	b.n	10002b5c <main+0x1954>
1000248a:	f013 feef 	bl	1001626c <__errno>
1000248e:	6803      	ldr	r3, [r0, #0]
10002490:	2b22      	cmp	r3, #34	@ 0x22
10002492:	d100      	bne.n	10002496 <main+0x128e>
10002494:	e35f      	b.n	10002b56 <main+0x194e>
10002496:	f013 fee9 	bl	1001626c <__errno>
1000249a:	6803      	ldr	r3, [r0, #0]
1000249c:	2b00      	cmp	r3, #0
1000249e:	d100      	bne.n	100024a2 <main+0x129a>
100024a0:	e1cb      	b.n	1000283a <main+0x1632>
100024a2:	4640      	mov	r0, r8
100024a4:	1c31      	adds	r1, r6, #0
100024a6:	f004 fb9d 	bl	10006be4 <__wrap___aeabi_fcmpeq>
100024aa:	2800      	cmp	r0, #0
100024ac:	d000      	beq.n	100024b0 <main+0x12a8>
100024ae:	e6ac      	b.n	1000220a <main+0x1002>
100024b0:	224c      	movs	r2, #76	@ 0x4c
100024b2:	49ab      	ldr	r1, [pc, #684]	@ (10002760 <main+0x1558>)
100024b4:	48ac      	ldr	r0, [pc, #688]	@ (10002768 <main+0x1560>)
100024b6:	f007 f851 	bl	1000955c <_Z11MicroPrintfPKcz>
100024ba:	2301      	movs	r3, #1
100024bc:	9a18      	ldr	r2, [sp, #96]	@ 0x60
100024be:	7013      	strb	r3, [r2, #0]
100024c0:	e6a3      	b.n	1000220a <main+0x1002>
100024c2:	455c      	cmp	r4, fp
100024c4:	d000      	beq.n	100024c8 <main+0x12c0>
100024c6:	e714      	b.n	100022f2 <main+0x10ea>
100024c8:	e72c      	b.n	10002324 <main+0x111c>
100024ca:	2001      	movs	r0, #1
100024cc:	f004 fc72 	bl	10006db4 <_Znwj>
100024d0:	2301      	movs	r3, #1
100024d2:	0007      	movs	r7, r0
100024d4:	7004      	strb	r4, [r0, #0]
100024d6:	9300      	str	r3, [sp, #0]
100024d8:	4653      	mov	r3, sl
100024da:	3501      	adds	r5, #1
100024dc:	197d      	adds	r5, r7, r5
100024de:	2b00      	cmp	r3, #0
100024e0:	d100      	bne.n	100024e4 <main+0x12dc>
100024e2:	e5b6      	b.n	10002052 <main+0xe4a>
100024e4:	e5b2      	b.n	1000204c <main+0xe44>
100024e6:	2701      	movs	r7, #1
100024e8:	7a62      	ldrb	r2, [r4, #9]
100024ea:	4097      	lsls	r7, r2
100024ec:	003a      	movs	r2, r7
100024ee:	46b8      	mov	r8, r7
100024f0:	3a01      	subs	r2, #1
100024f2:	b2fc      	uxtb	r4, r7
100024f4:	e623      	b.n	1000213e <main+0xf36>
100024f6:	785a      	ldrb	r2, [r3, #1]
100024f8:	2a6f      	cmp	r2, #111	@ 0x6f
100024fa:	d001      	beq.n	10002500 <main+0x12f8>
100024fc:	f7ff f8d0 	bl	100016a0 <main+0x498>
10002500:	789a      	ldrb	r2, [r3, #2]
10002502:	2a6f      	cmp	r2, #111	@ 0x6f
10002504:	d001      	beq.n	1000250a <main+0x1302>
10002506:	f7ff f8cb 	bl	100016a0 <main+0x498>
1000250a:	78db      	ldrb	r3, [r3, #3]
1000250c:	2b6c      	cmp	r3, #108	@ 0x6c
1000250e:	d001      	beq.n	10002514 <main+0x130c>
10002510:	f7ff f8c6 	bl	100016a0 <main+0x498>
10002514:	2200      	movs	r2, #0
10002516:	6b6b      	ldr	r3, [r5, #52]	@ 0x34
10002518:	682c      	ldr	r4, [r5, #0]
1000251a:	9200      	str	r2, [sp, #0]
1000251c:	2b04      	cmp	r3, #4
1000251e:	d100      	bne.n	10002522 <main+0x131a>
10002520:	e1cd      	b.n	100028be <main+0x16b6>
10002522:	0020      	movs	r0, r4
10002524:	f013 ff3c 	bl	100163a0 <strlen>
10002528:	995e      	ldr	r1, [sp, #376]	@ 0x178
1000252a:	9b5d      	ldr	r3, [sp, #372]	@ 0x174
1000252c:	3001      	adds	r0, #1
1000252e:	1acb      	subs	r3, r1, r3
10002530:	0022      	movs	r2, r4
10002532:	4698      	mov	r8, r3
10002534:	1823      	adds	r3, r4, r0
10002536:	a85d      	add	r0, sp, #372	@ 0x174
10002538:	f7fd ff72 	bl	10000420 <_ZNSt6vectorIhSaIhEE15_M_range_insertIPKhEEvN9__gnu_cxx17__normal_iteratorIPhS1_EET_S9_St20forward_iterator_tag.isra.0>
1000253c:	2266      	movs	r2, #102	@ 0x66
1000253e:	ab4a      	add	r3, sp, #296	@ 0x128
10002540:	189b      	adds	r3, r3, r2
10002542:	781b      	ldrb	r3, [r3, #0]
10002544:	3a65      	subs	r2, #101	@ 0x65
10002546:	421a      	tst	r2, r3
10002548:	d037      	beq.n	100025ba <main+0x13b2>
1000254a:	9c66      	ldr	r4, [sp, #408]	@ 0x198
1000254c:	2c00      	cmp	r4, #0
1000254e:	d100      	bne.n	10002552 <main+0x134a>
10002550:	e224      	b.n	1000299c <main+0x1794>
10002552:	9b64      	ldr	r3, [sp, #400]	@ 0x190
10002554:	681e      	ldr	r6, [r3, #0]
10002556:	ab65      	add	r3, sp, #404	@ 0x194
10002558:	46b1      	mov	r9, r6
1000255a:	469a      	mov	sl, r3
1000255c:	002b      	movs	r3, r5
1000255e:	44c1      	add	r9, r8
10002560:	464d      	mov	r5, r9
10002562:	4699      	mov	r9, r3
10002564:	e003      	b.n	1000256e <main+0x1366>
10002566:	46a2      	mov	sl, r4
10002568:	68a4      	ldr	r4, [r4, #8]
1000256a:	2c00      	cmp	r4, #0
1000256c:	d009      	beq.n	10002582 <main+0x137a>
1000256e:	6920      	ldr	r0, [r4, #16]
10002570:	0029      	movs	r1, r5
10002572:	1830      	adds	r0, r6, r0
10002574:	f013 fe8e 	bl	10016294 <strcmp>
10002578:	2800      	cmp	r0, #0
1000257a:	daf4      	bge.n	10002566 <main+0x135e>
1000257c:	68e4      	ldr	r4, [r4, #12]
1000257e:	2c00      	cmp	r4, #0
10002580:	d1f5      	bne.n	1000256e <main+0x1366>
10002582:	464b      	mov	r3, r9
10002584:	46a9      	mov	r9, r5
10002586:	001d      	movs	r5, r3
10002588:	ab65      	add	r3, sp, #404	@ 0x194
1000258a:	459a      	cmp	sl, r3
1000258c:	d100      	bne.n	10002590 <main+0x1388>
1000258e:	e205      	b.n	1000299c <main+0x1794>
10002590:	4653      	mov	r3, sl
10002592:	691c      	ldr	r4, [r3, #16]
10002594:	4648      	mov	r0, r9
10002596:	1931      	adds	r1, r6, r4
10002598:	f013 fe7c 	bl	10016294 <strcmp>
1000259c:	2800      	cmp	r0, #0
1000259e:	da00      	bge.n	100025a2 <main+0x139a>
100025a0:	e1fc      	b.n	1000299c <main+0x1794>
100025a2:	9a5e      	ldr	r2, [sp, #376]	@ 0x178
100025a4:	9b5d      	ldr	r3, [sp, #372]	@ 0x174
100025a6:	1ad1      	subs	r1, r2, r3
100025a8:	4588      	cmp	r8, r1
100025aa:	d900      	bls.n	100025ae <main+0x13a6>
100025ac:	e213      	b.n	100029d6 <main+0x17ce>
100025ae:	d203      	bcs.n	100025b8 <main+0x13b0>
100025b0:	4443      	add	r3, r8
100025b2:	429a      	cmp	r2, r3
100025b4:	d000      	beq.n	100025b8 <main+0x13b0>
100025b6:	935e      	str	r3, [sp, #376]	@ 0x178
100025b8:	46a0      	mov	r8, r4
100025ba:	4643      	mov	r3, r8
100025bc:	603b      	str	r3, [r7, #0]
100025be:	2300      	movs	r3, #0
100025c0:	9c61      	ldr	r4, [sp, #388]	@ 0x184
100025c2:	9e62      	ldr	r6, [sp, #392]	@ 0x188
100025c4:	607b      	str	r3, [r7, #4]
100025c6:	3304      	adds	r3, #4
100025c8:	813b      	strh	r3, [r7, #8]
100025ca:	42b4      	cmp	r4, r6
100025cc:	d100      	bne.n	100025d0 <main+0x13c8>
100025ce:	e1d4      	b.n	1000297a <main+0x1772>
100025d0:	0020      	movs	r0, r4
100025d2:	2210      	movs	r2, #16
100025d4:	0039      	movs	r1, r7
100025d6:	3410      	adds	r4, #16
100025d8:	f004 fbe6 	bl	10006da8 <__wrap___aeabi_memcpy>
100025dc:	9461      	str	r4, [sp, #388]	@ 0x184
100025de:	9b00      	ldr	r3, [sp, #0]
100025e0:	603b      	str	r3, [r7, #0]
100025e2:	2300      	movs	r3, #0
100025e4:	607b      	str	r3, [r7, #4]
100025e6:	331a      	adds	r3, #26
100025e8:	813b      	strh	r3, [r7, #8]
100025ea:	42b4      	cmp	r4, r6
100025ec:	d001      	beq.n	100025f2 <main+0x13ea>
100025ee:	f7ff fac6 	bl	10001b7e <main+0x976>
100025f2:	003a      	movs	r2, r7
100025f4:	0021      	movs	r1, r4
100025f6:	a860      	add	r0, sp, #384	@ 0x180
100025f8:	f7fe face 	bl	10000b98 <_ZNSt6vectorIN11flexbuffers7Builder5ValueESaIS2_EE17_M_realloc_insertIJS2_EEEvN9__gnu_cxx17__normal_iteratorIPS2_S4_EEDpOT_>
100025fc:	f7ff f912 	bl	10001824 <main+0x61c>
10002600:	2cff      	cmp	r4, #255	@ 0xff
10002602:	d900      	bls.n	10002606 <main+0x13fe>
10002604:	e431      	b.n	10001e6a <main+0xc62>
10002606:	2500      	movs	r5, #0
10002608:	e448      	b.n	10001e9c <main+0xc94>
1000260a:	9d1a      	ldr	r5, [sp, #104]	@ 0x68
1000260c:	2dff      	cmp	r5, #255	@ 0xff
1000260e:	d901      	bls.n	10002614 <main+0x140c>
10002610:	f7ff f989 	bl	10001926 <main+0x71e>
10002614:	2600      	movs	r6, #0
10002616:	f7ff f9a1 	bl	1000195c <main+0x754>
1000261a:	9d1a      	ldr	r5, [sp, #104]	@ 0x68
1000261c:	2dff      	cmp	r5, #255	@ 0xff
1000261e:	d801      	bhi.n	10002624 <main+0x141c>
10002620:	f7ff f98f 	bl	10001942 <main+0x73a>
10002624:	002e      	movs	r6, r5
10002626:	2580      	movs	r5, #128	@ 0x80
10002628:	026d      	lsls	r5, r5, #9
1000262a:	42ae      	cmp	r6, r5
1000262c:	d301      	bcc.n	10002632 <main+0x142a>
1000262e:	f7ff f988 	bl	10001942 <main+0x73a>
10002632:	2601      	movs	r6, #1
10002634:	f7ff f992 	bl	1000195c <main+0x754>
10002638:	9c00      	ldr	r4, [sp, #0]
1000263a:	2cff      	cmp	r4, #255	@ 0xff
1000263c:	d800      	bhi.n	10002640 <main+0x1438>
1000263e:	e420      	b.n	10001e82 <main+0xc7a>
10002640:	2580      	movs	r5, #128	@ 0x80
10002642:	026d      	lsls	r5, r5, #9
10002644:	42ac      	cmp	r4, r5
10002646:	d300      	bcc.n	1000264a <main+0x1442>
10002648:	e41b      	b.n	10001e82 <main+0xc7a>
1000264a:	2501      	movs	r5, #1
1000264c:	e426      	b.n	10001e9c <main+0xc94>
1000264e:	785a      	ldrb	r2, [r3, #1]
10002650:	2a6f      	cmp	r2, #111	@ 0x6f
10002652:	d000      	beq.n	10002656 <main+0x144e>
10002654:	e5d9      	b.n	1000220a <main+0x1002>
10002656:	789a      	ldrb	r2, [r3, #2]
10002658:	2a6f      	cmp	r2, #111	@ 0x6f
1000265a:	d000      	beq.n	1000265e <main+0x1456>
1000265c:	e5d5      	b.n	1000220a <main+0x1002>
1000265e:	78db      	ldrb	r3, [r3, #3]
10002660:	2b6c      	cmp	r3, #108	@ 0x6c
10002662:	d000      	beq.n	10002666 <main+0x145e>
10002664:	e5d1      	b.n	1000220a <main+0x1002>
10002666:	0029      	movs	r1, r5
10002668:	a850      	add	r0, sp, #320	@ 0x140
1000266a:	f006 ff15 	bl	10009498 <_ZNK6tflite17FlexbufferWrapper13ElementAsBoolEj>
1000266e:	6b7a      	ldr	r2, [r7, #52]	@ 0x34
10002670:	2300      	movs	r3, #0
10002672:	2a04      	cmp	r2, #4
10002674:	d100      	bne.n	10002678 <main+0x1470>
10002676:	e144      	b.n	10002902 <main+0x16fa>
10002678:	4298      	cmp	r0, r3
1000267a:	d100      	bne.n	1000267e <main+0x1476>
1000267c:	e5c5      	b.n	1000220a <main+0x1002>
1000267e:	2247      	movs	r2, #71	@ 0x47
10002680:	4937      	ldr	r1, [pc, #220]	@ (10002760 <main+0x1558>)
10002682:	483a      	ldr	r0, [pc, #232]	@ (1000276c <main+0x1564>)
10002684:	f006 ff6a 	bl	1000955c <_Z11MicroPrintfPKcz>
10002688:	2301      	movs	r3, #1
1000268a:	9a18      	ldr	r2, [sp, #96]	@ 0x60
1000268c:	7013      	strb	r3, [r2, #0]
1000268e:	e5bc      	b.n	1000220a <main+0x1002>
10002690:	2700      	movs	r7, #0
10002692:	e5a9      	b.n	100021e8 <main+0xfe0>
10002694:	2320      	movs	r3, #32
10002696:	9a19      	ldr	r2, [sp, #100]	@ 0x64
10002698:	1a9b      	subs	r3, r3, r2
1000269a:	40dd      	lsrs	r5, r3
1000269c:	9551      	str	r5, [sp, #324]	@ 0x144
1000269e:	e439      	b.n	10001f14 <main+0xd0c>
100026a0:	f013 fde4 	bl	1001626c <__errno>
100026a4:	4643      	mov	r3, r8
100026a6:	6003      	str	r3, [r0, #0]
100026a8:	f7ff f9e9 	bl	10001a7e <main+0x876>
100026ac:	f013 fdde 	bl	1001626c <__errno>
100026b0:	464b      	mov	r3, r9
100026b2:	6003      	str	r3, [r0, #0]
100026b4:	e6b6      	b.n	10002424 <main+0x121c>
100026b6:	46b9      	mov	r9, r7
100026b8:	0027      	movs	r7, r4
100026ba:	9b21      	ldr	r3, [sp, #132]	@ 0x84
100026bc:	9707      	str	r7, [sp, #28]
100026be:	001c      	movs	r4, r3
100026c0:	f7ff f960 	bl	10001984 <main+0x77c>
100026c4:	002b      	movs	r3, r5
100026c6:	0035      	movs	r5, r6
100026c8:	9e46      	ldr	r6, [sp, #280]	@ 0x118
100026ca:	9f47      	ldr	r7, [sp, #284]	@ 0x11c
100026cc:	e012      	b.n	100026f4 <main+0x14ec>
100026ce:	2a03      	cmp	r2, #3
100026d0:	d81d      	bhi.n	1000270e <main+0x1506>
100026d2:	681a      	ldr	r2, [r3, #0]
100026d4:	685b      	ldr	r3, [r3, #4]
100026d6:	9250      	str	r2, [sp, #320]	@ 0x140
100026d8:	9351      	str	r3, [sp, #324]	@ 0x144
100026da:	002b      	movs	r3, r5
100026dc:	995e      	ldr	r1, [sp, #376]	@ 0x178
100026de:	aa50      	add	r2, sp, #320	@ 0x140
100026e0:	a85d      	add	r0, sp, #372	@ 0x174
100026e2:	f7fd fe9d 	bl	10000420 <_ZNSt6vectorIhSaIhEE15_M_range_insertIPKhEEvN9__gnu_cxx17__normal_iteratorIPhS1_EET_S9_St20forward_iterator_tag.isra.0>
100026e6:	9b60      	ldr	r3, [sp, #384]	@ 0x180
100026e8:	9961      	ldr	r1, [sp, #388]	@ 0x184
100026ea:	3402      	adds	r4, #2
100026ec:	1ac9      	subs	r1, r1, r3
100026ee:	1109      	asrs	r1, r1, #4
100026f0:	428c      	cmp	r4, r1
100026f2:	d22b      	bcs.n	1000274c <main+0x1544>
100026f4:	0122      	lsls	r2, r4, #4
100026f6:	189b      	adds	r3, r3, r2
100026f8:	7a1a      	ldrb	r2, [r3, #8]
100026fa:	2a03      	cmp	r2, #3
100026fc:	d1e7      	bne.n	100026ce <main+0x14c6>
100026fe:	6818      	ldr	r0, [r3, #0]
10002700:	6859      	ldr	r1, [r3, #4]
10002702:	f003 fea3 	bl	1000644c <__wrap___aeabi_d2f>
10002706:	995e      	ldr	r1, [sp, #376]	@ 0x178
10002708:	9050      	str	r0, [sp, #320]	@ 0x140
1000270a:	ab51      	add	r3, sp, #324	@ 0x144
1000270c:	e7e7      	b.n	100026de <main+0x14d6>
1000270e:	2a1a      	cmp	r2, #26
10002710:	d0df      	beq.n	100026d2 <main+0x14ca>
10002712:	9a5e      	ldr	r2, [sp, #376]	@ 0x178
10002714:	2700      	movs	r7, #0
10002716:	4694      	mov	ip, r2
10002718:	4661      	mov	r1, ip
1000271a:	9a5d      	ldr	r2, [sp, #372]	@ 0x174
1000271c:	3402      	adds	r4, #2
1000271e:	1a8e      	subs	r6, r1, r2
10002720:	0030      	movs	r0, r6
10002722:	681a      	ldr	r2, [r3, #0]
10002724:	685b      	ldr	r3, [r3, #4]
10002726:	0039      	movs	r1, r7
10002728:	1a80      	subs	r0, r0, r2
1000272a:	4199      	sbcs	r1, r3
1000272c:	0002      	movs	r2, r0
1000272e:	000b      	movs	r3, r1
10002730:	a85d      	add	r0, sp, #372	@ 0x174
10002732:	9250      	str	r2, [sp, #320]	@ 0x140
10002734:	9351      	str	r3, [sp, #324]	@ 0x144
10002736:	4661      	mov	r1, ip
10002738:	002b      	movs	r3, r5
1000273a:	aa50      	add	r2, sp, #320	@ 0x140
1000273c:	f7fd fe70 	bl	10000420 <_ZNSt6vectorIhSaIhEE15_M_range_insertIPKhEEvN9__gnu_cxx17__normal_iteratorIPhS1_EET_S9_St20forward_iterator_tag.isra.0>
10002740:	9b60      	ldr	r3, [sp, #384]	@ 0x180
10002742:	9961      	ldr	r1, [sp, #388]	@ 0x184
10002744:	1ac9      	subs	r1, r1, r3
10002746:	1109      	asrs	r1, r1, #4
10002748:	428c      	cmp	r4, r1
1000274a:	d3d3      	bcc.n	100026f4 <main+0x14ec>
1000274c:	001d      	movs	r5, r3
1000274e:	9646      	str	r6, [sp, #280]	@ 0x118
10002750:	9747      	str	r7, [sp, #284]	@ 0x11c
10002752:	f7ff faff 	bl	10001d54 <main+0xb4c>
10002756:	46a9      	mov	r9, r5
10002758:	0035      	movs	r5, r6
1000275a:	9e48      	ldr	r6, [sp, #288]	@ 0x120
1000275c:	9f49      	ldr	r7, [sp, #292]	@ 0x124
1000275e:	e01a      	b.n	10002796 <main+0x158e>
10002760:	10019808 	.word	0x10019808
10002764:	100198f0 	.word	0x100198f0
10002768:	10019938 	.word	0x10019938
1000276c:	100198ac 	.word	0x100198ac
10002770:	2b03      	cmp	r3, #3
10002772:	d81d      	bhi.n	100027b0 <main+0x15a8>
10002774:	6822      	ldr	r2, [r4, #0]
10002776:	6863      	ldr	r3, [r4, #4]
10002778:	9250      	str	r2, [sp, #320]	@ 0x140
1000277a:	9351      	str	r3, [sp, #324]	@ 0x144
1000277c:	464b      	mov	r3, r9
1000277e:	995e      	ldr	r1, [sp, #376]	@ 0x178
10002780:	aa50      	add	r2, sp, #320	@ 0x140
10002782:	a85d      	add	r0, sp, #372	@ 0x174
10002784:	f7fd fe4c 	bl	10000420 <_ZNSt6vectorIhSaIhEE15_M_range_insertIPKhEEvN9__gnu_cxx17__normal_iteratorIPhS1_EET_S9_St20forward_iterator_tag.isra.0>
10002788:	9c60      	ldr	r4, [sp, #384]	@ 0x180
1000278a:	9a61      	ldr	r2, [sp, #388]	@ 0x184
1000278c:	3502      	adds	r5, #2
1000278e:	1b13      	subs	r3, r2, r4
10002790:	1119      	asrs	r1, r3, #4
10002792:	428d      	cmp	r5, r1
10002794:	d22b      	bcs.n	100027ee <main+0x15e6>
10002796:	012b      	lsls	r3, r5, #4
10002798:	18e4      	adds	r4, r4, r3
1000279a:	7a23      	ldrb	r3, [r4, #8]
1000279c:	2b03      	cmp	r3, #3
1000279e:	d1e7      	bne.n	10002770 <main+0x1568>
100027a0:	6820      	ldr	r0, [r4, #0]
100027a2:	6861      	ldr	r1, [r4, #4]
100027a4:	f003 fe52 	bl	1000644c <__wrap___aeabi_d2f>
100027a8:	995e      	ldr	r1, [sp, #376]	@ 0x178
100027aa:	9050      	str	r0, [sp, #320]	@ 0x140
100027ac:	ab51      	add	r3, sp, #324	@ 0x144
100027ae:	e7e7      	b.n	10002780 <main+0x1578>
100027b0:	2b1a      	cmp	r3, #26
100027b2:	d0df      	beq.n	10002774 <main+0x156c>
100027b4:	9b5e      	ldr	r3, [sp, #376]	@ 0x178
100027b6:	2700      	movs	r7, #0
100027b8:	469c      	mov	ip, r3
100027ba:	4662      	mov	r2, ip
100027bc:	9b5d      	ldr	r3, [sp, #372]	@ 0x174
100027be:	0039      	movs	r1, r7
100027c0:	1ad6      	subs	r6, r2, r3
100027c2:	0030      	movs	r0, r6
100027c4:	6822      	ldr	r2, [r4, #0]
100027c6:	6863      	ldr	r3, [r4, #4]
100027c8:	1a80      	subs	r0, r0, r2
100027ca:	4199      	sbcs	r1, r3
100027cc:	0002      	movs	r2, r0
100027ce:	000b      	movs	r3, r1
100027d0:	a85d      	add	r0, sp, #372	@ 0x174
100027d2:	9250      	str	r2, [sp, #320]	@ 0x140
100027d4:	9351      	str	r3, [sp, #324]	@ 0x144
100027d6:	4661      	mov	r1, ip
100027d8:	464b      	mov	r3, r9
100027da:	aa50      	add	r2, sp, #320	@ 0x140
100027dc:	f7fd fe20 	bl	10000420 <_ZNSt6vectorIhSaIhEE15_M_range_insertIPKhEEvN9__gnu_cxx17__normal_iteratorIPhS1_EET_S9_St20forward_iterator_tag.isra.0>
100027e0:	9c60      	ldr	r4, [sp, #384]	@ 0x180
100027e2:	9a61      	ldr	r2, [sp, #388]	@ 0x184
100027e4:	3502      	adds	r5, #2
100027e6:	1b13      	subs	r3, r2, r4
100027e8:	1119      	asrs	r1, r3, #4
100027ea:	428d      	cmp	r5, r1
100027ec:	d3d3      	bcc.n	10002796 <main+0x158e>
100027ee:	9648      	str	r6, [sp, #288]	@ 0x120
100027f0:	9749      	str	r7, [sp, #292]	@ 0x124
100027f2:	0017      	movs	r7, r2
100027f4:	f7ff fbd4 	bl	10001fa0 <main+0xd98>
100027f8:	0029      	movs	r1, r5
100027fa:	0030      	movs	r0, r6
100027fc:	aa5d      	add	r2, sp, #372	@ 0x174
100027fe:	f7fe fb03 	bl	10000e08 <_ZSt16__insertion_sortIPZN11flexbuffers7Builder6EndMapEjE8TwoValueN9__gnu_cxx5__ops15_Iter_comp_iterIZNS1_6EndMapEjEUlRKS2_S8_E_EEEvT_SB_T0_>
10002802:	f7ff f840 	bl	10001886 <main+0x67e>
10002806:	f013 fd31 	bl	1001626c <__errno>
1000280a:	464b      	mov	r3, r9
1000280c:	6003      	str	r3, [r0, #0]
1000280e:	f7ff f9eb 	bl	10001be8 <main+0x9e0>
10002812:	2b1a      	cmp	r3, #26
10002814:	d100      	bne.n	10002818 <main+0x1610>
10002816:	e4a2      	b.n	1000215e <main+0xf56>
10002818:	995e      	ldr	r1, [sp, #376]	@ 0x178
1000281a:	9b5d      	ldr	r3, [sp, #372]	@ 0x174
1000281c:	1acb      	subs	r3, r1, r3
1000281e:	9344      	str	r3, [sp, #272]	@ 0x110
10002820:	2300      	movs	r3, #0
10002822:	9345      	str	r3, [sp, #276]	@ 0x114
10002824:	9d44      	ldr	r5, [sp, #272]	@ 0x110
10002826:	9e45      	ldr	r6, [sp, #276]	@ 0x114
10002828:	6853      	ldr	r3, [r2, #4]
1000282a:	6812      	ldr	r2, [r2, #0]
1000282c:	1aad      	subs	r5, r5, r2
1000282e:	419e      	sbcs	r6, r3
10002830:	002a      	movs	r2, r5
10002832:	0033      	movs	r3, r6
10002834:	9250      	str	r2, [sp, #320]	@ 0x140
10002836:	9351      	str	r3, [sp, #324]	@ 0x144
10002838:	e496      	b.n	10002168 <main+0xf60>
1000283a:	f013 fd17 	bl	1001626c <__errno>
1000283e:	464b      	mov	r3, r9
10002840:	6003      	str	r3, [r0, #0]
10002842:	e62e      	b.n	100024a2 <main+0x129a>
10002844:	0031      	movs	r1, r6
10002846:	003a      	movs	r2, r7
10002848:	a860      	add	r0, sp, #384	@ 0x180
1000284a:	f7fe f9a5 	bl	10000b98 <_ZNSt6vectorIN11flexbuffers7Builder5ValueESaIS2_EE17_M_realloc_insertIJS2_EEEvN9__gnu_cxx17__normal_iteratorIPS2_S4_EEDpOT_>
1000284e:	9c61      	ldr	r4, [sp, #388]	@ 0x184
10002850:	9e62      	ldr	r6, [sp, #392]	@ 0x188
10002852:	f7ff f97d 	bl	10001b50 <main+0x948>
10002856:	9d5e      	ldr	r5, [sp, #376]	@ 0x178
10002858:	6810      	ldr	r0, [r2, #0]
1000285a:	6851      	ldr	r1, [r2, #4]
1000285c:	2c04      	cmp	r4, #4
1000285e:	d01b      	beq.n	10002898 <main+0x1690>
10002860:	2303      	movs	r3, #3
10002862:	2c08      	cmp	r4, #8
10002864:	d000      	beq.n	10002868 <main+0x1660>
10002866:	e48a      	b.n	1000217e <main+0xf76>
10002868:	9050      	str	r0, [sp, #320]	@ 0x140
1000286a:	9151      	str	r1, [sp, #324]	@ 0x144
1000286c:	ab52      	add	r3, sp, #328	@ 0x148
1000286e:	0029      	movs	r1, r5
10002870:	aa50      	add	r2, sp, #320	@ 0x140
10002872:	a85d      	add	r0, sp, #372	@ 0x174
10002874:	f7fd fdd4 	bl	10000420 <_ZNSt6vectorIhSaIhEE15_M_range_insertIPKhEEvN9__gnu_cxx17__normal_iteratorIPhS1_EET_S9_St20forward_iterator_tag.isra.0>
10002878:	2408      	movs	r4, #8
1000287a:	e47e      	b.n	1000217a <main+0xf72>
1000287c:	a94b      	add	r1, sp, #300	@ 0x12c
1000287e:	a864      	add	r0, sp, #400	@ 0x190
10002880:	f7fd fd98 	bl	100003b4 <_ZNSt8_Rb_treeIjjSt9_IdentityIjEN11flexbuffers7Builder16KeyOffsetCompareESaIjEE16_M_insert_uniqueIRKjEESt4pairISt17_Rb_tree_iteratorIjEbEOT_.isra.0>
10002884:	f7ff f952 	bl	10001b2c <main+0x924>
10002888:	0039      	movs	r1, r7
1000288a:	aa50      	add	r2, sp, #320	@ 0x140
1000288c:	a860      	add	r0, sp, #384	@ 0x180
1000288e:	f7fe f82d 	bl	100008ec <_ZNSt6vectorIN11flexbuffers7Builder5ValueESaIS2_EE17_M_realloc_insertIJRKS2_EEEvN9__gnu_cxx17__normal_iteratorIPS2_S4_EEDpOT_>
10002892:	9c60      	ldr	r4, [sp, #384]	@ 0x180
10002894:	f7ff fc0b 	bl	100020ae <main+0xea6>
10002898:	f003 fdd8 	bl	1000644c <__wrap___aeabi_d2f>
1000289c:	0029      	movs	r1, r5
1000289e:	9050      	str	r0, [sp, #320]	@ 0x140
100028a0:	ab51      	add	r3, sp, #324	@ 0x144
100028a2:	aa50      	add	r2, sp, #320	@ 0x140
100028a4:	a85d      	add	r0, sp, #372	@ 0x174
100028a6:	f7fd fdbb 	bl	10000420 <_ZNSt6vectorIhSaIhEE15_M_range_insertIPKhEEvN9__gnu_cxx17__normal_iteratorIPhS1_EET_S9_St20forward_iterator_tag.isra.0>
100028aa:	e466      	b.n	1000217a <main+0xf72>
100028ac:	f013 fcde 	bl	1001626c <__errno>
100028b0:	6006      	str	r6, [r0, #0]
100028b2:	f7fe ff2b 	bl	1000170c <main+0x504>
100028b6:	f013 fcd9 	bl	1001626c <__errno>
100028ba:	6007      	str	r7, [r0, #0]
100028bc:	e4e1      	b.n	10002282 <main+0x107a>
100028be:	6b2b      	ldr	r3, [r5, #48]	@ 0x30
100028c0:	781a      	ldrb	r2, [r3, #0]
100028c2:	2a74      	cmp	r2, #116	@ 0x74
100028c4:	d004      	beq.n	100028d0 <main+0x16c8>
100028c6:	2301      	movs	r3, #1
100028c8:	425a      	negs	r2, r3
100028ca:	415a      	adcs	r2, r3
100028cc:	9200      	str	r2, [sp, #0]
100028ce:	e628      	b.n	10002522 <main+0x131a>
100028d0:	785a      	ldrb	r2, [r3, #1]
100028d2:	2a72      	cmp	r2, #114	@ 0x72
100028d4:	d1f7      	bne.n	100028c6 <main+0x16be>
100028d6:	789a      	ldrb	r2, [r3, #2]
100028d8:	2a75      	cmp	r2, #117	@ 0x75
100028da:	d1f4      	bne.n	100028c6 <main+0x16be>
100028dc:	78db      	ldrb	r3, [r3, #3]
100028de:	2b65      	cmp	r3, #101	@ 0x65
100028e0:	d1f1      	bne.n	100028c6 <main+0x16be>
100028e2:	2300      	movs	r3, #0
100028e4:	e7f0      	b.n	100028c8 <main+0x16c0>
100028e6:	29ff      	cmp	r1, #255	@ 0xff
100028e8:	d908      	bls.n	100028fc <main+0x16f4>
100028ea:	2380      	movs	r3, #128	@ 0x80
100028ec:	2200      	movs	r2, #0
100028ee:	2000      	movs	r0, #0
100028f0:	025b      	lsls	r3, r3, #9
100028f2:	4299      	cmp	r1, r3
100028f4:	4142      	adcs	r2, r0
100028f6:	3201      	adds	r2, #1
100028f8:	f7fe ff85 	bl	10001806 <main+0x5fe>
100028fc:	2200      	movs	r2, #0
100028fe:	f7fe ff82 	bl	10001806 <main+0x5fe>
10002902:	6b3b      	ldr	r3, [r7, #48]	@ 0x30
10002904:	781a      	ldrb	r2, [r3, #0]
10002906:	2a74      	cmp	r2, #116	@ 0x74
10002908:	d004      	beq.n	10002914 <main+0x170c>
1000290a:	2301      	movs	r3, #1
1000290c:	425a      	negs	r2, r3
1000290e:	4153      	adcs	r3, r2
10002910:	b2db      	uxtb	r3, r3
10002912:	e6b1      	b.n	10002678 <main+0x1470>
10002914:	785a      	ldrb	r2, [r3, #1]
10002916:	2a72      	cmp	r2, #114	@ 0x72
10002918:	d1f7      	bne.n	1000290a <main+0x1702>
1000291a:	789a      	ldrb	r2, [r3, #2]
1000291c:	2a75      	cmp	r2, #117	@ 0x75
1000291e:	d1f4      	bne.n	1000290a <main+0x1702>
10002920:	78db      	ldrb	r3, [r3, #3]
10002922:	2b65      	cmp	r3, #101	@ 0x65
10002924:	d1f1      	bne.n	1000290a <main+0x1702>
10002926:	2300      	movs	r3, #0
10002928:	e7f0      	b.n	1000290c <main+0x1704>
1000292a:	0031      	movs	r1, r6
1000292c:	003a      	movs	r2, r7
1000292e:	a860      	add	r0, sp, #384	@ 0x180
10002930:	f7fe f932 	bl	10000b98 <_ZNSt6vectorIN11flexbuffers7Builder5ValueESaIS2_EE17_M_realloc_insertIJS2_EEEvN9__gnu_cxx17__normal_iteratorIPS2_S4_EEDpOT_>
10002934:	9c61      	ldr	r4, [sp, #388]	@ 0x184
10002936:	9e62      	ldr	r6, [sp, #392]	@ 0x188
10002938:	f7fe ff51 	bl	100017de <main+0x5d6>
1000293c:	9a00      	ldr	r2, [sp, #0]
1000293e:	a964      	add	r1, sp, #400	@ 0x190
10002940:	a84c      	add	r0, sp, #304	@ 0x130
10002942:	f7fd fce1 	bl	10000308 <_ZNSt8_Rb_treeIjjSt9_IdentityIjEN11flexbuffers7Builder16KeyOffsetCompareESaIjEE24_M_get_insert_unique_posERKj.isra.0>
10002946:	9c4d      	ldr	r4, [sp, #308]	@ 0x134
10002948:	2c00      	cmp	r4, #0
1000294a:	d101      	bne.n	10002950 <main+0x1748>
1000294c:	f7fe ff34 	bl	100017b8 <main+0x5b0>
10002950:	9b4c      	ldr	r3, [sp, #304]	@ 0x130
10002952:	2601      	movs	r6, #1
10002954:	2b00      	cmp	r3, #0
10002956:	d100      	bne.n	1000295a <main+0x1752>
10002958:	e0a5      	b.n	10002aa6 <main+0x189e>
1000295a:	2014      	movs	r0, #20
1000295c:	f004 fa2a 	bl	10006db4 <_Znwj>
10002960:	9b00      	ldr	r3, [sp, #0]
10002962:	0001      	movs	r1, r0
10002964:	6103      	str	r3, [r0, #16]
10002966:	0022      	movs	r2, r4
10002968:	ab65      	add	r3, sp, #404	@ 0x194
1000296a:	0030      	movs	r0, r6
1000296c:	f006 fe34 	bl	100095d8 <_ZSt29_Rb_tree_insert_and_rebalancebPSt18_Rb_tree_node_baseS0_RS_>
10002970:	9b69      	ldr	r3, [sp, #420]	@ 0x1a4
10002972:	3301      	adds	r3, #1
10002974:	9369      	str	r3, [sp, #420]	@ 0x1a4
10002976:	f7fe ff1f 	bl	100017b8 <main+0x5b0>
1000297a:	0031      	movs	r1, r6
1000297c:	003a      	movs	r2, r7
1000297e:	a860      	add	r0, sp, #384	@ 0x180
10002980:	f7fe f90a 	bl	10000b98 <_ZNSt6vectorIN11flexbuffers7Builder5ValueESaIS2_EE17_M_realloc_insertIJS2_EEEvN9__gnu_cxx17__normal_iteratorIPS2_S4_EEDpOT_>
10002984:	9c61      	ldr	r4, [sp, #388]	@ 0x184
10002986:	9e62      	ldr	r6, [sp, #392]	@ 0x188
10002988:	e629      	b.n	100025de <main+0x13d6>
1000298a:	1a41      	subs	r1, r0, r1
1000298c:	a85d      	add	r0, sp, #372	@ 0x174
1000298e:	f7fd ff33 	bl	100007f8 <_ZNSt6vectorIhSaIhEE17_M_default_appendEj>
10002992:	4653      	mov	r3, sl
10002994:	691b      	ldr	r3, [r3, #16]
10002996:	9300      	str	r3, [sp, #0]
10002998:	f7fe ff0e 	bl	100017b8 <main+0x5b0>
1000299c:	4642      	mov	r2, r8
1000299e:	a964      	add	r1, sp, #400	@ 0x190
100029a0:	a84e      	add	r0, sp, #312	@ 0x138
100029a2:	f7fd fcb1 	bl	10000308 <_ZNSt8_Rb_treeIjjSt9_IdentityIjEN11flexbuffers7Builder16KeyOffsetCompareESaIjEE24_M_get_insert_unique_posERKj.isra.0>
100029a6:	9c4f      	ldr	r4, [sp, #316]	@ 0x13c
100029a8:	2c00      	cmp	r4, #0
100029aa:	d100      	bne.n	100029ae <main+0x17a6>
100029ac:	e605      	b.n	100025ba <main+0x13b2>
100029ae:	9b4e      	ldr	r3, [sp, #312]	@ 0x138
100029b0:	2601      	movs	r6, #1
100029b2:	2b00      	cmp	r3, #0
100029b4:	d100      	bne.n	100029b8 <main+0x17b0>
100029b6:	e0ad      	b.n	10002b14 <main+0x190c>
100029b8:	2014      	movs	r0, #20
100029ba:	f004 f9fb 	bl	10006db4 <_Znwj>
100029be:	4643      	mov	r3, r8
100029c0:	0001      	movs	r1, r0
100029c2:	6103      	str	r3, [r0, #16]
100029c4:	0022      	movs	r2, r4
100029c6:	ab65      	add	r3, sp, #404	@ 0x194
100029c8:	0030      	movs	r0, r6
100029ca:	f006 fe05 	bl	100095d8 <_ZSt29_Rb_tree_insert_and_rebalancebPSt18_Rb_tree_node_baseS0_RS_>
100029ce:	9b69      	ldr	r3, [sp, #420]	@ 0x1a4
100029d0:	3301      	adds	r3, #1
100029d2:	9369      	str	r3, [sp, #420]	@ 0x1a4
100029d4:	e5f1      	b.n	100025ba <main+0x13b2>
100029d6:	4643      	mov	r3, r8
100029d8:	a85d      	add	r0, sp, #372	@ 0x174
100029da:	1a59      	subs	r1, r3, r1
100029dc:	f7fd ff0c 	bl	100007f8 <_ZNSt6vectorIhSaIhEE17_M_default_appendEj>
100029e0:	4653      	mov	r3, sl
100029e2:	691b      	ldr	r3, [r3, #16]
100029e4:	4698      	mov	r8, r3
100029e6:	e5e8      	b.n	100025ba <main+0x13b2>
100029e8:	0031      	movs	r1, r6
100029ea:	003a      	movs	r2, r7
100029ec:	a860      	add	r0, sp, #384	@ 0x180
100029ee:	f7fe f8d3 	bl	10000b98 <_ZNSt6vectorIN11flexbuffers7Builder5ValueESaIS2_EE17_M_realloc_insertIJS2_EEEvN9__gnu_cxx17__normal_iteratorIPS2_S4_EEDpOT_>
100029f2:	9c61      	ldr	r4, [sp, #388]	@ 0x184
100029f4:	9e62      	ldr	r6, [sp, #392]	@ 0x188
100029f6:	f7ff f961 	bl	10001cbc <main+0xab4>
100029fa:	1a71      	subs	r1, r6, r1
100029fc:	a85d      	add	r0, sp, #372	@ 0x174
100029fe:	f7fd fefb 	bl	100007f8 <_ZNSt6vectorIhSaIhEE17_M_default_appendEj>
10002a02:	4653      	mov	r3, sl
10002a04:	691c      	ldr	r4, [r3, #16]
10002a06:	f7ff f88f 	bl	10001b28 <main+0x920>
10002a0a:	a94b      	add	r1, sp, #300	@ 0x12c
10002a0c:	a864      	add	r0, sp, #400	@ 0x190
10002a0e:	f7fd fcd1 	bl	100003b4 <_ZNSt8_Rb_treeIjjSt9_IdentityIjEN11flexbuffers7Builder16KeyOffsetCompareESaIjEE16_M_insert_uniqueIRKjEESt4pairISt17_Rb_tree_iteratorIjEbEOT_.isra.0>
10002a12:	f7ff f941 	bl	10001c98 <main+0xa90>
10002a16:	2100      	movs	r1, #0
10002a18:	f7ff f99c 	bl	10001d54 <main+0xb4c>
10002a1c:	2304      	movs	r3, #4
10002a1e:	9307      	str	r3, [sp, #28]
10002a20:	f7fe ffb0 	bl	10001984 <main+0x77c>
10002a24:	1a71      	subs	r1, r6, r1
10002a26:	a85d      	add	r0, sp, #372	@ 0x174
10002a28:	f7fd fee6 	bl	100007f8 <_ZNSt6vectorIhSaIhEE17_M_default_appendEj>
10002a2c:	4653      	mov	r3, sl
10002a2e:	691c      	ldr	r4, [r3, #16]
10002a30:	f7ff f930 	bl	10001c94 <main+0xa8c>
10002a34:	2aff      	cmp	r2, #255	@ 0xff
10002a36:	d901      	bls.n	10002a3c <main+0x1834>
10002a38:	f7ff f9bf 	bl	10001dba <main+0xbb2>
10002a3c:	2300      	movs	r3, #0
10002a3e:	4699      	mov	r9, r3
10002a40:	f7ff f9e0 	bl	10001e04 <main+0xbfc>
10002a44:	2aff      	cmp	r2, #255	@ 0xff
10002a46:	d801      	bhi.n	10002a4c <main+0x1844>
10002a48:	f7ff f9c8 	bl	10001ddc <main+0xbd4>
10002a4c:	2380      	movs	r3, #128	@ 0x80
10002a4e:	025b      	lsls	r3, r3, #9
10002a50:	429e      	cmp	r6, r3
10002a52:	d301      	bcc.n	10002a58 <main+0x1850>
10002a54:	f7ff f9c2 	bl	10001ddc <main+0xbd4>
10002a58:	2301      	movs	r3, #1
10002a5a:	4699      	mov	r9, r3
10002a5c:	f7ff f9d2 	bl	10001e04 <main+0xbfc>
10002a60:	2eff      	cmp	r6, #255	@ 0xff
10002a62:	d901      	bls.n	10002a68 <main+0x1860>
10002a64:	f7ff fb3c 	bl	100020e0 <main+0xed8>
10002a68:	4690      	mov	r8, r2
10002a6a:	f7ff fb64 	bl	10002136 <main+0xf2e>
10002a6e:	2aff      	cmp	r2, #255	@ 0xff
10002a70:	d801      	bhi.n	10002a76 <main+0x186e>
10002a72:	f7ff f9c5 	bl	10001e00 <main+0xbf8>
10002a76:	2380      	movs	r3, #128	@ 0x80
10002a78:	2202      	movs	r2, #2
10002a7a:	025b      	lsls	r3, r3, #9
10002a7c:	4691      	mov	r9, r2
10002a7e:	429e      	cmp	r6, r3
10002a80:	d301      	bcc.n	10002a86 <main+0x187e>
10002a82:	f7ff f9bf 	bl	10001e04 <main+0xbfc>
10002a86:	f7ff f9bb 	bl	10001e00 <main+0xbf8>
10002a8a:	2eff      	cmp	r6, #255	@ 0xff
10002a8c:	d801      	bhi.n	10002a92 <main+0x188a>
10002a8e:	f7ff fb34 	bl	100020fa <main+0xef2>
10002a92:	2280      	movs	r2, #128	@ 0x80
10002a94:	0252      	lsls	r2, r2, #9
10002a96:	4296      	cmp	r6, r2
10002a98:	d301      	bcc.n	10002a9e <main+0x1896>
10002a9a:	f7ff fb2e 	bl	100020fa <main+0xef2>
10002a9e:	2202      	movs	r2, #2
10002aa0:	4690      	mov	r8, r2
10002aa2:	f7ff fb48 	bl	10002136 <main+0xf2e>
10002aa6:	ab65      	add	r3, sp, #404	@ 0x194
10002aa8:	429c      	cmp	r4, r3
10002aaa:	d100      	bne.n	10002aae <main+0x18a6>
10002aac:	e755      	b.n	1000295a <main+0x1752>
10002aae:	9b64      	ldr	r3, [sp, #400]	@ 0x190
10002ab0:	6921      	ldr	r1, [r4, #16]
10002ab2:	6818      	ldr	r0, [r3, #0]
10002ab4:	9b00      	ldr	r3, [sp, #0]
10002ab6:	1841      	adds	r1, r0, r1
10002ab8:	469c      	mov	ip, r3
10002aba:	4460      	add	r0, ip
10002abc:	f013 fbea 	bl	10016294 <strcmp>
10002ac0:	0fc6      	lsrs	r6, r0, #31
10002ac2:	e74a      	b.n	1000295a <main+0x1752>
10002ac4:	2eff      	cmp	r6, #255	@ 0xff
10002ac6:	d801      	bhi.n	10002acc <main+0x18c4>
10002ac8:	f7ff fb25 	bl	10002116 <main+0xf0e>
10002acc:	2280      	movs	r2, #128	@ 0x80
10002ace:	0252      	lsls	r2, r2, #9
10002ad0:	4694      	mov	ip, r2
10002ad2:	2204      	movs	r2, #4
10002ad4:	4690      	mov	r8, r2
10002ad6:	4566      	cmp	r6, ip
10002ad8:	d301      	bcc.n	10002ade <main+0x18d6>
10002ada:	f7ff fb2c 	bl	10002136 <main+0xf2e>
10002ade:	f7ff fb1a 	bl	10002116 <main+0xf0e>
10002ae2:	2300      	movs	r3, #0
10002ae4:	a84a      	add	r0, sp, #296	@ 0x128
10002ae6:	7603      	strb	r3, [r0, #24]
10002ae8:	ab50      	add	r3, sp, #320	@ 0x140
10002aea:	a85d      	add	r0, sp, #372	@ 0x174
10002aec:	f7fd ff80 	bl	100009f0 <_ZNSt6vectorIhSaIhEE14_M_fill_insertEN9__gnu_cxx17__normal_iteratorIPhS1_EEjRKh>
10002af0:	9a60      	ldr	r2, [sp, #384]	@ 0x180
10002af2:	2408      	movs	r4, #8
10002af4:	7a13      	ldrb	r3, [r2, #8]
10002af6:	2b03      	cmp	r3, #3
10002af8:	d001      	beq.n	10002afe <main+0x18f6>
10002afa:	f7ff fb2d 	bl	10002158 <main+0xf50>
10002afe:	6810      	ldr	r0, [r2, #0]
10002b00:	6851      	ldr	r1, [r2, #4]
10002b02:	9d5e      	ldr	r5, [sp, #376]	@ 0x178
10002b04:	e6b0      	b.n	10002868 <main+0x1660>
10002b06:	f006 fe29 	bl	1000975c <_ZSt17__throw_bad_allocv>
10002b0a:	4817      	ldr	r0, [pc, #92]	@ (10002b68 <main+0x1960>)
10002b0c:	f006 fd26 	bl	1000955c <_Z11MicroPrintfPKcz>
10002b10:	f7fe fbb6 	bl	10001280 <main+0x78>
10002b14:	ab65      	add	r3, sp, #404	@ 0x194
10002b16:	429c      	cmp	r4, r3
10002b18:	d100      	bne.n	10002b1c <main+0x1914>
10002b1a:	e74d      	b.n	100029b8 <main+0x17b0>
10002b1c:	9b64      	ldr	r3, [sp, #400]	@ 0x190
10002b1e:	6921      	ldr	r1, [r4, #16]
10002b20:	6818      	ldr	r0, [r3, #0]
10002b22:	1841      	adds	r1, r0, r1
10002b24:	4440      	add	r0, r8
10002b26:	f013 fbb5 	bl	10016294 <strcmp>
10002b2a:	0fc6      	lsrs	r6, r0, #31
10002b2c:	e744      	b.n	100029b8 <main+0x17b0>
10002b2e:	2c01      	cmp	r4, #1
10002b30:	d001      	beq.n	10002b36 <main+0x192e>
10002b32:	f7ff fb59 	bl	100021e8 <main+0xfe0>
10002b36:	780b      	ldrb	r3, [r1, #0]
10002b38:	7003      	strb	r3, [r0, #0]
10002b3a:	f7ff fb55 	bl	100021e8 <main+0xfe0>
10002b3e:	480b      	ldr	r0, [pc, #44]	@ (10002b6c <main+0x1964>)
10002b40:	f006 fe64 	bl	1000980c <_ZSt20__throw_out_of_rangePKc>
10002b44:	4809      	ldr	r0, [pc, #36]	@ (10002b6c <main+0x1964>)
10002b46:	f006 fe31 	bl	100097ac <_ZSt24__throw_invalid_argumentPKc>
10002b4a:	4809      	ldr	r0, [pc, #36]	@ (10002b70 <main+0x1968>)
10002b4c:	f006 fe5e 	bl	1000980c <_ZSt20__throw_out_of_rangePKc>
10002b50:	4807      	ldr	r0, [pc, #28]	@ (10002b70 <main+0x1968>)
10002b52:	f006 fe2b 	bl	100097ac <_ZSt24__throw_invalid_argumentPKc>
10002b56:	4807      	ldr	r0, [pc, #28]	@ (10002b74 <main+0x196c>)
10002b58:	f006 fe58 	bl	1000980c <_ZSt20__throw_out_of_rangePKc>
10002b5c:	4805      	ldr	r0, [pc, #20]	@ (10002b74 <main+0x196c>)
10002b5e:	f006 fe25 	bl	100097ac <_ZSt24__throw_invalid_argumentPKc>
10002b62:	4805      	ldr	r0, [pc, #20]	@ (10002b78 <main+0x1970>)
10002b64:	f006 fe3a 	bl	100097dc <_ZSt20__throw_length_errorPKc>
10002b68:	100199a8 	.word	0x100199a8
10002b6c:	100197e0 	.word	0x100197e0
10002b70:	100197f8 	.word	0x100197f8
10002b74:	10019800 	.word	0x10019800
10002b78:	1001970c 	.word	0x1001970c

10002b7c <running_on_fpga>:
10002b7c:	4b02      	ldr	r3, [pc, #8]	@ (10002b88 <running_on_fpga+0xc>)
10002b7e:	6818      	ldr	r0, [r3, #0]
10002b80:	0780      	lsls	r0, r0, #30
10002b82:	0fc0      	lsrs	r0, r0, #31
10002b84:	4770      	bx	lr
10002b86:	46c0      	nop			@ (mov r8, r8)
10002b88:	4006c000 	.word	0x4006c000

10002b8c <hw_claim_or_assert>:
10002b8c:	b570      	push	{r4, r5, r6, lr}
10002b8e:	f3ef 8c10 	mrs	ip, PRIMASK
10002b92:	b672      	cpsid	i
10002b94:	4d0d      	ldr	r5, [pc, #52]	@ (10002bcc <hw_claim_or_assert+0x40>)
10002b96:	682b      	ldr	r3, [r5, #0]
10002b98:	2b00      	cmp	r3, #0
10002b9a:	d0fc      	beq.n	10002b96 <hw_claim_or_assert+0xa>
10002b9c:	f3bf 8f5f 	dmb	sy
10002ba0:	2407      	movs	r4, #7
10002ba2:	08cb      	lsrs	r3, r1, #3
10002ba4:	18c6      	adds	r6, r0, r3
10002ba6:	5cc0      	ldrb	r0, [r0, r3]
10002ba8:	2301      	movs	r3, #1
10002baa:	400c      	ands	r4, r1
10002bac:	40a3      	lsls	r3, r4
10002bae:	001c      	movs	r4, r3
10002bb0:	4004      	ands	r4, r0
10002bb2:	4203      	tst	r3, r0
10002bb4:	d107      	bne.n	10002bc6 <hw_claim_or_assert+0x3a>
10002bb6:	4318      	orrs	r0, r3
10002bb8:	7030      	strb	r0, [r6, #0]
10002bba:	f3bf 8f5f 	dmb	sy
10002bbe:	602c      	str	r4, [r5, #0]
10002bc0:	f38c 8810 	msr	PRIMASK, ip
10002bc4:	bd70      	pop	{r4, r5, r6, pc}
10002bc6:	0010      	movs	r0, r2
10002bc8:	f001 fc86 	bl	100044d8 <panic>
10002bcc:	d000012c 	.word	0xd000012c

10002bd0 <hw_claim_unused_from_range>:
10002bd0:	b5f8      	push	{r3, r4, r5, r6, r7, lr}
10002bd2:	4647      	mov	r7, r8
10002bd4:	46ce      	mov	lr, r9
10002bd6:	4688      	mov	r8, r1
10002bd8:	b580      	push	{r7, lr}
10002bda:	f3ef 8c10 	mrs	ip, PRIMASK
10002bde:	b672      	cpsid	i
10002be0:	4d21      	ldr	r5, [pc, #132]	@ (10002c68 <hw_claim_unused_from_range+0x98>)
10002be2:	682c      	ldr	r4, [r5, #0]
10002be4:	2c00      	cmp	r4, #0
10002be6:	d0fc      	beq.n	10002be2 <hw_claim_unused_from_range+0x12>
10002be8:	f3bf 8f5f 	dmb	sy
10002bec:	429a      	cmp	r2, r3
10002bee:	d82c      	bhi.n	10002c4a <hw_claim_unused_from_range+0x7a>
10002bf0:	08d4      	lsrs	r4, r2, #3
10002bf2:	2707      	movs	r7, #7
10002bf4:	5d05      	ldrb	r5, [r0, r4]
10002bf6:	1906      	adds	r6, r0, r4
10002bf8:	2401      	movs	r4, #1
10002bfa:	4017      	ands	r7, r2
10002bfc:	40bc      	lsls	r4, r7
10002bfe:	422c      	tst	r4, r5
10002c00:	d01f      	beq.n	10002c42 <hw_claim_unused_from_range+0x72>
10002c02:	2107      	movs	r1, #7
10002c04:	2701      	movs	r7, #1
10002c06:	4689      	mov	r9, r1
10002c08:	e009      	b.n	10002c1e <hw_claim_unused_from_range+0x4e>
10002c0a:	08d4      	lsrs	r4, r2, #3
10002c0c:	5d05      	ldrb	r5, [r0, r4]
10002c0e:	1906      	adds	r6, r0, r4
10002c10:	464c      	mov	r4, r9
10002c12:	0039      	movs	r1, r7
10002c14:	4014      	ands	r4, r2
10002c16:	40a1      	lsls	r1, r4
10002c18:	000c      	movs	r4, r1
10002c1a:	4229      	tst	r1, r5
10002c1c:	d011      	beq.n	10002c42 <hw_claim_unused_from_range+0x72>
10002c1e:	3201      	adds	r2, #1
10002c20:	4293      	cmp	r3, r2
10002c22:	d2f2      	bcs.n	10002c0a <hw_claim_unused_from_range+0x3a>
10002c24:	2001      	movs	r0, #1
10002c26:	4240      	negs	r0, r0
10002c28:	f3bf 8f5f 	dmb	sy
10002c2c:	2200      	movs	r2, #0
10002c2e:	4b0e      	ldr	r3, [pc, #56]	@ (10002c68 <hw_claim_unused_from_range+0x98>)
10002c30:	601a      	str	r2, [r3, #0]
10002c32:	f38c 8810 	msr	PRIMASK, ip
10002c36:	2800      	cmp	r0, #0
10002c38:	db0f      	blt.n	10002c5a <hw_claim_unused_from_range+0x8a>
10002c3a:	bcc0      	pop	{r6, r7}
10002c3c:	46b9      	mov	r9, r7
10002c3e:	46b0      	mov	r8, r6
10002c40:	bdf8      	pop	{r3, r4, r5, r6, r7, pc}
10002c42:	4325      	orrs	r5, r4
10002c44:	0010      	movs	r0, r2
10002c46:	7035      	strb	r5, [r6, #0]
10002c48:	e7ee      	b.n	10002c28 <hw_claim_unused_from_range+0x58>
10002c4a:	f3bf 8f5f 	dmb	sy
10002c4e:	2300      	movs	r3, #0
10002c50:	602b      	str	r3, [r5, #0]
10002c52:	f38c 8810 	msr	PRIMASK, ip
10002c56:	2001      	movs	r0, #1
10002c58:	4240      	negs	r0, r0
10002c5a:	4643      	mov	r3, r8
10002c5c:	2b00      	cmp	r3, #0
10002c5e:	d0ec      	beq.n	10002c3a <hw_claim_unused_from_range+0x6a>
10002c60:	9808      	ldr	r0, [sp, #32]
10002c62:	f001 fc39 	bl	100044d8 <panic>
10002c66:	46c0      	nop			@ (mov r8, r8)
10002c68:	d000012c 	.word	0xd000012c

10002c6c <spin_locks_reset>:
10002c6c:	2100      	movs	r1, #0
10002c6e:	4b04      	ldr	r3, [pc, #16]	@ (10002c80 <spin_locks_reset+0x14>)
10002c70:	4a04      	ldr	r2, [pc, #16]	@ (10002c84 <spin_locks_reset+0x18>)
10002c72:	f3bf 8f5f 	dmb	sy
10002c76:	c302      	stmia	r3!, {r1}
10002c78:	4293      	cmp	r3, r2
10002c7a:	d1fa      	bne.n	10002c72 <spin_locks_reset+0x6>
10002c7c:	4770      	bx	lr
10002c7e:	46c0      	nop			@ (mov r8, r8)
10002c80:	d0000100 	.word	0xd0000100
10002c84:	d0000180 	.word	0xd0000180

10002c88 <next_striped_spin_lock_num>:
10002c88:	4a04      	ldr	r2, [pc, #16]	@ (10002c9c <next_striped_spin_lock_num+0x14>)
10002c8a:	7810      	ldrb	r0, [r2, #0]
10002c8c:	1c43      	adds	r3, r0, #1
10002c8e:	b2db      	uxtb	r3, r3
10002c90:	2b17      	cmp	r3, #23
10002c92:	d900      	bls.n	10002c96 <next_striped_spin_lock_num+0xe>
10002c94:	2310      	movs	r3, #16
10002c96:	7013      	strb	r3, [r2, #0]
10002c98:	4770      	bx	lr
10002c9a:	46c0      	nop			@ (mov r8, r8)
10002c9c:	20001dd4 	.word	0x20001dd4

10002ca0 <spin_lock_claim_unused>:
10002ca0:	b510      	push	{r4, lr}
10002ca2:	4b06      	ldr	r3, [pc, #24]	@ (10002cbc <spin_lock_claim_unused+0x1c>)
10002ca4:	4c06      	ldr	r4, [pc, #24]	@ (10002cc0 <spin_lock_claim_unused+0x20>)
10002ca6:	b082      	sub	sp, #8
10002ca8:	0001      	movs	r1, r0
10002caa:	9300      	str	r3, [sp, #0]
10002cac:	2218      	movs	r2, #24
10002cae:	231f      	movs	r3, #31
10002cb0:	0020      	movs	r0, r4
10002cb2:	f7ff ff8d 	bl	10002bd0 <hw_claim_unused_from_range>
10002cb6:	b002      	add	sp, #8
10002cb8:	bd10      	pop	{r4, pc}
10002cba:	46c0      	nop			@ (mov r8, r8)
10002cbc:	100199c4 	.word	0x100199c4
10002cc0:	20002ff4 	.word	0x20002ff4

10002cc4 <irq_set_enabled>:
10002cc4:	2301      	movs	r3, #1
10002cc6:	4083      	lsls	r3, r0
10002cc8:	2900      	cmp	r1, #0
10002cca:	d004      	beq.n	10002cd6 <irq_set_enabled+0x12>
10002ccc:	4a03      	ldr	r2, [pc, #12]	@ (10002cdc <irq_set_enabled+0x18>)
10002cce:	6013      	str	r3, [r2, #0]
10002cd0:	4a03      	ldr	r2, [pc, #12]	@ (10002ce0 <irq_set_enabled+0x1c>)
10002cd2:	6013      	str	r3, [r2, #0]
10002cd4:	4770      	bx	lr
10002cd6:	4a03      	ldr	r2, [pc, #12]	@ (10002ce4 <irq_set_enabled+0x20>)
10002cd8:	6013      	str	r3, [r2, #0]
10002cda:	e7fb      	b.n	10002cd4 <irq_set_enabled+0x10>
10002cdc:	e000e280 	.word	0xe000e280
10002ce0:	e000e100 	.word	0xe000e100
10002ce4:	e000e180 	.word	0xe000e180

10002ce8 <irq_set_pending>:
10002ce8:	2301      	movs	r3, #1
10002cea:	4083      	lsls	r3, r0
10002cec:	4a01      	ldr	r2, [pc, #4]	@ (10002cf4 <irq_set_pending+0xc>)
10002cee:	6013      	str	r3, [r2, #0]
10002cf0:	4770      	bx	lr
10002cf2:	46c0      	nop			@ (mov r8, r8)
10002cf4:	e000e200 	.word	0xe000e200

10002cf8 <irq_has_shared_handler>:
10002cf8:	4b08      	ldr	r3, [pc, #32]	@ (10002d1c <irq_has_shared_handler+0x24>)
10002cfa:	3010      	adds	r0, #16
10002cfc:	689b      	ldr	r3, [r3, #8]
10002cfe:	0080      	lsls	r0, r0, #2
10002d00:	58c3      	ldr	r3, [r0, r3]
10002d02:	2b00      	cmp	r3, #0
10002d04:	d007      	beq.n	10002d16 <irq_has_shared_handler+0x1e>
10002d06:	4a06      	ldr	r2, [pc, #24]	@ (10002d20 <irq_has_shared_handler+0x28>)
10002d08:	2000      	movs	r0, #0
10002d0a:	1a9b      	subs	r3, r3, r2
10002d0c:	222f      	movs	r2, #47	@ 0x2f
10002d0e:	429a      	cmp	r2, r3
10002d10:	4140      	adcs	r0, r0
10002d12:	b2c0      	uxtb	r0, r0
10002d14:	4770      	bx	lr
10002d16:	2000      	movs	r0, #0
10002d18:	e7fc      	b.n	10002d14 <irq_has_shared_handler+0x1c>
10002d1a:	46c0      	nop			@ (mov r8, r8)
10002d1c:	e000ed00 	.word	0xe000ed00
10002d20:	20001dd8 	.word	0x20001dd8

10002d24 <irq_get_vtable_handler>:
10002d24:	4b02      	ldr	r3, [pc, #8]	@ (10002d30 <irq_get_vtable_handler+0xc>)
10002d26:	3010      	adds	r0, #16
10002d28:	689b      	ldr	r3, [r3, #8]
10002d2a:	0080      	lsls	r0, r0, #2
10002d2c:	58c0      	ldr	r0, [r0, r3]
10002d2e:	4770      	bx	lr
10002d30:	e000ed00 	.word	0xe000ed00

10002d34 <irq_set_exclusive_handler>:
10002d34:	b570      	push	{r4, r5, r6, lr}
10002d36:	000d      	movs	r5, r1
10002d38:	f3ef 8610 	mrs	r6, PRIMASK
10002d3c:	b672      	cpsid	i
10002d3e:	4a0f      	ldr	r2, [pc, #60]	@ (10002d7c <irq_set_exclusive_handler+0x48>)
10002d40:	6813      	ldr	r3, [r2, #0]
10002d42:	2b00      	cmp	r3, #0
10002d44:	d0fc      	beq.n	10002d40 <irq_set_exclusive_handler+0xc>
10002d46:	f3bf 8f5f 	dmb	sy
10002d4a:	4b0d      	ldr	r3, [pc, #52]	@ (10002d80 <irq_set_exclusive_handler+0x4c>)
10002d4c:	3010      	adds	r0, #16
10002d4e:	689b      	ldr	r3, [r3, #8]
10002d50:	0084      	lsls	r4, r0, #2
10002d52:	591b      	ldr	r3, [r3, r4]
10002d54:	4a0b      	ldr	r2, [pc, #44]	@ (10002d84 <irq_set_exclusive_handler+0x50>)
10002d56:	4293      	cmp	r3, r2
10002d58:	d003      	beq.n	10002d62 <irq_set_exclusive_handler+0x2e>
10002d5a:	429d      	cmp	r5, r3
10002d5c:	d001      	beq.n	10002d62 <irq_set_exclusive_handler+0x2e>
10002d5e:	f001 fbd3 	bl	10004508 <hard_assertion_failure>
10002d62:	4b07      	ldr	r3, [pc, #28]	@ (10002d80 <irq_set_exclusive_handler+0x4c>)
10002d64:	689b      	ldr	r3, [r3, #8]
10002d66:	511d      	str	r5, [r3, r4]
10002d68:	f3bf 8f5f 	dmb	sy
10002d6c:	f3bf 8f5f 	dmb	sy
10002d70:	2200      	movs	r2, #0
10002d72:	4b02      	ldr	r3, [pc, #8]	@ (10002d7c <irq_set_exclusive_handler+0x48>)
10002d74:	601a      	str	r2, [r3, #0]
10002d76:	f386 8810 	msr	PRIMASK, r6
10002d7a:	bd70      	pop	{r4, r5, r6, pc}
10002d7c:	d0000124 	.word	0xd0000124
10002d80:	e000ed00 	.word	0xe000ed00
10002d84:	100001cd 	.word	0x100001cd

10002d88 <irq_add_shared_handler>:
10002d88:	b5f0      	push	{r4, r5, r6, r7, lr}
10002d8a:	4657      	mov	r7, sl
10002d8c:	464e      	mov	r6, r9
10002d8e:	46de      	mov	lr, fp
10002d90:	4645      	mov	r5, r8
10002d92:	b5e0      	push	{r5, r6, r7, lr}
10002d94:	b085      	sub	sp, #20
10002d96:	0006      	movs	r6, r0
10002d98:	9100      	str	r1, [sp, #0]
10002d9a:	0017      	movs	r7, r2
10002d9c:	f3ef 8b10 	mrs	fp, PRIMASK
10002da0:	b672      	cpsid	i
10002da2:	4a6a      	ldr	r2, [pc, #424]	@ (10002f4c <irq_add_shared_handler+0x1c4>)
10002da4:	6813      	ldr	r3, [r2, #0]
10002da6:	2b00      	cmp	r3, #0
10002da8:	d0fc      	beq.n	10002da4 <irq_add_shared_handler+0x1c>
10002daa:	f3bf 8f5f 	dmb	sy
10002dae:	2500      	movs	r5, #0
10002db0:	4b67      	ldr	r3, [pc, #412]	@ (10002f50 <irq_add_shared_handler+0x1c8>)
10002db2:	575d      	ldrsb	r5, [r3, r5]
10002db4:	469a      	mov	sl, r3
10002db6:	2d00      	cmp	r5, #0
10002db8:	da00      	bge.n	10002dbc <irq_add_shared_handler+0x34>
10002dba:	e0a9      	b.n	10002f10 <irq_add_shared_handler+0x188>
10002dbc:	006b      	lsls	r3, r5, #1
10002dbe:	4c65      	ldr	r4, [pc, #404]	@ (10002f54 <irq_add_shared_handler+0x1cc>)
10002dc0:	9301      	str	r3, [sp, #4]
10002dc2:	195b      	adds	r3, r3, r5
10002dc4:	009b      	lsls	r3, r3, #2
10002dc6:	4698      	mov	r8, r3
10002dc8:	46a1      	mov	r9, r4
10002dca:	44c1      	add	r9, r8
10002dcc:	464b      	mov	r3, r9
10002dce:	4652      	mov	r2, sl
10002dd0:	799b      	ldrb	r3, [r3, #6]
10002dd2:	3610      	adds	r6, #16
10002dd4:	7013      	strb	r3, [r2, #0]
10002dd6:	4b60      	ldr	r3, [pc, #384]	@ (10002f58 <irq_add_shared_handler+0x1d0>)
10002dd8:	00b6      	lsls	r6, r6, #2
10002dda:	689b      	ldr	r3, [r3, #8]
10002ddc:	5999      	ldr	r1, [r3, r6]
10002dde:	1b0b      	subs	r3, r1, r4
10002de0:	2b2f      	cmp	r3, #47	@ 0x2f
10002de2:	d933      	bls.n	10002e4c <irq_add_shared_handler+0xc4>
10002de4:	4b5d      	ldr	r3, [pc, #372]	@ (10002f5c <irq_add_shared_handler+0x1d4>)
10002de6:	4299      	cmp	r1, r3
10002de8:	d000      	beq.n	10002dec <irq_add_shared_handler+0x64>
10002dea:	e0ac      	b.n	10002f46 <irq_add_shared_handler+0x1be>
10002dec:	9b01      	ldr	r3, [sp, #4]
10002dee:	4642      	mov	r2, r8
10002df0:	469c      	mov	ip, r3
10002df2:	4b5b      	ldr	r3, [pc, #364]	@ (10002f60 <irq_add_shared_handler+0x1d8>)
10002df4:	4465      	add	r5, ip
10002df6:	00ad      	lsls	r5, r5, #2
10002df8:	5363      	strh	r3, [r4, r5]
10002dfa:	4b5a      	ldr	r3, [pc, #360]	@ (10002f64 <irq_add_shared_handler+0x1dc>)
10002dfc:	3202      	adds	r2, #2
10002dfe:	18a2      	adds	r2, r4, r2
10002e00:	3b04      	subs	r3, #4
10002e02:	1a9b      	subs	r3, r3, r2
10002e04:	051b      	lsls	r3, r3, #20
10002e06:	4a58      	ldr	r2, [pc, #352]	@ (10002f68 <irq_add_shared_handler+0x1e0>)
10002e08:	0d5b      	lsrs	r3, r3, #21
10002e0a:	1965      	adds	r5, r4, r5
10002e0c:	4313      	orrs	r3, r2
10002e0e:	806b      	strh	r3, [r5, #2]
10002e10:	4b56      	ldr	r3, [pc, #344]	@ (10002f6c <irq_add_shared_handler+0x1e4>)
10002e12:	2101      	movs	r1, #1
10002e14:	80ab      	strh	r3, [r5, #4]
10002e16:	23ff      	movs	r3, #255	@ 0xff
10002e18:	71ab      	strb	r3, [r5, #6]
10002e1a:	9b00      	ldr	r3, [sp, #0]
10002e1c:	71ef      	strb	r7, [r5, #7]
10002e1e:	60ab      	str	r3, [r5, #8]
10002e20:	464b      	mov	r3, r9
10002e22:	430b      	orrs	r3, r1
10002e24:	0019      	movs	r1, r3
10002e26:	4b4c      	ldr	r3, [pc, #304]	@ (10002f58 <irq_add_shared_handler+0x1d0>)
10002e28:	689b      	ldr	r3, [r3, #8]
10002e2a:	5199      	str	r1, [r3, r6]
10002e2c:	f3bf 8f5f 	dmb	sy
10002e30:	f3bf 8f5f 	dmb	sy
10002e34:	2200      	movs	r2, #0
10002e36:	4b45      	ldr	r3, [pc, #276]	@ (10002f4c <irq_add_shared_handler+0x1c4>)
10002e38:	601a      	str	r2, [r3, #0]
10002e3a:	f38b 8810 	msr	PRIMASK, fp
10002e3e:	b005      	add	sp, #20
10002e40:	bcf0      	pop	{r4, r5, r6, r7}
10002e42:	46bb      	mov	fp, r7
10002e44:	46b2      	mov	sl, r6
10002e46:	46a9      	mov	r9, r5
10002e48:	46a0      	mov	r8, r4
10002e4a:	bdf0      	pop	{r4, r5, r6, r7, pc}
10002e4c:	2001      	movs	r0, #1
10002e4e:	000a      	movs	r2, r1
10002e50:	4382      	bics	r2, r0
10002e52:	79d3      	ldrb	r3, [r2, #7]
10002e54:	468c      	mov	ip, r1
10002e56:	42bb      	cmp	r3, r7
10002e58:	d831      	bhi.n	10002ebe <irq_add_shared_handler+0x136>
10002e5a:	4645      	mov	r5, r8
10002e5c:	0013      	movs	r3, r2
10002e5e:	4944      	ldr	r1, [pc, #272]	@ (10002f70 <irq_add_shared_handler+0x1e8>)
10002e60:	1b1b      	subs	r3, r3, r4
10002e62:	415b      	adcs	r3, r3
10002e64:	4359      	muls	r1, r3
10002e66:	0d09      	lsrs	r1, r1, #20
10002e68:	4b3d      	ldr	r3, [pc, #244]	@ (10002f60 <irq_add_shared_handler+0x1d8>)
10002e6a:	5363      	strh	r3, [r4, r5]
10002e6c:	4b3d      	ldr	r3, [pc, #244]	@ (10002f64 <irq_add_shared_handler+0x1dc>)
10002e6e:	3502      	adds	r5, #2
10002e70:	1965      	adds	r5, r4, r5
10002e72:	3b04      	subs	r3, #4
10002e74:	1b5b      	subs	r3, r3, r5
10002e76:	051b      	lsls	r3, r3, #20
10002e78:	4d3b      	ldr	r5, [pc, #236]	@ (10002f68 <irq_add_shared_handler+0x1e0>)
10002e7a:	0d5b      	lsrs	r3, r3, #21
10002e7c:	432b      	orrs	r3, r5
10002e7e:	46aa      	mov	sl, r5
10002e80:	464d      	mov	r5, r9
10002e82:	806b      	strh	r3, [r5, #2]
10002e84:	2504      	movs	r5, #4
10002e86:	46ac      	mov	ip, r5
10002e88:	4655      	mov	r5, sl
10002e8a:	44e0      	add	r8, ip
10002e8c:	1f13      	subs	r3, r2, #4
10002e8e:	4444      	add	r4, r8
10002e90:	1b1b      	subs	r3, r3, r4
10002e92:	051b      	lsls	r3, r3, #20
10002e94:	0d5b      	lsrs	r3, r3, #21
10002e96:	431d      	orrs	r5, r3
10002e98:	464b      	mov	r3, r9
10002e9a:	7199      	strb	r1, [r3, #6]
10002e9c:	9900      	ldr	r1, [sp, #0]
10002e9e:	809d      	strh	r5, [r3, #4]
10002ea0:	6099      	str	r1, [r3, #8]
10002ea2:	4649      	mov	r1, r9
10002ea4:	71df      	strb	r7, [r3, #7]
10002ea6:	4b33      	ldr	r3, [pc, #204]	@ (10002f74 <irq_add_shared_handler+0x1ec>)
10002ea8:	4301      	orrs	r1, r0
10002eaa:	6013      	str	r3, [r2, #0]
10002eac:	e7bb      	b.n	10002e26 <irq_add_shared_handler+0x9e>
10002eae:	0058      	lsls	r0, r3, #1
10002eb0:	18c0      	adds	r0, r0, r3
10002eb2:	0080      	lsls	r0, r0, #2
10002eb4:	1820      	adds	r0, r4, r0
10002eb6:	79c1      	ldrb	r1, [r0, #7]
10002eb8:	42b9      	cmp	r1, r7
10002eba:	d92f      	bls.n	10002f1c <irq_add_shared_handler+0x194>
10002ebc:	0002      	movs	r2, r0
10002ebe:	2306      	movs	r3, #6
10002ec0:	56d3      	ldrsb	r3, [r2, r3]
10002ec2:	2b00      	cmp	r3, #0
10002ec4:	daf3      	bge.n	10002eae <irq_add_shared_handler+0x126>
10002ec6:	9302      	str	r3, [sp, #8]
10002ec8:	4b2b      	ldr	r3, [pc, #172]	@ (10002f78 <irq_add_shared_handler+0x1f0>)
10002eca:	4661      	mov	r1, ip
10002ecc:	9303      	str	r3, [sp, #12]
10002ece:	1d13      	adds	r3, r2, #4
10002ed0:	469a      	mov	sl, r3
10002ed2:	2304      	movs	r3, #4
10002ed4:	425b      	negs	r3, r3
10002ed6:	469c      	mov	ip, r3
10002ed8:	44e1      	add	r9, ip
10002eda:	4650      	mov	r0, sl
10002edc:	464b      	mov	r3, r9
10002ede:	1a1b      	subs	r3, r3, r0
10002ee0:	051b      	lsls	r3, r3, #20
10002ee2:	0d5b      	lsrs	r3, r3, #21
10002ee4:	469c      	mov	ip, r3
10002ee6:	4b20      	ldr	r3, [pc, #128]	@ (10002f68 <irq_add_shared_handler+0x1e0>)
10002ee8:	7195      	strb	r5, [r2, #6]
10002eea:	4698      	mov	r8, r3
10002eec:	4663      	mov	r3, ip
10002eee:	4640      	mov	r0, r8
10002ef0:	4303      	orrs	r3, r0
10002ef2:	8093      	strh	r3, [r2, #4]
10002ef4:	9b01      	ldr	r3, [sp, #4]
10002ef6:	195a      	adds	r2, r3, r5
10002ef8:	0092      	lsls	r2, r2, #2
10002efa:	9b03      	ldr	r3, [sp, #12]
10002efc:	18a4      	adds	r4, r4, r2
10002efe:	80a3      	strh	r3, [r4, #4]
10002f00:	9b02      	ldr	r3, [sp, #8]
10002f02:	4a1c      	ldr	r2, [pc, #112]	@ (10002f74 <irq_add_shared_handler+0x1ec>)
10002f04:	71a3      	strb	r3, [r4, #6]
10002f06:	9b00      	ldr	r3, [sp, #0]
10002f08:	6022      	str	r2, [r4, #0]
10002f0a:	71e7      	strb	r7, [r4, #7]
10002f0c:	60a3      	str	r3, [r4, #8]
10002f0e:	e78a      	b.n	10002e26 <irq_add_shared_handler+0x9e>
10002f10:	f001 fafa 	bl	10004508 <hard_assertion_failure>
10002f14:	2500      	movs	r5, #0
10002f16:	4653      	mov	r3, sl
10002f18:	575d      	ldrsb	r5, [r3, r5]
10002f1a:	e74f      	b.n	10002dbc <irq_add_shared_handler+0x34>
10002f1c:	8890      	ldrh	r0, [r2, #4]
10002f1e:	9302      	str	r3, [sp, #8]
10002f20:	0540      	lsls	r0, r0, #21
10002f22:	1d13      	adds	r3, r2, #4
10002f24:	469a      	mov	sl, r3
10002f26:	1503      	asrs	r3, r0, #20
10002f28:	4661      	mov	r1, ip
10002f2a:	469c      	mov	ip, r3
10002f2c:	4640      	mov	r0, r8
10002f2e:	44d4      	add	ip, sl
10002f30:	4663      	mov	r3, ip
10002f32:	3004      	adds	r0, #4
10002f34:	1820      	adds	r0, r4, r0
10002f36:	1a18      	subs	r0, r3, r0
10002f38:	23e0      	movs	r3, #224	@ 0xe0
10002f3a:	0500      	lsls	r0, r0, #20
10002f3c:	0d40      	lsrs	r0, r0, #21
10002f3e:	021b      	lsls	r3, r3, #8
10002f40:	4318      	orrs	r0, r3
10002f42:	9003      	str	r0, [sp, #12]
10002f44:	e7c5      	b.n	10002ed2 <irq_add_shared_handler+0x14a>
10002f46:	f001 fadf 	bl	10004508 <hard_assertion_failure>
10002f4a:	e74f      	b.n	10002dec <irq_add_shared_handler+0x64>
10002f4c:	d0000124 	.word	0xd0000124
10002f50:	200034f4 	.word	0x200034f4
10002f54:	20001dd8 	.word	0x20001dd8
10002f58:	e000ed00 	.word	0xe000ed00
10002f5c:	100001cd 	.word	0x100001cd
10002f60:	ffffa100 	.word	0xffffa100
10002f64:	20001e08 	.word	0x20001e08
10002f68:	ffffe000 	.word	0xffffe000
10002f6c:	ffffbd01 	.word	0xffffbd01
10002f70:	0000aaaa 	.word	0x0000aaaa
10002f74:	47804801 	.word	0x47804801
10002f78:	0000bd01 	.word	0x0000bd01

10002f7c <irq_remove_handler>:
10002f7c:	b5f0      	push	{r4, r5, r6, r7, lr}
10002f7e:	46de      	mov	lr, fp
10002f80:	4657      	mov	r7, sl
10002f82:	464e      	mov	r6, r9
10002f84:	4645      	mov	r5, r8
10002f86:	b5e0      	push	{r5, r6, r7, lr}
10002f88:	000c      	movs	r4, r1
10002f8a:	b083      	sub	sp, #12
10002f8c:	f3ef 8810 	mrs	r8, PRIMASK
10002f90:	b672      	cpsid	i
10002f92:	4a5d      	ldr	r2, [pc, #372]	@ (10003108 <irq_remove_handler+0x18c>)
10002f94:	6813      	ldr	r3, [r2, #0]
10002f96:	2b00      	cmp	r3, #0
10002f98:	d0fc      	beq.n	10002f94 <irq_remove_handler+0x18>
10002f9a:	f3bf 8f5f 	dmb	sy
10002f9e:	4b5b      	ldr	r3, [pc, #364]	@ (1000310c <irq_remove_handler+0x190>)
10002fa0:	495b      	ldr	r1, [pc, #364]	@ (10003110 <irq_remove_handler+0x194>)
10002fa2:	689a      	ldr	r2, [r3, #8]
10002fa4:	0003      	movs	r3, r0
10002fa6:	3310      	adds	r3, #16
10002fa8:	009f      	lsls	r7, r3, #2
10002faa:	59d5      	ldr	r5, [r2, r7]
10002fac:	428d      	cmp	r5, r1
10002fae:	d039      	beq.n	10003024 <irq_remove_handler+0xa8>
10002fb0:	42a5      	cmp	r5, r4
10002fb2:	d04a      	beq.n	1000304a <irq_remove_handler+0xce>
10002fb4:	4e57      	ldr	r6, [pc, #348]	@ (10003114 <irq_remove_handler+0x198>)
10002fb6:	1baa      	subs	r2, r5, r6
10002fb8:	2a2f      	cmp	r2, #47	@ 0x2f
10002fba:	d833      	bhi.n	10003024 <irq_remove_handler+0xa8>
10002fbc:	2201      	movs	r2, #1
10002fbe:	4692      	mov	sl, r2
10002fc0:	4082      	lsls	r2, r0
10002fc2:	4691      	mov	r9, r2
10002fc4:	4648      	mov	r0, r9
10002fc6:	4a54      	ldr	r2, [pc, #336]	@ (10003118 <irq_remove_handler+0x19c>)
10002fc8:	6812      	ldr	r2, [r2, #0]
10002fca:	4010      	ands	r0, r2
10002fcc:	9001      	str	r0, [sp, #4]
10002fce:	4648      	mov	r0, r9
10002fd0:	4a52      	ldr	r2, [pc, #328]	@ (1000311c <irq_remove_handler+0x1a0>)
10002fd2:	6010      	str	r0, [r2, #0]
10002fd4:	f3bf 8f5f 	dmb	sy
10002fd8:	f3ef 8205 	mrs	r2, IPSR
10002fdc:	4693      	mov	fp, r2
10002fde:	2a00      	cmp	r2, #0
10002fe0:	d035      	beq.n	1000304e <irq_remove_handler+0xd2>
10002fe2:	4293      	cmp	r3, r2
10002fe4:	d001      	beq.n	10002fea <irq_remove_handler+0x6e>
10002fe6:	f001 fa8f 	bl	10004508 <hard_assertion_failure>
10002fea:	002a      	movs	r2, r5
10002fec:	4653      	mov	r3, sl
10002fee:	439a      	bics	r2, r3
10002ff0:	6890      	ldr	r0, [r2, #8]
10002ff2:	4284      	cmp	r4, r0
10002ff4:	d108      	bne.n	10003008 <irq_remove_handler+0x8c>
10002ff6:	e075      	b.n	100030e4 <irq_remove_handler+0x168>
10002ff8:	004b      	lsls	r3, r1, #1
10002ffa:	185b      	adds	r3, r3, r1
10002ffc:	009b      	lsls	r3, r3, #2
10002ffe:	18f3      	adds	r3, r6, r3
10003000:	6898      	ldr	r0, [r3, #8]
10003002:	42a0      	cmp	r0, r4
10003004:	d034      	beq.n	10003070 <irq_remove_handler+0xf4>
10003006:	001a      	movs	r2, r3
10003008:	2106      	movs	r1, #6
1000300a:	5651      	ldrsb	r1, [r2, r1]
1000300c:	2900      	cmp	r1, #0
1000300e:	daf3      	bge.n	10002ff8 <irq_remove_handler+0x7c>
10003010:	4284      	cmp	r4, r0
10003012:	d053      	beq.n	100030bc <irq_remove_handler+0x140>
10003014:	9b01      	ldr	r3, [sp, #4]
10003016:	2b00      	cmp	r3, #0
10003018:	d026      	beq.n	10003068 <irq_remove_handler+0xec>
1000301a:	464a      	mov	r2, r9
1000301c:	4b40      	ldr	r3, [pc, #256]	@ (10003120 <irq_remove_handler+0x1a4>)
1000301e:	601a      	str	r2, [r3, #0]
10003020:	4b3d      	ldr	r3, [pc, #244]	@ (10003118 <irq_remove_handler+0x19c>)
10003022:	601a      	str	r2, [r3, #0]
10003024:	4b39      	ldr	r3, [pc, #228]	@ (1000310c <irq_remove_handler+0x190>)
10003026:	689b      	ldr	r3, [r3, #8]
10003028:	51dd      	str	r5, [r3, r7]
1000302a:	f3bf 8f5f 	dmb	sy
1000302e:	f3bf 8f5f 	dmb	sy
10003032:	2200      	movs	r2, #0
10003034:	4b34      	ldr	r3, [pc, #208]	@ (10003108 <irq_remove_handler+0x18c>)
10003036:	601a      	str	r2, [r3, #0]
10003038:	f388 8810 	msr	PRIMASK, r8
1000303c:	b003      	add	sp, #12
1000303e:	bcf0      	pop	{r4, r5, r6, r7}
10003040:	46bb      	mov	fp, r7
10003042:	46b2      	mov	sl, r6
10003044:	46a9      	mov	r9, r5
10003046:	46a0      	mov	r8, r4
10003048:	bdf0      	pop	{r4, r5, r6, r7, pc}
1000304a:	000d      	movs	r5, r1
1000304c:	e7ea      	b.n	10003024 <irq_remove_handler+0xa8>
1000304e:	002a      	movs	r2, r5
10003050:	4653      	mov	r3, sl
10003052:	439a      	bics	r2, r3
10003054:	6890      	ldr	r0, [r2, #8]
10003056:	4284      	cmp	r4, r0
10003058:	d1d6      	bne.n	10003008 <irq_remove_handler+0x8c>
1000305a:	2006      	movs	r0, #6
1000305c:	5610      	ldrsb	r0, [r2, r0]
1000305e:	0013      	movs	r3, r2
10003060:	2800      	cmp	r0, #0
10003062:	da09      	bge.n	10003078 <irq_remove_handler+0xfc>
10003064:	000d      	movs	r5, r1
10003066:	e031      	b.n	100030cc <irq_remove_handler+0x150>
10003068:	464a      	mov	r2, r9
1000306a:	4b2c      	ldr	r3, [pc, #176]	@ (1000311c <irq_remove_handler+0x1a0>)
1000306c:	601a      	str	r2, [r3, #0]
1000306e:	e7d9      	b.n	10003024 <irq_remove_handler+0xa8>
10003070:	2006      	movs	r0, #6
10003072:	5618      	ldrsb	r0, [r3, r0]
10003074:	2800      	cmp	r0, #0
10003076:	db22      	blt.n	100030be <irq_remove_handler+0x142>
10003078:	0042      	lsls	r2, r0, #1
1000307a:	1811      	adds	r1, r2, r0
1000307c:	0089      	lsls	r1, r1, #2
1000307e:	1874      	adds	r4, r6, r1
10003080:	468a      	mov	sl, r1
10003082:	68a1      	ldr	r1, [r4, #8]
10003084:	6099      	str	r1, [r3, #8]
10003086:	79e1      	ldrb	r1, [r4, #7]
10003088:	71d9      	strb	r1, [r3, #7]
1000308a:	2106      	movs	r1, #6
1000308c:	5661      	ldrsb	r1, [r4, r1]
1000308e:	7199      	strb	r1, [r3, #6]
10003090:	2900      	cmp	r1, #0
10003092:	db25      	blt.n	100030e0 <irq_remove_handler+0x164>
10003094:	88a4      	ldrh	r4, [r4, #4]
10003096:	1af1      	subs	r1, r6, r3
10003098:	0564      	lsls	r4, r4, #21
1000309a:	1524      	asrs	r4, r4, #20
1000309c:	4454      	add	r4, sl
1000309e:	1909      	adds	r1, r1, r4
100030a0:	24e0      	movs	r4, #224	@ 0xe0
100030a2:	0509      	lsls	r1, r1, #20
100030a4:	0d49      	lsrs	r1, r1, #21
100030a6:	0224      	lsls	r4, r4, #8
100030a8:	4321      	orrs	r1, r4
100030aa:	8099      	strh	r1, [r3, #4]
100030ac:	1813      	adds	r3, r2, r0
100030ae:	4a1d      	ldr	r2, [pc, #116]	@ (10003124 <irq_remove_handler+0x1a8>)
100030b0:	009b      	lsls	r3, r3, #2
100030b2:	7811      	ldrb	r1, [r2, #0]
100030b4:	18f3      	adds	r3, r6, r3
100030b6:	7199      	strb	r1, [r3, #6]
100030b8:	7010      	strb	r0, [r2, #0]
100030ba:	e7ab      	b.n	10003014 <irq_remove_handler+0x98>
100030bc:	0013      	movs	r3, r2
100030be:	4659      	mov	r1, fp
100030c0:	2900      	cmp	r1, #0
100030c2:	d114      	bne.n	100030ee <irq_remove_handler+0x172>
100030c4:	31ff      	adds	r1, #255	@ 0xff
100030c6:	7191      	strb	r1, [r2, #6]
100030c8:	4917      	ldr	r1, [pc, #92]	@ (10003128 <irq_remove_handler+0x1ac>)
100030ca:	8091      	strh	r1, [r2, #4]
100030cc:	4915      	ldr	r1, [pc, #84]	@ (10003124 <irq_remove_handler+0x1a8>)
100030ce:	780a      	ldrb	r2, [r1, #0]
100030d0:	719a      	strb	r2, [r3, #6]
100030d2:	4a16      	ldr	r2, [pc, #88]	@ (1000312c <irq_remove_handler+0x1b0>)
100030d4:	1b9b      	subs	r3, r3, r6
100030d6:	415b      	adcs	r3, r3
100030d8:	435a      	muls	r2, r3
100030da:	0d12      	lsrs	r2, r2, #20
100030dc:	700a      	strb	r2, [r1, #0]
100030de:	e799      	b.n	10003014 <irq_remove_handler+0x98>
100030e0:	4913      	ldr	r1, [pc, #76]	@ (10003130 <irq_remove_handler+0x1b4>)
100030e2:	e7e2      	b.n	100030aa <irq_remove_handler+0x12e>
100030e4:	2006      	movs	r0, #6
100030e6:	5610      	ldrsb	r0, [r2, r0]
100030e8:	0013      	movs	r3, r2
100030ea:	2800      	cmp	r0, #0
100030ec:	dac4      	bge.n	10003078 <irq_remove_handler+0xfc>
100030ee:	4a11      	ldr	r2, [pc, #68]	@ (10003134 <irq_remove_handler+0x1b8>)
100030f0:	4911      	ldr	r1, [pc, #68]	@ (10003138 <irq_remove_handler+0x1bc>)
100030f2:	1ad2      	subs	r2, r2, r3
100030f4:	3a08      	subs	r2, #8
100030f6:	0250      	lsls	r0, r2, #9
100030f8:	0d40      	lsrs	r0, r0, #21
100030fa:	4301      	orrs	r1, r0
100030fc:	8099      	strh	r1, [r3, #4]
100030fe:	490f      	ldr	r1, [pc, #60]	@ (1000313c <irq_remove_handler+0x1c0>)
10003100:	0852      	lsrs	r2, r2, #1
10003102:	430a      	orrs	r2, r1
10003104:	80da      	strh	r2, [r3, #6]
10003106:	e785      	b.n	10003014 <irq_remove_handler+0x98>
10003108:	d0000124 	.word	0xd0000124
1000310c:	e000ed00 	.word	0xe000ed00
10003110:	100001cd 	.word	0x100001cd
10003114:	20001dd8 	.word	0x20001dd8
10003118:	e000e100 	.word	0xe000e100
1000311c:	e000e180 	.word	0xe000e180
10003120:	e000e280 	.word	0xe000e280
10003124:	200034f4 	.word	0x200034f4
10003128:	ffffbd01 	.word	0xffffbd01
1000312c:	0000aaaa 	.word	0x0000aaaa
10003130:	0000bd01 	.word	0x0000bd01
10003134:	20001e12 	.word	0x20001e12
10003138:	fffff000 	.word	0xfffff000
1000313c:	fffff800 	.word	0xfffff800

10003140 <irq_add_tail_to_free_list>:
10003140:	b570      	push	{r4, r5, r6, lr}
10003142:	f3ef 8105 	mrs	r1, IPSR
10003146:	2401      	movs	r4, #1
10003148:	4304      	orrs	r4, r0
1000314a:	f3ef 8c10 	mrs	ip, PRIMASK
1000314e:	b672      	cpsid	i
10003150:	4a21      	ldr	r2, [pc, #132]	@ (100031d8 <irq_add_tail_to_free_list+0x98>)
10003152:	6813      	ldr	r3, [r2, #0]
10003154:	2b00      	cmp	r3, #0
10003156:	d0fc      	beq.n	10003152 <irq_add_tail_to_free_list+0x12>
10003158:	f3bf 8f5f 	dmb	sy
1000315c:	4b1f      	ldr	r3, [pc, #124]	@ (100031dc <irq_add_tail_to_free_list+0x9c>)
1000315e:	0005      	movs	r5, r0
10003160:	4a1f      	ldr	r2, [pc, #124]	@ (100031e0 <irq_add_tail_to_free_list+0xa0>)
10003162:	1aed      	subs	r5, r5, r3
10003164:	416d      	adcs	r5, r5
10003166:	436a      	muls	r2, r5
10003168:	0d12      	lsrs	r2, r2, #20
1000316a:	4d1e      	ldr	r5, [pc, #120]	@ (100031e4 <irq_add_tail_to_free_list+0xa4>)
1000316c:	0089      	lsls	r1, r1, #2
1000316e:	68ae      	ldr	r6, [r5, #8]
10003170:	b252      	sxtb	r2, r2
10003172:	5876      	ldr	r6, [r6, r1]
10003174:	42a6      	cmp	r6, r4
10003176:	d01c      	beq.n	100031b2 <irq_add_tail_to_free_list+0x72>
10003178:	2106      	movs	r1, #6
1000317a:	5659      	ldrsb	r1, [r3, r1]
1000317c:	4291      	cmp	r1, r2
1000317e:	d01c      	beq.n	100031ba <irq_add_tail_to_free_list+0x7a>
10003180:	2112      	movs	r1, #18
10003182:	5659      	ldrsb	r1, [r3, r1]
10003184:	4291      	cmp	r1, r2
10003186:	d022      	beq.n	100031ce <irq_add_tail_to_free_list+0x8e>
10003188:	211e      	movs	r1, #30
1000318a:	5659      	ldrsb	r1, [r3, r1]
1000318c:	4291      	cmp	r1, r2
1000318e:	d020      	beq.n	100031d2 <irq_add_tail_to_free_list+0x92>
10003190:	212a      	movs	r1, #42	@ 0x2a
10003192:	5659      	ldrsb	r1, [r3, r1]
10003194:	2403      	movs	r4, #3
10003196:	4291      	cmp	r1, r2
10003198:	d010      	beq.n	100031bc <irq_add_tail_to_free_list+0x7c>
1000319a:	4b13      	ldr	r3, [pc, #76]	@ (100031e8 <irq_add_tail_to_free_list+0xa8>)
1000319c:	7819      	ldrb	r1, [r3, #0]
1000319e:	701a      	strb	r2, [r3, #0]
100031a0:	7181      	strb	r1, [r0, #6]
100031a2:	f3bf 8f5f 	dmb	sy
100031a6:	2200      	movs	r2, #0
100031a8:	4b0b      	ldr	r3, [pc, #44]	@ (100031d8 <irq_add_tail_to_free_list+0x98>)
100031aa:	601a      	str	r2, [r3, #0]
100031ac:	f38c 8810 	msr	PRIMASK, ip
100031b0:	bd70      	pop	{r4, r5, r6, pc}
100031b2:	68ab      	ldr	r3, [r5, #8]
100031b4:	4c0d      	ldr	r4, [pc, #52]	@ (100031ec <irq_add_tail_to_free_list+0xac>)
100031b6:	505c      	str	r4, [r3, r1]
100031b8:	e7ef      	b.n	1000319a <irq_add_tail_to_free_list+0x5a>
100031ba:	2400      	movs	r4, #0
100031bc:	0061      	lsls	r1, r4, #1
100031be:	1909      	adds	r1, r1, r4
100031c0:	0089      	lsls	r1, r1, #2
100031c2:	185b      	adds	r3, r3, r1
100031c4:	21ff      	movs	r1, #255	@ 0xff
100031c6:	7199      	strb	r1, [r3, #6]
100031c8:	4909      	ldr	r1, [pc, #36]	@ (100031f0 <irq_add_tail_to_free_list+0xb0>)
100031ca:	8099      	strh	r1, [r3, #4]
100031cc:	e7e5      	b.n	1000319a <irq_add_tail_to_free_list+0x5a>
100031ce:	2401      	movs	r4, #1
100031d0:	e7f4      	b.n	100031bc <irq_add_tail_to_free_list+0x7c>
100031d2:	2402      	movs	r4, #2
100031d4:	e7f2      	b.n	100031bc <irq_add_tail_to_free_list+0x7c>
100031d6:	46c0      	nop			@ (mov r8, r8)
100031d8:	d0000124 	.word	0xd0000124
100031dc:	20001dd8 	.word	0x20001dd8
100031e0:	0000aaaa 	.word	0x0000aaaa
100031e4:	e000ed00 	.word	0xe000ed00
100031e8:	200034f4 	.word	0x200034f4
100031ec:	100001cd 	.word	0x100001cd
100031f0:	ffffbd01 	.word	0xffffbd01

100031f4 <irq_init_priorities>:
100031f4:	4b05      	ldr	r3, [pc, #20]	@ (1000320c <irq_init_priorities+0x18>)
100031f6:	4a06      	ldr	r2, [pc, #24]	@ (10003210 <irq_init_priorities+0x1c>)
100031f8:	6013      	str	r3, [r2, #0]
100031fa:	4a06      	ldr	r2, [pc, #24]	@ (10003214 <irq_init_priorities+0x20>)
100031fc:	6013      	str	r3, [r2, #0]
100031fe:	6053      	str	r3, [r2, #4]
10003200:	6093      	str	r3, [r2, #8]
10003202:	60d3      	str	r3, [r2, #12]
10003204:	6113      	str	r3, [r2, #16]
10003206:	6153      	str	r3, [r2, #20]
10003208:	6193      	str	r3, [r2, #24]
1000320a:	4770      	bx	lr
1000320c:	80808080 	.word	0x80808080
10003210:	e000e400 	.word	0xe000e400
10003214:	e000e404 	.word	0xe000e404

10003218 <user_irq_claim_unused>:
10003218:	b510      	push	{r4, lr}
1000321a:	4b08      	ldr	r3, [pc, #32]	@ (1000323c <user_irq_claim_unused+0x24>)
1000321c:	4c08      	ldr	r4, [pc, #32]	@ (10003240 <user_irq_claim_unused+0x28>)
1000321e:	b082      	sub	sp, #8
10003220:	0001      	movs	r1, r0
10003222:	9300      	str	r3, [sp, #0]
10003224:	2200      	movs	r2, #0
10003226:	2305      	movs	r3, #5
10003228:	0020      	movs	r0, r4
1000322a:	f7ff fcd1 	bl	10002bd0 <hw_claim_unused_from_range>
1000322e:	2800      	cmp	r0, #0
10003230:	db01      	blt.n	10003236 <user_irq_claim_unused+0x1e>
10003232:	231f      	movs	r3, #31
10003234:	1a18      	subs	r0, r3, r0
10003236:	b002      	add	sp, #8
10003238:	bd10      	pop	{r4, pc}
1000323a:	46c0      	nop			@ (mov r8, r8)
1000323c:	100199e0 	.word	0x100199e0
10003240:	200034f9 	.word	0x200034f9

10003244 <lock_init>:
10003244:	4b02      	ldr	r3, [pc, #8]	@ (10003250 <lock_init+0xc>)
10003246:	469c      	mov	ip, r3
10003248:	4461      	add	r1, ip
1000324a:	0089      	lsls	r1, r1, #2
1000324c:	6001      	str	r1, [r0, #0]
1000324e:	4770      	bx	lr
10003250:	34000040 	.word	0x34000040

10003254 <mutex_init>:
10003254:	b510      	push	{r4, lr}
10003256:	0004      	movs	r4, r0
10003258:	f7ff fd16 	bl	10002c88 <next_striped_spin_lock_num>
1000325c:	0001      	movs	r1, r0
1000325e:	0020      	movs	r0, r4
10003260:	f7ff fff0 	bl	10003244 <lock_init>
10003264:	23ff      	movs	r3, #255	@ 0xff
10003266:	7123      	strb	r3, [r4, #4]
10003268:	f3bf 8f5f 	dmb	sy
1000326c:	bd10      	pop	{r4, pc}
1000326e:	46c0      	nop			@ (mov r8, r8)

10003270 <recursive_mutex_init>:
10003270:	b510      	push	{r4, lr}
10003272:	0004      	movs	r4, r0
10003274:	f7ff fd08 	bl	10002c88 <next_striped_spin_lock_num>
10003278:	0001      	movs	r1, r0
1000327a:	0020      	movs	r0, r4
1000327c:	f7ff ffe2 	bl	10003244 <lock_init>
10003280:	23ff      	movs	r3, #255	@ 0xff
10003282:	80a3      	strh	r3, [r4, #4]
10003284:	f3bf 8f5f 	dmb	sy
10003288:	bd10      	pop	{r4, pc}
1000328a:	46c0      	nop			@ (mov r8, r8)

1000328c <critical_section_init>:
1000328c:	b510      	push	{r4, lr}
1000328e:	0004      	movs	r4, r0
10003290:	2001      	movs	r0, #1
10003292:	f7ff fd05 	bl	10002ca0 <spin_lock_claim_unused>
10003296:	4b03      	ldr	r3, [pc, #12]	@ (100032a4 <critical_section_init+0x18>)
10003298:	18c3      	adds	r3, r0, r3
1000329a:	009b      	lsls	r3, r3, #2
1000329c:	6023      	str	r3, [r4, #0]
1000329e:	f3bf 8f5f 	dmb	sy
100032a2:	bd10      	pop	{r4, pc}
100032a4:	34000040 	.word	0x34000040

100032a8 <critical_section_init_with_lock_num>:
100032a8:	4b03      	ldr	r3, [pc, #12]	@ (100032b8 <critical_section_init_with_lock_num+0x10>)
100032aa:	469c      	mov	ip, r3
100032ac:	4461      	add	r1, ip
100032ae:	0089      	lsls	r1, r1, #2
100032b0:	6001      	str	r1, [r0, #0]
100032b2:	f3bf 8f5f 	dmb	sy
100032b6:	4770      	bx	lr
100032b8:	34000040 	.word	0x34000040

100032bc <timer_pool_entry_comparator>:
100032bc:	6883      	ldr	r3, [r0, #8]
100032be:	480b      	ldr	r0, [pc, #44]	@ (100032ec <timer_pool_entry_comparator+0x30>)
100032c0:	b510      	push	{r4, lr}
100032c2:	4684      	mov	ip, r0
100032c4:	4461      	add	r1, ip
100032c6:	4462      	add	r2, ip
100032c8:	0112      	lsls	r2, r2, #4
100032ca:	0109      	lsls	r1, r1, #4
100032cc:	1859      	adds	r1, r3, r1
100032ce:	189b      	adds	r3, r3, r2
100032d0:	685c      	ldr	r4, [r3, #4]
100032d2:	684a      	ldr	r2, [r1, #4]
100032d4:	2001      	movs	r0, #1
100032d6:	4294      	cmp	r4, r2
100032d8:	d801      	bhi.n	100032de <timer_pool_entry_comparator+0x22>
100032da:	d002      	beq.n	100032e2 <timer_pool_entry_comparator+0x26>
100032dc:	2000      	movs	r0, #0
100032de:	b2c0      	uxtb	r0, r0
100032e0:	bd10      	pop	{r4, pc}
100032e2:	681a      	ldr	r2, [r3, #0]
100032e4:	680b      	ldr	r3, [r1, #0]
100032e6:	429a      	cmp	r2, r3
100032e8:	d8f9      	bhi.n	100032de <timer_pool_entry_comparator+0x22>
100032ea:	e7f7      	b.n	100032dc <timer_pool_entry_comparator+0x20>
100032ec:	0fffffff 	.word	0x0fffffff

100032f0 <sleep_until_callback>:
100032f0:	4b0a      	ldr	r3, [pc, #40]	@ (1000331c <sleep_until_callback+0x2c>)
100032f2:	6819      	ldr	r1, [r3, #0]
100032f4:	f3ef 8010 	mrs	r0, PRIMASK
100032f8:	b672      	cpsid	i
100032fa:	680a      	ldr	r2, [r1, #0]
100032fc:	2a00      	cmp	r2, #0
100032fe:	d0fc      	beq.n	100032fa <sleep_until_callback+0xa>
10003300:	f3bf 8f5f 	dmb	sy
10003304:	681b      	ldr	r3, [r3, #0]
10003306:	f3bf 8f5f 	dmb	sy
1000330a:	2200      	movs	r2, #0
1000330c:	601a      	str	r2, [r3, #0]
1000330e:	f380 8810 	msr	PRIMASK, r0
10003312:	bf40      	sev
10003314:	2000      	movs	r0, #0
10003316:	2100      	movs	r1, #0
10003318:	4770      	bx	lr
1000331a:	46c0      	nop			@ (mov r8, r8)
1000331c:	200034c0 	.word	0x200034c0

10003320 <add_alarm_under_lock.isra.0>:
10003320:	b5f8      	push	{r3, r4, r5, r6, r7, lr}
10003322:	4657      	mov	r7, sl
10003324:	4645      	mov	r5, r8
10003326:	464e      	mov	r6, r9
10003328:	46de      	mov	lr, fp
1000332a:	b5e0      	push	{r5, r6, r7, lr}
1000332c:	4698      	mov	r8, r3
1000332e:	ab0c      	add	r3, sp, #48	@ 0x30
10003330:	781c      	ldrb	r4, [r3, #0]
10003332:	ab0d      	add	r3, sp, #52	@ 0x34
10003334:	781b      	ldrb	r3, [r3, #0]
10003336:	0007      	movs	r7, r0
10003338:	4691      	mov	r9, r2
1000333a:	469a      	mov	sl, r3
1000333c:	6805      	ldr	r5, [r0, #0]
1000333e:	2c00      	cmp	r4, #0
10003340:	d159      	bne.n	100033f6 <add_alarm_under_lock.isra.0+0xd6>
10003342:	7bac      	ldrb	r4, [r5, #14]
10003344:	2c00      	cmp	r4, #0
10003346:	d03b      	beq.n	100033c0 <add_alarm_under_lock.isra.0+0xa0>
10003348:	0066      	lsls	r6, r4, #1
1000334a:	6829      	ldr	r1, [r5, #0]
1000334c:	1936      	adds	r6, r6, r4
1000334e:	3e03      	subs	r6, #3
10003350:	1989      	adds	r1, r1, r6
10003352:	784b      	ldrb	r3, [r1, #1]
10003354:	73ab      	strb	r3, [r5, #14]
10003356:	2b00      	cmp	r3, #0
10003358:	d100      	bne.n	1000335c <add_alarm_under_lock.isra.0+0x3c>
1000335a:	73eb      	strb	r3, [r5, #15]
1000335c:	2300      	movs	r3, #0
1000335e:	708b      	strb	r3, [r1, #2]
10003360:	704b      	strb	r3, [r1, #1]
10003362:	700b      	strb	r3, [r1, #0]
10003364:	4b2d      	ldr	r3, [pc, #180]	@ (1000341c <add_alarm_under_lock.isra.0+0xfc>)
10003366:	18e2      	adds	r2, r4, r3
10003368:	68bb      	ldr	r3, [r7, #8]
1000336a:	0112      	lsls	r2, r2, #4
1000336c:	189b      	adds	r3, r3, r2
1000336e:	464a      	mov	r2, r9
10003370:	601a      	str	r2, [r3, #0]
10003372:	4642      	mov	r2, r8
10003374:	605a      	str	r2, [r3, #4]
10003376:	9a0a      	ldr	r2, [sp, #40]	@ 0x28
10003378:	609a      	str	r2, [r3, #8]
1000337a:	9a0b      	ldr	r2, [sp, #44]	@ 0x2c
1000337c:	60da      	str	r2, [r3, #12]
1000337e:	2300      	movs	r3, #0
10003380:	708b      	strb	r3, [r1, #2]
10003382:	704b      	strb	r3, [r1, #1]
10003384:	700b      	strb	r3, [r1, #0]
10003386:	7b6b      	ldrb	r3, [r5, #13]
10003388:	469b      	mov	fp, r3
1000338a:	2b00      	cmp	r3, #0
1000338c:	d026      	beq.n	100033dc <add_alarm_under_lock.isra.0+0xbc>
1000338e:	0022      	movs	r2, r4
10003390:	686b      	ldr	r3, [r5, #4]
10003392:	4659      	mov	r1, fp
10003394:	68a8      	ldr	r0, [r5, #8]
10003396:	4798      	blx	r3
10003398:	465b      	mov	r3, fp
1000339a:	005b      	lsls	r3, r3, #1
1000339c:	445b      	add	r3, fp
1000339e:	682a      	ldr	r2, [r5, #0]
100033a0:	3b03      	subs	r3, #3
100033a2:	2800      	cmp	r0, #0
100033a4:	d012      	beq.n	100033cc <add_alarm_under_lock.isra.0+0xac>
100033a6:	4658      	mov	r0, fp
100033a8:	1996      	adds	r6, r2, r6
100033aa:	70b0      	strb	r0, [r6, #2]
100033ac:	18d1      	adds	r1, r2, r3
100033ae:	5cd3      	ldrb	r3, [r2, r3]
100033b0:	2b00      	cmp	r3, #0
100033b2:	d000      	beq.n	100033b6 <add_alarm_under_lock.isra.0+0x96>
100033b4:	7073      	strb	r3, [r6, #1]
100033b6:	465b      	mov	r3, fp
100033b8:	700c      	strb	r4, [r1, #0]
100033ba:	736b      	strb	r3, [r5, #13]
100033bc:	455c      	cmp	r4, fp
100033be:	d00e      	beq.n	100033de <add_alarm_under_lock.isra.0+0xbe>
100033c0:	bcf0      	pop	{r4, r5, r6, r7}
100033c2:	46bb      	mov	fp, r7
100033c4:	46b2      	mov	sl, r6
100033c6:	46a9      	mov	r9, r5
100033c8:	46a0      	mov	r8, r4
100033ca:	bdf8      	pop	{r3, r4, r5, r6, r7, pc}
100033cc:	18d3      	adds	r3, r2, r3
100033ce:	709c      	strb	r4, [r3, #2]
100033d0:	1991      	adds	r1, r2, r6
100033d2:	5d92      	ldrb	r2, [r2, r6]
100033d4:	2a00      	cmp	r2, #0
100033d6:	d11c      	bne.n	10003412 <add_alarm_under_lock.isra.0+0xf2>
100033d8:	465b      	mov	r3, fp
100033da:	700b      	strb	r3, [r1, #0]
100033dc:	736c      	strb	r4, [r5, #13]
100033de:	464a      	mov	r2, r9
100033e0:	4643      	mov	r3, r8
100033e2:	7d38      	ldrb	r0, [r7, #20]
100033e4:	f000 fb4a 	bl	10003a7c <hardware_alarm_set_target>
100033e8:	1e05      	subs	r5, r0, #0
100033ea:	d10a      	bne.n	10003402 <add_alarm_under_lock.isra.0+0xe2>
100033ec:	9b0e      	ldr	r3, [sp, #56]	@ 0x38
100033ee:	2b00      	cmp	r3, #0
100033f0:	d0e6      	beq.n	100033c0 <add_alarm_under_lock.isra.0+0xa0>
100033f2:	701d      	strb	r5, [r3, #0]
100033f4:	e7e4      	b.n	100033c0 <add_alarm_under_lock.isra.0+0xa0>
100033f6:	0066      	lsls	r6, r4, #1
100033f8:	6829      	ldr	r1, [r5, #0]
100033fa:	1936      	adds	r6, r6, r4
100033fc:	3e03      	subs	r6, #3
100033fe:	1989      	adds	r1, r1, r6
10003400:	e7b0      	b.n	10003364 <add_alarm_under_lock.isra.0+0x44>
10003402:	4653      	mov	r3, sl
10003404:	2b00      	cmp	r3, #0
10003406:	d1f1      	bne.n	100033ec <add_alarm_under_lock.isra.0+0xcc>
10003408:	0021      	movs	r1, r4
1000340a:	6838      	ldr	r0, [r7, #0]
1000340c:	f000 fd4e 	bl	10003eac <ph_remove_and_free_node>
10003410:	e7ec      	b.n	100033ec <add_alarm_under_lock.isra.0+0xcc>
10003412:	705a      	strb	r2, [r3, #1]
10003414:	465b      	mov	r3, fp
10003416:	700b      	strb	r3, [r1, #0]
10003418:	736c      	strb	r4, [r5, #13]
1000341a:	e7e0      	b.n	100033de <add_alarm_under_lock.isra.0+0xbe>
1000341c:	0fffffff 	.word	0x0fffffff

10003420 <alarm_pool_alarm_callback>:
10003420:	b5f0      	push	{r4, r5, r6, r7, lr}
10003422:	46de      	mov	lr, fp
10003424:	4657      	mov	r7, sl
10003426:	464e      	mov	r6, r9
10003428:	4645      	mov	r5, r8
1000342a:	2300      	movs	r3, #0
1000342c:	b5e0      	push	{r5, r6, r7, lr}
1000342e:	b08b      	sub	sp, #44	@ 0x2c
10003430:	9308      	str	r3, [sp, #32]
10003432:	4b68      	ldr	r3, [pc, #416]	@ (100035d4 <alarm_pool_alarm_callback+0x1b4>)
10003434:	0082      	lsls	r2, r0, #2
10003436:	58d4      	ldr	r4, [r2, r3]
10003438:	2300      	movs	r3, #0
1000343a:	469b      	mov	fp, r3
1000343c:	9009      	str	r0, [sp, #36]	@ 0x24
1000343e:	f000 fa99 	bl	10003974 <time_us_64>
10003442:	0002      	movs	r2, r0
10003444:	000b      	movs	r3, r1
10003446:	6860      	ldr	r0, [r4, #4]
10003448:	f3ef 8a10 	mrs	sl, PRIMASK
1000344c:	b672      	cpsid	i
1000344e:	4656      	mov	r6, sl
10003450:	6801      	ldr	r1, [r0, #0]
10003452:	2900      	cmp	r1, #0
10003454:	d0fc      	beq.n	10003450 <alarm_pool_alarm_callback+0x30>
10003456:	46b2      	mov	sl, r6
10003458:	f3bf 8f5f 	dmb	sy
1000345c:	6821      	ldr	r1, [r4, #0]
1000345e:	7b4f      	ldrb	r7, [r1, #13]
10003460:	468c      	mov	ip, r1
10003462:	2f00      	cmp	r7, #0
10003464:	d02e      	beq.n	100034c4 <alarm_pool_alarm_callback+0xa4>
10003466:	68a5      	ldr	r5, [r4, #8]
10003468:	495b      	ldr	r1, [pc, #364]	@ (100035d8 <alarm_pool_alarm_callback+0x1b8>)
1000346a:	46a9      	mov	r9, r5
1000346c:	1879      	adds	r1, r7, r1
1000346e:	0109      	lsls	r1, r1, #4
10003470:	4489      	add	r9, r1
10003472:	4649      	mov	r1, r9
10003474:	6808      	ldr	r0, [r1, #0]
10003476:	6849      	ldr	r1, [r1, #4]
10003478:	0005      	movs	r5, r0
1000347a:	000e      	movs	r6, r1
1000347c:	1aad      	subs	r5, r5, r2
1000347e:	419e      	sbcs	r6, r3
10003480:	2e00      	cmp	r6, #0
10003482:	dd5f      	ble.n	10003544 <alarm_pool_alarm_callback+0x124>
10003484:	0002      	movs	r2, r0
10003486:	000b      	movs	r3, r1
10003488:	9809      	ldr	r0, [sp, #36]	@ 0x24
1000348a:	f000 faf7 	bl	10003a7c <hardware_alarm_set_target>
1000348e:	2300      	movs	r3, #0
10003490:	2200      	movs	r2, #0
10003492:	4699      	mov	r9, r3
10003494:	2300      	movs	r3, #0
10003496:	9206      	str	r2, [sp, #24]
10003498:	9307      	str	r3, [sp, #28]
1000349a:	2300      	movs	r3, #0
1000349c:	4698      	mov	r8, r3
1000349e:	6863      	ldr	r3, [r4, #4]
100034a0:	f3bf 8f5f 	dmb	sy
100034a4:	465a      	mov	r2, fp
100034a6:	601a      	str	r2, [r3, #0]
100034a8:	f38a 8810 	msr	PRIMASK, sl
100034ac:	4643      	mov	r3, r8
100034ae:	2b00      	cmp	r3, #0
100034b0:	d112      	bne.n	100034d8 <alarm_pool_alarm_callback+0xb8>
100034b2:	2800      	cmp	r0, #0
100034b4:	d1c3      	bne.n	1000343e <alarm_pool_alarm_callback+0x1e>
100034b6:	b00b      	add	sp, #44	@ 0x2c
100034b8:	bcf0      	pop	{r4, r5, r6, r7}
100034ba:	46bb      	mov	fp, r7
100034bc:	46b2      	mov	sl, r6
100034be:	46a9      	mov	r9, r5
100034c0:	46a0      	mov	r8, r4
100034c2:	bdf0      	pop	{r4, r5, r6, r7, pc}
100034c4:	2300      	movs	r3, #0
100034c6:	2200      	movs	r2, #0
100034c8:	4699      	mov	r9, r3
100034ca:	2300      	movs	r3, #0
100034cc:	9206      	str	r2, [sp, #24]
100034ce:	9307      	str	r3, [sp, #28]
100034d0:	2300      	movs	r3, #0
100034d2:	2000      	movs	r0, #0
100034d4:	4698      	mov	r8, r3
100034d6:	e7e2      	b.n	1000349e <alarm_pool_alarm_callback+0x7e>
100034d8:	9b08      	ldr	r3, [sp, #32]
100034da:	4649      	mov	r1, r9
100034dc:	0218      	lsls	r0, r3, #8
100034de:	4338      	orrs	r0, r7
100034e0:	47c0      	blx	r8
100034e2:	6862      	ldr	r2, [r4, #4]
100034e4:	0005      	movs	r5, r0
100034e6:	000e      	movs	r6, r1
100034e8:	f3ef 8a10 	mrs	sl, PRIMASK
100034ec:	b672      	cpsid	i
100034ee:	6813      	ldr	r3, [r2, #0]
100034f0:	2b00      	cmp	r3, #0
100034f2:	d0fc      	beq.n	100034ee <alarm_pool_alarm_callback+0xce>
100034f4:	f3bf 8f5f 	dmb	sy
100034f8:	2e00      	cmp	r6, #0
100034fa:	db41      	blt.n	10003580 <alarm_pool_alarm_callback+0x160>
100034fc:	002b      	movs	r3, r5
100034fe:	4333      	orrs	r3, r6
10003500:	d002      	beq.n	10003508 <alarm_pool_alarm_callback+0xe8>
10003502:	6923      	ldr	r3, [r4, #16]
10003504:	2b00      	cmp	r3, #0
10003506:	d156      	bne.n	100035b6 <alarm_pool_alarm_callback+0x196>
10003508:	6823      	ldr	r3, [r4, #0]
1000350a:	7bd9      	ldrb	r1, [r3, #15]
1000350c:	2900      	cmp	r1, #0
1000350e:	d005      	beq.n	1000351c <alarm_pool_alarm_callback+0xfc>
10003510:	681a      	ldr	r2, [r3, #0]
10003512:	0048      	lsls	r0, r1, #1
10003514:	1841      	adds	r1, r0, r1
10003516:	1852      	adds	r2, r2, r1
10003518:	3a03      	subs	r2, #3
1000351a:	7057      	strb	r7, [r2, #1]
1000351c:	7b9a      	ldrb	r2, [r3, #14]
1000351e:	2a00      	cmp	r2, #0
10003520:	d100      	bne.n	10003524 <alarm_pool_alarm_callback+0x104>
10003522:	739f      	strb	r7, [r3, #14]
10003524:	73df      	strb	r7, [r3, #15]
10003526:	68e2      	ldr	r2, [r4, #12]
10003528:	3f01      	subs	r7, #1
1000352a:	5dd3      	ldrb	r3, [r2, r7]
1000352c:	3301      	adds	r3, #1
1000352e:	55d3      	strb	r3, [r2, r7]
10003530:	465b      	mov	r3, fp
10003532:	6123      	str	r3, [r4, #16]
10003534:	6863      	ldr	r3, [r4, #4]
10003536:	f3bf 8f5f 	dmb	sy
1000353a:	465a      	mov	r2, fp
1000353c:	601a      	str	r2, [r3, #0]
1000353e:	f38a 8810 	msr	PRIMASK, sl
10003542:	e77c      	b.n	1000343e <alarm_pool_alarm_callback+0x1e>
10003544:	2e00      	cmp	r6, #0
10003546:	d102      	bne.n	1000354e <alarm_pool_alarm_callback+0x12e>
10003548:	2d00      	cmp	r5, #0
1000354a:	d000      	beq.n	1000354e <alarm_pool_alarm_callback+0x12e>
1000354c:	e79a      	b.n	10003484 <alarm_pool_alarm_callback+0x64>
1000354e:	2100      	movs	r1, #0
10003550:	4660      	mov	r0, ip
10003552:	f000 fc29 	bl	10003da8 <ph_remove_head>
10003556:	464b      	mov	r3, r9
10003558:	681a      	ldr	r2, [r3, #0]
1000355a:	685b      	ldr	r3, [r3, #4]
1000355c:	9206      	str	r2, [sp, #24]
1000355e:	9307      	str	r3, [sp, #28]
10003560:	464b      	mov	r3, r9
10003562:	689b      	ldr	r3, [r3, #8]
10003564:	4698      	mov	r8, r3
10003566:	464b      	mov	r3, r9
10003568:	68db      	ldr	r3, [r3, #12]
1000356a:	4699      	mov	r9, r3
1000356c:	68e3      	ldr	r3, [r4, #12]
1000356e:	19db      	adds	r3, r3, r7
10003570:	3b01      	subs	r3, #1
10003572:	781b      	ldrb	r3, [r3, #0]
10003574:	9308      	str	r3, [sp, #32]
10003576:	021b      	lsls	r3, r3, #8
10003578:	4303      	orrs	r3, r0
1000357a:	6123      	str	r3, [r4, #16]
1000357c:	2000      	movs	r0, #0
1000357e:	e78e      	b.n	1000349e <alarm_pool_alarm_callback+0x7e>
10003580:	6923      	ldr	r3, [r4, #16]
10003582:	2b00      	cmp	r3, #0
10003584:	d0c0      	beq.n	10003508 <alarm_pool_alarm_callback+0xe8>
10003586:	9a06      	ldr	r2, [sp, #24]
10003588:	9b07      	ldr	r3, [sp, #28]
1000358a:	2180      	movs	r1, #128	@ 0x80
1000358c:	1b52      	subs	r2, r2, r5
1000358e:	41b3      	sbcs	r3, r6
10003590:	0609      	lsls	r1, r1, #24
10003592:	428b      	cmp	r3, r1
10003594:	d302      	bcc.n	1000359c <alarm_pool_alarm_callback+0x17c>
10003596:	2201      	movs	r2, #1
10003598:	4b10      	ldr	r3, [pc, #64]	@ (100035dc <alarm_pool_alarm_callback+0x1bc>)
1000359a:	4252      	negs	r2, r2
1000359c:	2100      	movs	r1, #0
1000359e:	9104      	str	r1, [sp, #16]
100035a0:	3101      	adds	r1, #1
100035a2:	9103      	str	r1, [sp, #12]
100035a4:	4649      	mov	r1, r9
100035a6:	9101      	str	r1, [sp, #4]
100035a8:	4641      	mov	r1, r8
100035aa:	0020      	movs	r0, r4
100035ac:	9702      	str	r7, [sp, #8]
100035ae:	9100      	str	r1, [sp, #0]
100035b0:	f7ff feb6 	bl	10003320 <add_alarm_under_lock.isra.0>
100035b4:	e7bc      	b.n	10003530 <alarm_pool_alarm_callback+0x110>
100035b6:	f000 f9dd 	bl	10003974 <time_us_64>
100035ba:	002a      	movs	r2, r5
100035bc:	0033      	movs	r3, r6
100035be:	1812      	adds	r2, r2, r0
100035c0:	414b      	adcs	r3, r1
100035c2:	2180      	movs	r1, #128	@ 0x80
100035c4:	0609      	lsls	r1, r1, #24
100035c6:	428b      	cmp	r3, r1
100035c8:	d3e8      	bcc.n	1000359c <alarm_pool_alarm_callback+0x17c>
100035ca:	2201      	movs	r2, #1
100035cc:	4b03      	ldr	r3, [pc, #12]	@ (100035dc <alarm_pool_alarm_callback+0x1bc>)
100035ce:	4252      	negs	r2, r2
100035d0:	e7e4      	b.n	1000359c <alarm_pool_alarm_callback+0x17c>
100035d2:	46c0      	nop			@ (mov r8, r8)
100035d4:	200034a4 	.word	0x200034a4
100035d8:	0fffffff 	.word	0x0fffffff
100035dc:	7fffffff 	.word	0x7fffffff

100035e0 <alarm_pool_init_default>:
100035e0:	b510      	push	{r4, lr}
100035e2:	4c14      	ldr	r4, [pc, #80]	@ (10003634 <alarm_pool_init_default+0x54>)
100035e4:	6863      	ldr	r3, [r4, #4]
100035e6:	2b00      	cmp	r3, #0
100035e8:	d004      	beq.n	100035f4 <alarm_pool_init_default+0x14>
100035ea:	210a      	movs	r1, #10
100035ec:	4812      	ldr	r0, [pc, #72]	@ (10003638 <alarm_pool_init_default+0x58>)
100035ee:	f7ff fe29 	bl	10003244 <lock_init>
100035f2:	bd10      	pop	{r4, pc}
100035f4:	0023      	movs	r3, r4
100035f6:	4a11      	ldr	r2, [pc, #68]	@ (1000363c <alarm_pool_init_default+0x5c>)
100035f8:	2110      	movs	r1, #16
100035fa:	6820      	ldr	r0, [r4, #0]
100035fc:	f000 faf0 	bl	10003be0 <ph_post_alloc_init>
10003600:	2003      	movs	r0, #3
10003602:	f000 f9ab 	bl	1000395c <hardware_alarm_claim>
10003606:	2003      	movs	r0, #3
10003608:	f000 faa0 	bl	10003b4c <hardware_alarm_cancel>
1000360c:	2003      	movs	r0, #3
1000360e:	490c      	ldr	r1, [pc, #48]	@ (10003640 <alarm_pool_init_default+0x60>)
10003610:	f000 f9ee 	bl	100039f0 <hardware_alarm_set_callback>
10003614:	f7ff fb38 	bl	10002c88 <next_striped_spin_lock_num>
10003618:	4b0a      	ldr	r3, [pc, #40]	@ (10003644 <alarm_pool_init_default+0x64>)
1000361a:	469c      	mov	ip, r3
1000361c:	2303      	movs	r3, #3
1000361e:	7523      	strb	r3, [r4, #20]
10003620:	23d0      	movs	r3, #208	@ 0xd0
10003622:	061b      	lsls	r3, r3, #24
10003624:	681b      	ldr	r3, [r3, #0]
10003626:	4460      	add	r0, ip
10003628:	7563      	strb	r3, [r4, #21]
1000362a:	4b07      	ldr	r3, [pc, #28]	@ (10003648 <alarm_pool_init_default+0x68>)
1000362c:	0080      	lsls	r0, r0, #2
1000362e:	6060      	str	r0, [r4, #4]
10003630:	60dc      	str	r4, [r3, #12]
10003632:	e7da      	b.n	100035ea <alarm_pool_init_default+0xa>
10003634:	20001e20 	.word	0x20001e20
10003638:	200034c0 	.word	0x200034c0
1000363c:	100032bd 	.word	0x100032bd
10003640:	10003421 	.word	0x10003421
10003644:	34000040 	.word	0x34000040
10003648:	200034a4 	.word	0x200034a4

1000364c <alarm_pool_get_default>:
1000364c:	4800      	ldr	r0, [pc, #0]	@ (10003650 <alarm_pool_get_default+0x4>)
1000364e:	4770      	bx	lr
10003650:	20001e20 	.word	0x20001e20

10003654 <alarm_pool_add_alarm_at>:
10003654:	b5f0      	push	{r4, r5, r6, r7, lr}
10003656:	4657      	mov	r7, sl
10003658:	464e      	mov	r6, r9
1000365a:	4645      	mov	r5, r8
1000365c:	46de      	mov	lr, fp
1000365e:	b5e0      	push	{r5, r6, r7, lr}
10003660:	b085      	sub	sp, #20
10003662:	9301      	str	r3, [sp, #4]
10003664:	ab10      	add	r3, sp, #64	@ 0x40
10003666:	781b      	ldrb	r3, [r3, #0]
10003668:	0006      	movs	r6, r0
1000366a:	9303      	str	r3, [sp, #12]
1000366c:	2300      	movs	r3, #0
1000366e:	469a      	mov	sl, r3
10003670:	4698      	mov	r8, r3
10003672:	9200      	str	r2, [sp, #0]
10003674:	6872      	ldr	r2, [r6, #4]
10003676:	f3ef 8b10 	mrs	fp, PRIMASK
1000367a:	b672      	cpsid	i
1000367c:	6813      	ldr	r3, [r2, #0]
1000367e:	2b00      	cmp	r3, #0
10003680:	d0fc      	beq.n	1000367c <alarm_pool_add_alarm_at+0x28>
10003682:	f3bf 8f5f 	dmb	sy
10003686:	6835      	ldr	r5, [r6, #0]
10003688:	7bac      	ldrb	r4, [r5, #14]
1000368a:	2c00      	cmp	r4, #0
1000368c:	d100      	bne.n	10003690 <alarm_pool_add_alarm_at+0x3c>
1000368e:	e06e      	b.n	1000376e <alarm_pool_add_alarm_at+0x11a>
10003690:	0067      	lsls	r7, r4, #1
10003692:	682b      	ldr	r3, [r5, #0]
10003694:	193f      	adds	r7, r7, r4
10003696:	3f03      	subs	r7, #3
10003698:	19db      	adds	r3, r3, r7
1000369a:	785a      	ldrb	r2, [r3, #1]
1000369c:	73aa      	strb	r2, [r5, #14]
1000369e:	2a00      	cmp	r2, #0
100036a0:	d100      	bne.n	100036a4 <alarm_pool_add_alarm_at+0x50>
100036a2:	73ea      	strb	r2, [r5, #15]
100036a4:	4a48      	ldr	r2, [pc, #288]	@ (100037c8 <alarm_pool_add_alarm_at+0x174>)
100036a6:	18a1      	adds	r1, r4, r2
100036a8:	68b2      	ldr	r2, [r6, #8]
100036aa:	0109      	lsls	r1, r1, #4
100036ac:	1852      	adds	r2, r2, r1
100036ae:	9800      	ldr	r0, [sp, #0]
100036b0:	9901      	ldr	r1, [sp, #4]
100036b2:	6010      	str	r0, [r2, #0]
100036b4:	6051      	str	r1, [r2, #4]
100036b6:	990e      	ldr	r1, [sp, #56]	@ 0x38
100036b8:	6091      	str	r1, [r2, #8]
100036ba:	990f      	ldr	r1, [sp, #60]	@ 0x3c
100036bc:	60d1      	str	r1, [r2, #12]
100036be:	4642      	mov	r2, r8
100036c0:	709a      	strb	r2, [r3, #2]
100036c2:	705a      	strb	r2, [r3, #1]
100036c4:	701a      	strb	r2, [r3, #0]
100036c6:	7b6b      	ldrb	r3, [r5, #13]
100036c8:	4699      	mov	r9, r3
100036ca:	2b00      	cmp	r3, #0
100036cc:	d100      	bne.n	100036d0 <alarm_pool_add_alarm_at+0x7c>
100036ce:	e06b      	b.n	100037a8 <alarm_pool_add_alarm_at+0x154>
100036d0:	0022      	movs	r2, r4
100036d2:	686b      	ldr	r3, [r5, #4]
100036d4:	4649      	mov	r1, r9
100036d6:	68a8      	ldr	r0, [r5, #8]
100036d8:	4798      	blx	r3
100036da:	464b      	mov	r3, r9
100036dc:	005b      	lsls	r3, r3, #1
100036de:	444b      	add	r3, r9
100036e0:	682a      	ldr	r2, [r5, #0]
100036e2:	3b03      	subs	r3, #3
100036e4:	2800      	cmp	r0, #0
100036e6:	d056      	beq.n	10003796 <alarm_pool_add_alarm_at+0x142>
100036e8:	4648      	mov	r0, r9
100036ea:	19d7      	adds	r7, r2, r7
100036ec:	70b8      	strb	r0, [r7, #2]
100036ee:	18d1      	adds	r1, r2, r3
100036f0:	5cd3      	ldrb	r3, [r2, r3]
100036f2:	2b00      	cmp	r3, #0
100036f4:	d000      	beq.n	100036f8 <alarm_pool_add_alarm_at+0xa4>
100036f6:	707b      	strb	r3, [r7, #1]
100036f8:	464b      	mov	r3, r9
100036fa:	700c      	strb	r4, [r1, #0]
100036fc:	736b      	strb	r3, [r5, #13]
100036fe:	454c      	cmp	r4, r9
10003700:	d053      	beq.n	100037aa <alarm_pool_add_alarm_at+0x156>
10003702:	68f3      	ldr	r3, [r6, #12]
10003704:	191b      	adds	r3, r3, r4
10003706:	3b01      	subs	r3, #1
10003708:	7818      	ldrb	r0, [r3, #0]
1000370a:	6873      	ldr	r3, [r6, #4]
1000370c:	f3bf 8f5f 	dmb	sy
10003710:	4642      	mov	r2, r8
10003712:	601a      	str	r2, [r3, #0]
10003714:	f38b 8810 	msr	PRIMASK, fp
10003718:	4653      	mov	r3, sl
1000371a:	2b00      	cmp	r3, #0
1000371c:	d108      	bne.n	10003730 <alarm_pool_add_alarm_at+0xdc>
1000371e:	0200      	lsls	r0, r0, #8
10003720:	4320      	orrs	r0, r4
10003722:	b005      	add	sp, #20
10003724:	bcf0      	pop	{r4, r5, r6, r7}
10003726:	46bb      	mov	fp, r7
10003728:	46b2      	mov	sl, r6
1000372a:	46a9      	mov	r9, r5
1000372c:	46a0      	mov	r8, r4
1000372e:	bdf0      	pop	{r4, r5, r6, r7, pc}
10003730:	9b03      	ldr	r3, [sp, #12]
10003732:	2b00      	cmp	r3, #0
10003734:	d046      	beq.n	100037c4 <alarm_pool_add_alarm_at+0x170>
10003736:	9b0e      	ldr	r3, [sp, #56]	@ 0x38
10003738:	2000      	movs	r0, #0
1000373a:	990f      	ldr	r1, [sp, #60]	@ 0x3c
1000373c:	4798      	blx	r3
1000373e:	0003      	movs	r3, r0
10003740:	430b      	orrs	r3, r1
10003742:	d03f      	beq.n	100037c4 <alarm_pool_add_alarm_at+0x170>
10003744:	0004      	movs	r4, r0
10003746:	1e0d      	subs	r5, r1, #0
10003748:	da1a      	bge.n	10003780 <alarm_pool_add_alarm_at+0x12c>
1000374a:	9a00      	ldr	r2, [sp, #0]
1000374c:	9b01      	ldr	r3, [sp, #4]
1000374e:	1b12      	subs	r2, r2, r4
10003750:	41ab      	sbcs	r3, r5
10003752:	9200      	str	r2, [sp, #0]
10003754:	9301      	str	r3, [sp, #4]
10003756:	2280      	movs	r2, #128	@ 0x80
10003758:	0612      	lsls	r2, r2, #24
1000375a:	4293      	cmp	r3, r2
1000375c:	d304      	bcc.n	10003768 <alarm_pool_add_alarm_at+0x114>
1000375e:	2301      	movs	r3, #1
10003760:	4c1a      	ldr	r4, [pc, #104]	@ (100037cc <alarm_pool_add_alarm_at+0x178>)
10003762:	425b      	negs	r3, r3
10003764:	9300      	str	r3, [sp, #0]
10003766:	9401      	str	r4, [sp, #4]
10003768:	9b03      	ldr	r3, [sp, #12]
1000376a:	469a      	mov	sl, r3
1000376c:	e782      	b.n	10003674 <alarm_pool_add_alarm_at+0x20>
1000376e:	6873      	ldr	r3, [r6, #4]
10003770:	f3bf 8f5f 	dmb	sy
10003774:	601c      	str	r4, [r3, #0]
10003776:	f38b 8810 	msr	PRIMASK, fp
1000377a:	2001      	movs	r0, #1
1000377c:	4240      	negs	r0, r0
1000377e:	e7d0      	b.n	10003722 <alarm_pool_add_alarm_at+0xce>
10003780:	f000 f8f8 	bl	10003974 <time_us_64>
10003784:	2280      	movs	r2, #128	@ 0x80
10003786:	1900      	adds	r0, r0, r4
10003788:	4169      	adcs	r1, r5
1000378a:	0612      	lsls	r2, r2, #24
1000378c:	9000      	str	r0, [sp, #0]
1000378e:	9101      	str	r1, [sp, #4]
10003790:	4291      	cmp	r1, r2
10003792:	d3e9      	bcc.n	10003768 <alarm_pool_add_alarm_at+0x114>
10003794:	e7e3      	b.n	1000375e <alarm_pool_add_alarm_at+0x10a>
10003796:	18d3      	adds	r3, r2, r3
10003798:	709c      	strb	r4, [r3, #2]
1000379a:	19d1      	adds	r1, r2, r7
1000379c:	5dd2      	ldrb	r2, [r2, r7]
1000379e:	2a00      	cmp	r2, #0
100037a0:	d000      	beq.n	100037a4 <alarm_pool_add_alarm_at+0x150>
100037a2:	705a      	strb	r2, [r3, #1]
100037a4:	464b      	mov	r3, r9
100037a6:	700b      	strb	r3, [r1, #0]
100037a8:	736c      	strb	r4, [r5, #13]
100037aa:	7d30      	ldrb	r0, [r6, #20]
100037ac:	9a00      	ldr	r2, [sp, #0]
100037ae:	9b01      	ldr	r3, [sp, #4]
100037b0:	f000 f964 	bl	10003a7c <hardware_alarm_set_target>
100037b4:	4682      	mov	sl, r0
100037b6:	2800      	cmp	r0, #0
100037b8:	d0a3      	beq.n	10003702 <alarm_pool_add_alarm_at+0xae>
100037ba:	0021      	movs	r1, r4
100037bc:	6830      	ldr	r0, [r6, #0]
100037be:	f000 fb75 	bl	10003eac <ph_remove_and_free_node>
100037c2:	e79e      	b.n	10003702 <alarm_pool_add_alarm_at+0xae>
100037c4:	2000      	movs	r0, #0
100037c6:	e7ac      	b.n	10003722 <alarm_pool_add_alarm_at+0xce>
100037c8:	0fffffff 	.word	0x0fffffff
100037cc:	7fffffff 	.word	0x7fffffff

100037d0 <alarm_pool_core_num>:
100037d0:	7d40      	ldrb	r0, [r0, #21]
100037d2:	4770      	bx	lr

100037d4 <best_effort_wfe_or_timeout>:
100037d4:	b5f0      	push	{r4, r5, r6, r7, lr}
100037d6:	f3ef 8305 	mrs	r3, IPSR
100037da:	46ce      	mov	lr, r9
100037dc:	4647      	mov	r7, r8
100037de:	b580      	push	{r7, lr}
100037e0:	0005      	movs	r5, r0
100037e2:	000c      	movs	r4, r1
100037e4:	b085      	sub	sp, #20
100037e6:	2b00      	cmp	r3, #0
100037e8:	d012      	beq.n	10003810 <best_effort_wfe_or_timeout+0x3c>
100037ea:	4a2a      	ldr	r2, [pc, #168]	@ (10003894 <best_effort_wfe_or_timeout+0xc0>)
100037ec:	2000      	movs	r0, #0
100037ee:	6a53      	ldr	r3, [r2, #36]	@ 0x24
100037f0:	42a3      	cmp	r3, r4
100037f2:	d303      	bcc.n	100037fc <best_effort_wfe_or_timeout+0x28>
100037f4:	6a92      	ldr	r2, [r2, #40]	@ 0x28
100037f6:	3001      	adds	r0, #1
100037f8:	42aa      	cmp	r2, r5
100037fa:	d304      	bcc.n	10003806 <best_effort_wfe_or_timeout+0x32>
100037fc:	b005      	add	sp, #20
100037fe:	bcc0      	pop	{r6, r7}
10003800:	46b9      	mov	r9, r7
10003802:	46b0      	mov	r8, r6
10003804:	bdf0      	pop	{r4, r5, r6, r7, pc}
10003806:	1b1b      	subs	r3, r3, r4
10003808:	1e5a      	subs	r2, r3, #1
1000380a:	4193      	sbcs	r3, r2
1000380c:	b2d8      	uxtb	r0, r3
1000380e:	e7f5      	b.n	100037fc <best_effort_wfe_or_timeout+0x28>
10003810:	4e21      	ldr	r6, [pc, #132]	@ (10003898 <best_effort_wfe_or_timeout+0xc4>)
10003812:	9302      	str	r3, [sp, #8]
10003814:	9301      	str	r3, [sp, #4]
10003816:	4b21      	ldr	r3, [pc, #132]	@ (1000389c <best_effort_wfe_or_timeout+0xc8>)
10003818:	0002      	movs	r2, r0
1000381a:	9300      	str	r3, [sp, #0]
1000381c:	0030      	movs	r0, r6
1000381e:	000b      	movs	r3, r1
10003820:	f7ff ff18 	bl	10003654 <alarm_pool_add_alarm_at>
10003824:	1e03      	subs	r3, r0, #0
10003826:	dde0      	ble.n	100037ea <best_effort_wfe_or_timeout+0x16>
10003828:	bf20      	wfe
1000382a:	6871      	ldr	r1, [r6, #4]
1000382c:	f3ef 8710 	mrs	r7, PRIMASK
10003830:	b672      	cpsid	i
10003832:	680a      	ldr	r2, [r1, #0]
10003834:	2a00      	cmp	r2, #0
10003836:	d0fc      	beq.n	10003832 <best_effort_wfe_or_timeout+0x5e>
10003838:	f3bf 8f5f 	dmb	sy
1000383c:	b2da      	uxtb	r2, r3
1000383e:	4694      	mov	ip, r2
10003840:	22ff      	movs	r2, #255	@ 0xff
10003842:	6830      	ldr	r0, [r6, #0]
10003844:	401a      	ands	r2, r3
10003846:	7b41      	ldrb	r1, [r0, #13]
10003848:	4561      	cmp	r1, ip
1000384a:	d00f      	beq.n	1000386c <best_effort_wfe_or_timeout+0x98>
1000384c:	6801      	ldr	r1, [r0, #0]
1000384e:	4689      	mov	r9, r1
10003850:	0051      	lsls	r1, r2, #1
10003852:	4688      	mov	r8, r1
10003854:	4649      	mov	r1, r9
10003856:	4490      	add	r8, r2
10003858:	4441      	add	r1, r8
1000385a:	3903      	subs	r1, #3
1000385c:	7889      	ldrb	r1, [r1, #2]
1000385e:	2900      	cmp	r1, #0
10003860:	d104      	bne.n	1000386c <best_effort_wfe_or_timeout+0x98>
10003862:	6932      	ldr	r2, [r6, #16]
10003864:	4293      	cmp	r3, r2
10003866:	d109      	bne.n	1000387c <best_effort_wfe_or_timeout+0xa8>
10003868:	6131      	str	r1, [r6, #16]
1000386a:	e007      	b.n	1000387c <best_effort_wfe_or_timeout+0xa8>
1000386c:	68f1      	ldr	r1, [r6, #12]
1000386e:	0a1b      	lsrs	r3, r3, #8
10003870:	188a      	adds	r2, r1, r2
10003872:	3a01      	subs	r2, #1
10003874:	7812      	ldrb	r2, [r2, #0]
10003876:	b2db      	uxtb	r3, r3
10003878:	429a      	cmp	r2, r3
1000387a:	d007      	beq.n	1000388c <best_effort_wfe_or_timeout+0xb8>
1000387c:	6873      	ldr	r3, [r6, #4]
1000387e:	f3bf 8f5f 	dmb	sy
10003882:	2200      	movs	r2, #0
10003884:	601a      	str	r2, [r3, #0]
10003886:	f387 8810 	msr	PRIMASK, r7
1000388a:	e7ae      	b.n	100037ea <best_effort_wfe_or_timeout+0x16>
1000388c:	4661      	mov	r1, ip
1000388e:	f000 fb0d 	bl	10003eac <ph_remove_and_free_node>
10003892:	e7f3      	b.n	1000387c <best_effort_wfe_or_timeout+0xa8>
10003894:	40054000 	.word	0x40054000
10003898:	20001e20 	.word	0x20001e20
1000389c:	100032f1 	.word	0x100032f1

100038a0 <hardware_alarm_irq_handler>:
100038a0:	b5f0      	push	{r4, r5, r6, r7, lr}
100038a2:	f3ef 8205 	mrs	r2, IPSR
100038a6:	46d6      	mov	lr, sl
100038a8:	464f      	mov	r7, r9
100038aa:	4646      	mov	r6, r8
100038ac:	0010      	movs	r0, r2
100038ae:	b5c0      	push	{r6, r7, lr}
100038b0:	3810      	subs	r0, #16
100038b2:	f3ef 8810 	mrs	r8, PRIMASK
100038b6:	b672      	cpsid	i
100038b8:	4c21      	ldr	r4, [pc, #132]	@ (10003940 <hardware_alarm_irq_handler+0xa0>)
100038ba:	6823      	ldr	r3, [r4, #0]
100038bc:	2b00      	cmp	r3, #0
100038be:	d0fc      	beq.n	100038ba <hardware_alarm_irq_handler+0x1a>
100038c0:	f3bf 8f5f 	dmb	sy
100038c4:	2301      	movs	r3, #1
100038c6:	0019      	movs	r1, r3
100038c8:	4081      	lsls	r1, r0
100038ca:	4d1e      	ldr	r5, [pc, #120]	@ (10003944 <hardware_alarm_irq_handler+0xa4>)
100038cc:	001f      	movs	r7, r3
100038ce:	6369      	str	r1, [r5, #52]	@ 0x34
100038d0:	46aa      	mov	sl, r5
100038d2:	4d1d      	ldr	r5, [pc, #116]	@ (10003948 <hardware_alarm_irq_handler+0xa8>)
100038d4:	6029      	str	r1, [r5, #0]
100038d6:	4d1d      	ldr	r5, [pc, #116]	@ (1000394c <hardware_alarm_irq_handler+0xac>)
100038d8:	782e      	ldrb	r6, [r5, #0]
100038da:	46ac      	mov	ip, r5
100038dc:	0035      	movs	r5, r6
100038de:	40c5      	lsrs	r5, r0
100038e0:	402f      	ands	r7, r5
100038e2:	422b      	tst	r3, r5
100038e4:	d015      	beq.n	10003912 <hardware_alarm_irq_handler+0x72>
100038e6:	4653      	mov	r3, sl
100038e8:	6a5f      	ldr	r7, [r3, #36]	@ 0x24
100038ea:	4b19      	ldr	r3, [pc, #100]	@ (10003950 <hardware_alarm_irq_handler+0xb0>)
100038ec:	0085      	lsls	r5, r0, #2
100038ee:	58eb      	ldr	r3, [r5, r3]
100038f0:	429f      	cmp	r7, r3
100038f2:	d318      	bcc.n	10003926 <hardware_alarm_irq_handler+0x86>
100038f4:	4662      	mov	r2, ip
100038f6:	4b17      	ldr	r3, [pc, #92]	@ (10003954 <hardware_alarm_irq_handler+0xb4>)
100038f8:	438e      	bics	r6, r1
100038fa:	58eb      	ldr	r3, [r5, r3]
100038fc:	7016      	strb	r6, [r2, #0]
100038fe:	f3bf 8f5f 	dmb	sy
10003902:	2200      	movs	r2, #0
10003904:	6022      	str	r2, [r4, #0]
10003906:	f388 8810 	msr	PRIMASK, r8
1000390a:	2b00      	cmp	r3, #0
1000390c:	d006      	beq.n	1000391c <hardware_alarm_irq_handler+0x7c>
1000390e:	4798      	blx	r3
10003910:	e004      	b.n	1000391c <hardware_alarm_irq_handler+0x7c>
10003912:	f3bf 8f5f 	dmb	sy
10003916:	6027      	str	r7, [r4, #0]
10003918:	f388 8810 	msr	PRIMASK, r8
1000391c:	bce0      	pop	{r5, r6, r7}
1000391e:	46ba      	mov	sl, r7
10003920:	46b1      	mov	r9, r6
10003922:	46a8      	mov	r8, r5
10003924:	bdf0      	pop	{r4, r5, r6, r7, pc}
10003926:	4b0c      	ldr	r3, [pc, #48]	@ (10003958 <hardware_alarm_irq_handler+0xb8>)
10003928:	0092      	lsls	r2, r2, #2
1000392a:	469c      	mov	ip, r3
1000392c:	4462      	add	r2, ip
1000392e:	6813      	ldr	r3, [r2, #0]
10003930:	6013      	str	r3, [r2, #0]
10003932:	f3bf 8f5f 	dmb	sy
10003936:	2300      	movs	r3, #0
10003938:	6023      	str	r3, [r4, #0]
1000393a:	f388 8810 	msr	PRIMASK, r8
1000393e:	e7ed      	b.n	1000391c <hardware_alarm_irq_handler+0x7c>
10003940:	d0000128 	.word	0xd0000128
10003944:	40054000 	.word	0x40054000
10003948:	4005703c 	.word	0x4005703c
1000394c:	200034f8 	.word	0x200034f8
10003950:	200034cc 	.word	0x200034cc
10003954:	20002edc 	.word	0x20002edc
10003958:	40053fd0 	.word	0x40053fd0

1000395c <hardware_alarm_claim>:
1000395c:	b510      	push	{r4, lr}
1000395e:	4b03      	ldr	r3, [pc, #12]	@ (1000396c <hardware_alarm_claim+0x10>)
10003960:	0001      	movs	r1, r0
10003962:	0018      	movs	r0, r3
10003964:	4a02      	ldr	r2, [pc, #8]	@ (10003970 <hardware_alarm_claim+0x14>)
10003966:	f7ff f911 	bl	10002b8c <hw_claim_or_assert>
1000396a:	bd10      	pop	{r4, pc}
1000396c:	200034f3 	.word	0x200034f3
10003970:	100199fc 	.word	0x100199fc

10003974 <time_us_64>:
10003974:	4b03      	ldr	r3, [pc, #12]	@ (10003984 <time_us_64+0x10>)
10003976:	6a59      	ldr	r1, [r3, #36]	@ 0x24
10003978:	000a      	movs	r2, r1
1000397a:	6a98      	ldr	r0, [r3, #40]	@ 0x28
1000397c:	6a59      	ldr	r1, [r3, #36]	@ 0x24
1000397e:	428a      	cmp	r2, r1
10003980:	d1fa      	bne.n	10003978 <time_us_64+0x4>
10003982:	4770      	bx	lr
10003984:	40054000 	.word	0x40054000

10003988 <busy_wait_us>:
10003988:	b570      	push	{r4, r5, r6, lr}
1000398a:	0004      	movs	r4, r0
1000398c:	000d      	movs	r5, r1
1000398e:	4a17      	ldr	r2, [pc, #92]	@ (100039ec <busy_wait_us+0x64>)
10003990:	6a53      	ldr	r3, [r2, #36]	@ 0x24
10003992:	0019      	movs	r1, r3
10003994:	6a96      	ldr	r6, [r2, #40]	@ 0x28
10003996:	6a53      	ldr	r3, [r2, #36]	@ 0x24
10003998:	428b      	cmp	r3, r1
1000399a:	d1fa      	bne.n	10003992 <busy_wait_us+0xa>
1000399c:	0030      	movs	r0, r6
1000399e:	0019      	movs	r1, r3
100039a0:	1824      	adds	r4, r4, r0
100039a2:	414d      	adcs	r5, r1
100039a4:	42ab      	cmp	r3, r5
100039a6:	d816      	bhi.n	100039d6 <busy_wait_us+0x4e>
100039a8:	d013      	beq.n	100039d2 <busy_wait_us+0x4a>
100039aa:	4b10      	ldr	r3, [pc, #64]	@ (100039ec <busy_wait_us+0x64>)
100039ac:	002a      	movs	r2, r5
100039ae:	6a5b      	ldr	r3, [r3, #36]	@ 0x24
100039b0:	429d      	cmp	r5, r3
100039b2:	d903      	bls.n	100039bc <busy_wait_us+0x34>
100039b4:	490d      	ldr	r1, [pc, #52]	@ (100039ec <busy_wait_us+0x64>)
100039b6:	6a4b      	ldr	r3, [r1, #36]	@ 0x24
100039b8:	4293      	cmp	r3, r2
100039ba:	d3fc      	bcc.n	100039b6 <busy_wait_us+0x2e>
100039bc:	4293      	cmp	r3, r2
100039be:	d107      	bne.n	100039d0 <busy_wait_us+0x48>
100039c0:	4a0a      	ldr	r2, [pc, #40]	@ (100039ec <busy_wait_us+0x64>)
100039c2:	e002      	b.n	100039ca <busy_wait_us+0x42>
100039c4:	6a51      	ldr	r1, [r2, #36]	@ 0x24
100039c6:	4299      	cmp	r1, r3
100039c8:	d102      	bne.n	100039d0 <busy_wait_us+0x48>
100039ca:	6a91      	ldr	r1, [r2, #40]	@ 0x28
100039cc:	42a1      	cmp	r1, r4
100039ce:	d3f9      	bcc.n	100039c4 <busy_wait_us+0x3c>
100039d0:	bd70      	pop	{r4, r5, r6, pc}
100039d2:	42a6      	cmp	r6, r4
100039d4:	d9e9      	bls.n	100039aa <busy_wait_us+0x22>
100039d6:	4b05      	ldr	r3, [pc, #20]	@ (100039ec <busy_wait_us+0x64>)
100039d8:	6a5b      	ldr	r3, [r3, #36]	@ 0x24
100039da:	001c      	movs	r4, r3
100039dc:	1c5a      	adds	r2, r3, #1
100039de:	d0ef      	beq.n	100039c0 <busy_wait_us+0x38>
100039e0:	2201      	movs	r2, #1
100039e2:	2401      	movs	r4, #1
100039e4:	4264      	negs	r4, r4
100039e6:	17e5      	asrs	r5, r4, #31
100039e8:	4252      	negs	r2, r2
100039ea:	e7e3      	b.n	100039b4 <busy_wait_us+0x2c>
100039ec:	40054000 	.word	0x40054000

100039f0 <hardware_alarm_set_callback>:
100039f0:	b570      	push	{r4, r5, r6, lr}
100039f2:	0004      	movs	r4, r0
100039f4:	000d      	movs	r5, r1
100039f6:	f3ef 8610 	mrs	r6, PRIMASK
100039fa:	b672      	cpsid	i
100039fc:	4a1a      	ldr	r2, [pc, #104]	@ (10003a68 <hardware_alarm_set_callback+0x78>)
100039fe:	6813      	ldr	r3, [r2, #0]
10003a00:	2b00      	cmp	r3, #0
10003a02:	d0fc      	beq.n	100039fe <hardware_alarm_set_callback+0xe>
10003a04:	f3bf 8f5f 	dmb	sy
10003a08:	2d00      	cmp	r5, #0
10003a0a:	d01b      	beq.n	10003a44 <hardware_alarm_set_callback+0x54>
10003a0c:	0020      	movs	r0, r4
10003a0e:	f7ff f989 	bl	10002d24 <irq_get_vtable_handler>
10003a12:	4916      	ldr	r1, [pc, #88]	@ (10003a6c <hardware_alarm_set_callback+0x7c>)
10003a14:	4281      	cmp	r1, r0
10003a16:	d00a      	beq.n	10003a2e <hardware_alarm_set_callback+0x3e>
10003a18:	0020      	movs	r0, r4
10003a1a:	f7ff f98b 	bl	10002d34 <irq_set_exclusive_handler>
10003a1e:	2101      	movs	r1, #1
10003a20:	0020      	movs	r0, r4
10003a22:	f7ff f94f 	bl	10002cc4 <irq_set_enabled>
10003a26:	2301      	movs	r3, #1
10003a28:	40a3      	lsls	r3, r4
10003a2a:	4a11      	ldr	r2, [pc, #68]	@ (10003a70 <hardware_alarm_set_callback+0x80>)
10003a2c:	6013      	str	r3, [r2, #0]
10003a2e:	4b11      	ldr	r3, [pc, #68]	@ (10003a74 <hardware_alarm_set_callback+0x84>)
10003a30:	00a4      	lsls	r4, r4, #2
10003a32:	50e5      	str	r5, [r4, r3]
10003a34:	f3bf 8f5f 	dmb	sy
10003a38:	2200      	movs	r2, #0
10003a3a:	4b0b      	ldr	r3, [pc, #44]	@ (10003a68 <hardware_alarm_set_callback+0x78>)
10003a3c:	601a      	str	r2, [r3, #0]
10003a3e:	f386 8810 	msr	PRIMASK, r6
10003a42:	bd70      	pop	{r4, r5, r6, pc}
10003a44:	2101      	movs	r1, #1
10003a46:	40a1      	lsls	r1, r4
10003a48:	4b0a      	ldr	r3, [pc, #40]	@ (10003a74 <hardware_alarm_set_callback+0x84>)
10003a4a:	00a2      	lsls	r2, r4, #2
10003a4c:	50d5      	str	r5, [r2, r3]
10003a4e:	4b0a      	ldr	r3, [pc, #40]	@ (10003a78 <hardware_alarm_set_callback+0x88>)
10003a50:	0020      	movs	r0, r4
10003a52:	781a      	ldrb	r2, [r3, #0]
10003a54:	438a      	bics	r2, r1
10003a56:	4905      	ldr	r1, [pc, #20]	@ (10003a6c <hardware_alarm_set_callback+0x7c>)
10003a58:	701a      	strb	r2, [r3, #0]
10003a5a:	f7ff fa8f 	bl	10002f7c <irq_remove_handler>
10003a5e:	2100      	movs	r1, #0
10003a60:	0020      	movs	r0, r4
10003a62:	f7ff f92f 	bl	10002cc4 <irq_set_enabled>
10003a66:	e7e5      	b.n	10003a34 <hardware_alarm_set_callback+0x44>
10003a68:	d0000128 	.word	0xd0000128
10003a6c:	100038a1 	.word	0x100038a1
10003a70:	40056038 	.word	0x40056038
10003a74:	20002edc 	.word	0x20002edc
10003a78:	200034f8 	.word	0x200034f8

10003a7c <hardware_alarm_set_target>:
10003a7c:	b5f0      	push	{r4, r5, r6, r7, lr}
10003a7e:	464f      	mov	r7, r9
10003a80:	46d6      	mov	lr, sl
10003a82:	4646      	mov	r6, r8
10003a84:	b5c0      	push	{r6, r7, lr}
10003a86:	0007      	movs	r7, r0
10003a88:	4c2b      	ldr	r4, [pc, #172]	@ (10003b38 <hardware_alarm_set_target+0xbc>)
10003a8a:	6a61      	ldr	r1, [r4, #36]	@ 0x24
10003a8c:	000d      	movs	r5, r1
10003a8e:	6aa6      	ldr	r6, [r4, #40]	@ 0x28
10003a90:	6a61      	ldr	r1, [r4, #36]	@ 0x24
10003a92:	42a9      	cmp	r1, r5
10003a94:	d1fa      	bne.n	10003a8c <hardware_alarm_set_target+0x10>
10003a96:	428b      	cmp	r3, r1
10003a98:	d808      	bhi.n	10003aac <hardware_alarm_set_target+0x30>
10003a9a:	d005      	beq.n	10003aa8 <hardware_alarm_set_target+0x2c>
10003a9c:	2001      	movs	r0, #1
10003a9e:	bce0      	pop	{r5, r6, r7}
10003aa0:	46ba      	mov	sl, r7
10003aa2:	46b1      	mov	r9, r6
10003aa4:	46a8      	mov	r8, r5
10003aa6:	bdf0      	pop	{r4, r5, r6, r7, pc}
10003aa8:	42b2      	cmp	r2, r6
10003aaa:	d9f7      	bls.n	10003a9c <hardware_alarm_set_target+0x20>
10003aac:	f3ef 8a10 	mrs	sl, PRIMASK
10003ab0:	b672      	cpsid	i
10003ab2:	4822      	ldr	r0, [pc, #136]	@ (10003b3c <hardware_alarm_set_target+0xc0>)
10003ab4:	6801      	ldr	r1, [r0, #0]
10003ab6:	2900      	cmp	r1, #0
10003ab8:	d0fc      	beq.n	10003ab4 <hardware_alarm_set_target+0x38>
10003aba:	f3bf 8f5f 	dmb	sy
10003abe:	2501      	movs	r5, #1
10003ac0:	40bd      	lsls	r5, r7
10003ac2:	491f      	ldr	r1, [pc, #124]	@ (10003b40 <hardware_alarm_set_target+0xc4>)
10003ac4:	4c1c      	ldr	r4, [pc, #112]	@ (10003b38 <hardware_alarm_set_target+0xbc>)
10003ac6:	4688      	mov	r8, r1
10003ac8:	7809      	ldrb	r1, [r1, #0]
10003aca:	4689      	mov	r9, r1
10003acc:	4329      	orrs	r1, r5
10003ace:	b2c9      	uxtb	r1, r1
10003ad0:	468c      	mov	ip, r1
10003ad2:	4641      	mov	r1, r8
10003ad4:	4660      	mov	r0, ip
10003ad6:	7008      	strb	r0, [r1, #0]
10003ad8:	1d39      	adds	r1, r7, #4
10003ada:	0089      	lsls	r1, r1, #2
10003adc:	6365      	str	r5, [r4, #52]	@ 0x34
10003ade:	510a      	str	r2, [r1, r4]
10003ae0:	4918      	ldr	r1, [pc, #96]	@ (10003b44 <hardware_alarm_set_target+0xc8>)
10003ae2:	00b8      	lsls	r0, r7, #2
10003ae4:	5043      	str	r3, [r0, r1]
10003ae6:	6a21      	ldr	r1, [r4, #32]
10003ae8:	2000      	movs	r0, #0
10003aea:	4229      	tst	r1, r5
10003aec:	d019      	beq.n	10003b22 <hardware_alarm_set_target+0xa6>
10003aee:	6a61      	ldr	r1, [r4, #36]	@ 0x24
10003af0:	0008      	movs	r0, r1
10003af2:	6aa6      	ldr	r6, [r4, #40]	@ 0x28
10003af4:	6a61      	ldr	r1, [r4, #36]	@ 0x24
10003af6:	4281      	cmp	r1, r0
10003af8:	d1fa      	bne.n	10003af0 <hardware_alarm_set_target+0x74>
10003afa:	428b      	cmp	r3, r1
10003afc:	d819      	bhi.n	10003b32 <hardware_alarm_set_target+0xb6>
10003afe:	d101      	bne.n	10003b04 <hardware_alarm_set_target+0x88>
10003b00:	42b2      	cmp	r2, r6
10003b02:	d816      	bhi.n	10003b32 <hardware_alarm_set_target+0xb6>
10003b04:	45cc      	cmp	ip, r9
10003b06:	d00b      	beq.n	10003b20 <hardware_alarm_set_target+0xa4>
10003b08:	4b0b      	ldr	r3, [pc, #44]	@ (10003b38 <hardware_alarm_set_target+0xbc>)
10003b0a:	221f      	movs	r2, #31
10003b0c:	621d      	str	r5, [r3, #32]
10003b0e:	635d      	str	r5, [r3, #52]	@ 0x34
10003b10:	2301      	movs	r3, #1
10003b12:	403a      	ands	r2, r7
10003b14:	4093      	lsls	r3, r2
10003b16:	4a0c      	ldr	r2, [pc, #48]	@ (10003b48 <hardware_alarm_set_target+0xcc>)
10003b18:	6013      	str	r3, [r2, #0]
10003b1a:	4643      	mov	r3, r8
10003b1c:	464a      	mov	r2, r9
10003b1e:	701a      	strb	r2, [r3, #0]
10003b20:	2001      	movs	r0, #1
10003b22:	f3bf 8f5f 	dmb	sy
10003b26:	2200      	movs	r2, #0
10003b28:	4b04      	ldr	r3, [pc, #16]	@ (10003b3c <hardware_alarm_set_target+0xc0>)
10003b2a:	601a      	str	r2, [r3, #0]
10003b2c:	f38a 8810 	msr	PRIMASK, sl
10003b30:	e7b5      	b.n	10003a9e <hardware_alarm_set_target+0x22>
10003b32:	2000      	movs	r0, #0
10003b34:	e7f5      	b.n	10003b22 <hardware_alarm_set_target+0xa6>
10003b36:	46c0      	nop			@ (mov r8, r8)
10003b38:	40054000 	.word	0x40054000
10003b3c:	d0000128 	.word	0xd0000128
10003b40:	200034f8 	.word	0x200034f8
10003b44:	200034cc 	.word	0x200034cc
10003b48:	e000e280 	.word	0xe000e280

10003b4c <hardware_alarm_cancel>:
10003b4c:	f3ef 8c10 	mrs	ip, PRIMASK
10003b50:	b672      	cpsid	i
10003b52:	490a      	ldr	r1, [pc, #40]	@ (10003b7c <hardware_alarm_cancel+0x30>)
10003b54:	680b      	ldr	r3, [r1, #0]
10003b56:	2b00      	cmp	r3, #0
10003b58:	d0fc      	beq.n	10003b54 <hardware_alarm_cancel+0x8>
10003b5a:	f3bf 8f5f 	dmb	sy
10003b5e:	2301      	movs	r3, #1
10003b60:	4083      	lsls	r3, r0
10003b62:	4a07      	ldr	r2, [pc, #28]	@ (10003b80 <hardware_alarm_cancel+0x34>)
10003b64:	4807      	ldr	r0, [pc, #28]	@ (10003b84 <hardware_alarm_cancel+0x38>)
10003b66:	6213      	str	r3, [r2, #32]
10003b68:	7802      	ldrb	r2, [r0, #0]
10003b6a:	439a      	bics	r2, r3
10003b6c:	7002      	strb	r2, [r0, #0]
10003b6e:	f3bf 8f5f 	dmb	sy
10003b72:	2300      	movs	r3, #0
10003b74:	600b      	str	r3, [r1, #0]
10003b76:	f38c 8810 	msr	PRIMASK, ip
10003b7a:	4770      	bx	lr
10003b7c:	d0000128 	.word	0xd0000128
10003b80:	40054000 	.word	0x40054000
10003b84:	200034f8 	.word	0x200034f8

10003b88 <ph_merge_nodes>:
10003b88:	b570      	push	{r4, r5, r6, lr}
10003b8a:	0006      	movs	r6, r0
10003b8c:	000d      	movs	r5, r1
10003b8e:	0014      	movs	r4, r2
10003b90:	2900      	cmp	r1, #0
10003b92:	d01d      	beq.n	10003bd0 <ph_merge_nodes+0x48>
10003b94:	2a00      	cmp	r2, #0
10003b96:	d012      	beq.n	10003bbe <ph_merge_nodes+0x36>
10003b98:	6873      	ldr	r3, [r6, #4]
10003b9a:	6880      	ldr	r0, [r0, #8]
10003b9c:	4798      	blx	r3
10003b9e:	0062      	lsls	r2, r4, #1
10003ba0:	006b      	lsls	r3, r5, #1
10003ba2:	1912      	adds	r2, r2, r4
10003ba4:	195b      	adds	r3, r3, r5
10003ba6:	6831      	ldr	r1, [r6, #0]
10003ba8:	3a03      	subs	r2, #3
10003baa:	3b03      	subs	r3, #3
10003bac:	2800      	cmp	r0, #0
10003bae:	d008      	beq.n	10003bc2 <ph_merge_nodes+0x3a>
10003bb0:	188a      	adds	r2, r1, r2
10003bb2:	7095      	strb	r5, [r2, #2]
10003bb4:	18c8      	adds	r0, r1, r3
10003bb6:	5ccb      	ldrb	r3, [r1, r3]
10003bb8:	2b00      	cmp	r3, #0
10003bba:	d10b      	bne.n	10003bd4 <ph_merge_nodes+0x4c>
10003bbc:	7004      	strb	r4, [r0, #0]
10003bbe:	0028      	movs	r0, r5
10003bc0:	bd70      	pop	{r4, r5, r6, pc}
10003bc2:	18cb      	adds	r3, r1, r3
10003bc4:	709c      	strb	r4, [r3, #2]
10003bc6:	1888      	adds	r0, r1, r2
10003bc8:	5c8a      	ldrb	r2, [r1, r2]
10003bca:	2a00      	cmp	r2, #0
10003bcc:	d105      	bne.n	10003bda <ph_merge_nodes+0x52>
10003bce:	7005      	strb	r5, [r0, #0]
10003bd0:	0020      	movs	r0, r4
10003bd2:	e7f5      	b.n	10003bc0 <ph_merge_nodes+0x38>
10003bd4:	7053      	strb	r3, [r2, #1]
10003bd6:	7004      	strb	r4, [r0, #0]
10003bd8:	e7f1      	b.n	10003bbe <ph_merge_nodes+0x36>
10003bda:	705a      	strb	r2, [r3, #1]
10003bdc:	7005      	strb	r5, [r0, #0]
10003bde:	e7f7      	b.n	10003bd0 <ph_merge_nodes+0x48>

10003be0 <ph_post_alloc_init>:
10003be0:	b510      	push	{r4, lr}
10003be2:	6083      	str	r3, [r0, #8]
10003be4:	2300      	movs	r3, #0
10003be6:	b2cc      	uxtb	r4, r1
10003be8:	7343      	strb	r3, [r0, #13]
10003bea:	3301      	adds	r3, #1
10003bec:	6042      	str	r2, [r0, #4]
10003bee:	7304      	strb	r4, [r0, #12]
10003bf0:	7383      	strb	r3, [r0, #14]
10003bf2:	73c4      	strb	r4, [r0, #15]
10003bf4:	6800      	ldr	r0, [r0, #0]
10003bf6:	1c42      	adds	r2, r0, #1
10003bf8:	2c01      	cmp	r4, #1
10003bfa:	d905      	bls.n	10003c08 <ph_post_alloc_init+0x28>
10003bfc:	3301      	adds	r3, #1
10003bfe:	b2db      	uxtb	r3, r3
10003c00:	7013      	strb	r3, [r2, #0]
10003c02:	3203      	adds	r2, #3
10003c04:	429c      	cmp	r4, r3
10003c06:	d1f9      	bne.n	10003bfc <ph_post_alloc_init+0x1c>
10003c08:	23ff      	movs	r3, #255	@ 0xff
10003c0a:	400b      	ands	r3, r1
10003c0c:	005a      	lsls	r2, r3, #1
10003c0e:	18d3      	adds	r3, r2, r3
10003c10:	18c0      	adds	r0, r0, r3
10003c12:	2300      	movs	r3, #0
10003c14:	3803      	subs	r0, #3
10003c16:	7043      	strb	r3, [r0, #1]
10003c18:	bd10      	pop	{r4, pc}
10003c1a:	46c0      	nop			@ (mov r8, r8)

10003c1c <ph_merge_two_pass>:
10003c1c:	b570      	push	{r4, r5, r6, lr}
10003c1e:	0005      	movs	r5, r0
10003c20:	1e0c      	subs	r4, r1, #0
10003c22:	d007      	beq.n	10003c34 <ph_merge_two_pass+0x18>
10003c24:	0063      	lsls	r3, r4, #1
10003c26:	6801      	ldr	r1, [r0, #0]
10003c28:	191b      	adds	r3, r3, r4
10003c2a:	3b03      	subs	r3, #3
10003c2c:	18cb      	adds	r3, r1, r3
10003c2e:	785a      	ldrb	r2, [r3, #1]
10003c30:	2a00      	cmp	r2, #0
10003c32:	d101      	bne.n	10003c38 <ph_merge_two_pass+0x1c>
10003c34:	0020      	movs	r0, r4
10003c36:	bd70      	pop	{r4, r5, r6, pc}
10003c38:	0050      	lsls	r0, r2, #1
10003c3a:	1880      	adds	r0, r0, r2
10003c3c:	3803      	subs	r0, #3
10003c3e:	1809      	adds	r1, r1, r0
10003c40:	2000      	movs	r0, #0
10003c42:	784e      	ldrb	r6, [r1, #1]
10003c44:	7048      	strb	r0, [r1, #1]
10003c46:	0021      	movs	r1, r4
10003c48:	7058      	strb	r0, [r3, #1]
10003c4a:	0028      	movs	r0, r5
10003c4c:	f7ff ff9c 	bl	10003b88 <ph_merge_nodes>
10003c50:	0031      	movs	r1, r6
10003c52:	0004      	movs	r4, r0
10003c54:	0028      	movs	r0, r5
10003c56:	f7ff ffe1 	bl	10003c1c <ph_merge_two_pass>
10003c5a:	0006      	movs	r6, r0
10003c5c:	2c00      	cmp	r4, #0
10003c5e:	d020      	beq.n	10003ca2 <ph_merge_two_pass+0x86>
10003c60:	2800      	cmp	r0, #0
10003c62:	d0e7      	beq.n	10003c34 <ph_merge_two_pass+0x18>
10003c64:	0032      	movs	r2, r6
10003c66:	0021      	movs	r1, r4
10003c68:	686b      	ldr	r3, [r5, #4]
10003c6a:	68a8      	ldr	r0, [r5, #8]
10003c6c:	4798      	blx	r3
10003c6e:	0072      	lsls	r2, r6, #1
10003c70:	0063      	lsls	r3, r4, #1
10003c72:	1992      	adds	r2, r2, r6
10003c74:	191b      	adds	r3, r3, r4
10003c76:	6829      	ldr	r1, [r5, #0]
10003c78:	3a03      	subs	r2, #3
10003c7a:	3b03      	subs	r3, #3
10003c7c:	2800      	cmp	r0, #0
10003c7e:	d008      	beq.n	10003c92 <ph_merge_two_pass+0x76>
10003c80:	188a      	adds	r2, r1, r2
10003c82:	7094      	strb	r4, [r2, #2]
10003c84:	18c8      	adds	r0, r1, r3
10003c86:	5ccb      	ldrb	r3, [r1, r3]
10003c88:	2b00      	cmp	r3, #0
10003c8a:	d000      	beq.n	10003c8e <ph_merge_two_pass+0x72>
10003c8c:	7053      	strb	r3, [r2, #1]
10003c8e:	7006      	strb	r6, [r0, #0]
10003c90:	e7d0      	b.n	10003c34 <ph_merge_two_pass+0x18>
10003c92:	18cb      	adds	r3, r1, r3
10003c94:	709e      	strb	r6, [r3, #2]
10003c96:	1888      	adds	r0, r1, r2
10003c98:	5c8a      	ldrb	r2, [r1, r2]
10003c9a:	2a00      	cmp	r2, #0
10003c9c:	d000      	beq.n	10003ca0 <ph_merge_two_pass+0x84>
10003c9e:	705a      	strb	r2, [r3, #1]
10003ca0:	7004      	strb	r4, [r0, #0]
10003ca2:	0034      	movs	r4, r6
10003ca4:	e7c6      	b.n	10003c34 <ph_merge_two_pass+0x18>
10003ca6:	46c0      	nop			@ (mov r8, r8)

10003ca8 <ph_remove_any_head>:
10003ca8:	b5f0      	push	{r4, r5, r6, r7, lr}
10003caa:	4657      	mov	r7, sl
10003cac:	4645      	mov	r5, r8
10003cae:	46de      	mov	lr, fp
10003cb0:	464e      	mov	r6, r9
10003cb2:	b5e0      	push	{r5, r6, r7, lr}
10003cb4:	000d      	movs	r5, r1
10003cb6:	006f      	lsls	r7, r5, #1
10003cb8:	6801      	ldr	r1, [r0, #0]
10003cba:	197f      	adds	r7, r7, r5
10003cbc:	3f03      	subs	r7, #3
10003cbe:	0004      	movs	r4, r0
10003cc0:	5dc8      	ldrb	r0, [r1, r7]
10003cc2:	b083      	sub	sp, #12
10003cc4:	9201      	str	r2, [sp, #4]
10003cc6:	19ca      	adds	r2, r1, r7
10003cc8:	2800      	cmp	r0, #0
10003cca:	d050      	beq.n	10003d6e <ph_remove_any_head+0xc6>
10003ccc:	0043      	lsls	r3, r0, #1
10003cce:	181b      	adds	r3, r3, r0
10003cd0:	3b03      	subs	r3, #3
10003cd2:	18cb      	adds	r3, r1, r3
10003cd4:	785e      	ldrb	r6, [r3, #1]
10003cd6:	46b4      	mov	ip, r6
10003cd8:	2e00      	cmp	r6, #0
10003cda:	d11a      	bne.n	10003d12 <ph_remove_any_head+0x6a>
10003cdc:	9e01      	ldr	r6, [sp, #4]
10003cde:	2e00      	cmp	r6, #0
10003ce0:	d042      	beq.n	10003d68 <ph_remove_any_head+0xc0>
10003ce2:	7be6      	ldrb	r6, [r4, #15]
10003ce4:	2e00      	cmp	r6, #0
10003ce6:	d004      	beq.n	10003cf2 <ph_remove_any_head+0x4a>
10003ce8:	0073      	lsls	r3, r6, #1
10003cea:	199b      	adds	r3, r3, r6
10003cec:	18cb      	adds	r3, r1, r3
10003cee:	3b03      	subs	r3, #3
10003cf0:	705d      	strb	r5, [r3, #1]
10003cf2:	7ba3      	ldrb	r3, [r4, #14]
10003cf4:	2b00      	cmp	r3, #0
10003cf6:	d100      	bne.n	10003cfa <ph_remove_any_head+0x52>
10003cf8:	73a5      	strb	r5, [r4, #14]
10003cfa:	73e5      	strb	r5, [r4, #15]
10003cfc:	2800      	cmp	r0, #0
10003cfe:	d12f      	bne.n	10003d60 <ph_remove_any_head+0xb8>
10003d00:	2300      	movs	r3, #0
10003d02:	7053      	strb	r3, [r2, #1]
10003d04:	b003      	add	sp, #12
10003d06:	bcf0      	pop	{r4, r5, r6, r7}
10003d08:	46bb      	mov	fp, r7
10003d0a:	46b2      	mov	sl, r6
10003d0c:	46a9      	mov	r9, r5
10003d0e:	46a0      	mov	r8, r4
10003d10:	bdf0      	pop	{r4, r5, r6, r7, pc}
10003d12:	0072      	lsls	r2, r6, #1
10003d14:	4462      	add	r2, ip
10003d16:	3a03      	subs	r2, #3
10003d18:	188a      	adds	r2, r1, r2
10003d1a:	7851      	ldrb	r1, [r2, #1]
10003d1c:	4688      	mov	r8, r1
10003d1e:	2100      	movs	r1, #0
10003d20:	7051      	strb	r1, [r2, #1]
10003d22:	4689      	mov	r9, r1
10003d24:	7059      	strb	r1, [r3, #1]
10003d26:	0032      	movs	r2, r6
10003d28:	0001      	movs	r1, r0
10003d2a:	0020      	movs	r0, r4
10003d2c:	f7ff ff2c 	bl	10003b88 <ph_merge_nodes>
10003d30:	4643      	mov	r3, r8
10003d32:	4682      	mov	sl, r0
10003d34:	2b00      	cmp	r3, #0
10003d36:	d007      	beq.n	10003d48 <ph_remove_any_head+0xa0>
10003d38:	005b      	lsls	r3, r3, #1
10003d3a:	6821      	ldr	r1, [r4, #0]
10003d3c:	4443      	add	r3, r8
10003d3e:	3b03      	subs	r3, #3
10003d40:	18cb      	adds	r3, r1, r3
10003d42:	785a      	ldrb	r2, [r3, #1]
10003d44:	2a00      	cmp	r2, #0
10003d46:	d116      	bne.n	10003d76 <ph_remove_any_head+0xce>
10003d48:	4642      	mov	r2, r8
10003d4a:	4651      	mov	r1, sl
10003d4c:	0020      	movs	r0, r4
10003d4e:	f7ff ff1b 	bl	10003b88 <ph_merge_nodes>
10003d52:	6821      	ldr	r1, [r4, #0]
10003d54:	9b01      	ldr	r3, [sp, #4]
10003d56:	19ca      	adds	r2, r1, r7
10003d58:	2b00      	cmp	r3, #0
10003d5a:	d1c2      	bne.n	10003ce2 <ph_remove_any_head+0x3a>
10003d5c:	2800      	cmp	r0, #0
10003d5e:	d0cf      	beq.n	10003d00 <ph_remove_any_head+0x58>
10003d60:	0043      	lsls	r3, r0, #1
10003d62:	181b      	adds	r3, r3, r0
10003d64:	3b03      	subs	r3, #3
10003d66:	18cb      	adds	r3, r1, r3
10003d68:	2100      	movs	r1, #0
10003d6a:	7099      	strb	r1, [r3, #2]
10003d6c:	e7c8      	b.n	10003d00 <ph_remove_any_head+0x58>
10003d6e:	9b01      	ldr	r3, [sp, #4]
10003d70:	2b00      	cmp	r3, #0
10003d72:	d1b6      	bne.n	10003ce2 <ph_remove_any_head+0x3a>
10003d74:	e7c4      	b.n	10003d00 <ph_remove_any_head+0x58>
10003d76:	0050      	lsls	r0, r2, #1
10003d78:	1880      	adds	r0, r0, r2
10003d7a:	3803      	subs	r0, #3
10003d7c:	1809      	adds	r1, r1, r0
10003d7e:	7848      	ldrb	r0, [r1, #1]
10003d80:	4683      	mov	fp, r0
10003d82:	4648      	mov	r0, r9
10003d84:	7048      	strb	r0, [r1, #1]
10003d86:	7058      	strb	r0, [r3, #1]
10003d88:	4641      	mov	r1, r8
10003d8a:	0020      	movs	r0, r4
10003d8c:	f7ff fefc 	bl	10003b88 <ph_merge_nodes>
10003d90:	4659      	mov	r1, fp
10003d92:	4680      	mov	r8, r0
10003d94:	0020      	movs	r0, r4
10003d96:	f7ff ff41 	bl	10003c1c <ph_merge_two_pass>
10003d9a:	4641      	mov	r1, r8
10003d9c:	0002      	movs	r2, r0
10003d9e:	0020      	movs	r0, r4
10003da0:	f7ff fef2 	bl	10003b88 <ph_merge_nodes>
10003da4:	4680      	mov	r8, r0
10003da6:	e7cf      	b.n	10003d48 <ph_remove_any_head+0xa0>

10003da8 <ph_remove_head>:
10003da8:	b5f0      	push	{r4, r5, r6, r7, lr}
10003daa:	4657      	mov	r7, sl
10003dac:	4645      	mov	r5, r8
10003dae:	46de      	mov	lr, fp
10003db0:	464e      	mov	r6, r9
10003db2:	b5e0      	push	{r5, r6, r7, lr}
10003db4:	b083      	sub	sp, #12
10003db6:	9101      	str	r1, [sp, #4]
10003db8:	7b45      	ldrb	r5, [r0, #13]
10003dba:	0004      	movs	r4, r0
10003dbc:	006f      	lsls	r7, r5, #1
10003dbe:	6800      	ldr	r0, [r0, #0]
10003dc0:	197f      	adds	r7, r7, r5
10003dc2:	3f03      	subs	r7, #3
10003dc4:	5dc1      	ldrb	r1, [r0, r7]
10003dc6:	19c2      	adds	r2, r0, r7
10003dc8:	2900      	cmp	r1, #0
10003dca:	d052      	beq.n	10003e72 <ph_remove_head+0xca>
10003dcc:	004b      	lsls	r3, r1, #1
10003dce:	185b      	adds	r3, r3, r1
10003dd0:	3b03      	subs	r3, #3
10003dd2:	18c3      	adds	r3, r0, r3
10003dd4:	785e      	ldrb	r6, [r3, #1]
10003dd6:	46b4      	mov	ip, r6
10003dd8:	2e00      	cmp	r6, #0
10003dda:	d11c      	bne.n	10003e16 <ph_remove_head+0x6e>
10003ddc:	9e01      	ldr	r6, [sp, #4]
10003dde:	2e00      	cmp	r6, #0
10003de0:	d044      	beq.n	10003e6c <ph_remove_head+0xc4>
10003de2:	7be6      	ldrb	r6, [r4, #15]
10003de4:	2e00      	cmp	r6, #0
10003de6:	d004      	beq.n	10003df2 <ph_remove_head+0x4a>
10003de8:	0073      	lsls	r3, r6, #1
10003dea:	199b      	adds	r3, r3, r6
10003dec:	18c3      	adds	r3, r0, r3
10003dee:	3b03      	subs	r3, #3
10003df0:	705d      	strb	r5, [r3, #1]
10003df2:	7ba3      	ldrb	r3, [r4, #14]
10003df4:	2b00      	cmp	r3, #0
10003df6:	d100      	bne.n	10003dfa <ph_remove_head+0x52>
10003df8:	73a5      	strb	r5, [r4, #14]
10003dfa:	73e5      	strb	r5, [r4, #15]
10003dfc:	2900      	cmp	r1, #0
10003dfe:	d131      	bne.n	10003e64 <ph_remove_head+0xbc>
10003e00:	2300      	movs	r3, #0
10003e02:	0028      	movs	r0, r5
10003e04:	7053      	strb	r3, [r2, #1]
10003e06:	7361      	strb	r1, [r4, #13]
10003e08:	b003      	add	sp, #12
10003e0a:	bcf0      	pop	{r4, r5, r6, r7}
10003e0c:	46bb      	mov	fp, r7
10003e0e:	46b2      	mov	sl, r6
10003e10:	46a9      	mov	r9, r5
10003e12:	46a0      	mov	r8, r4
10003e14:	bdf0      	pop	{r4, r5, r6, r7, pc}
10003e16:	0072      	lsls	r2, r6, #1
10003e18:	4462      	add	r2, ip
10003e1a:	3a03      	subs	r2, #3
10003e1c:	1882      	adds	r2, r0, r2
10003e1e:	7850      	ldrb	r0, [r2, #1]
10003e20:	4680      	mov	r8, r0
10003e22:	2000      	movs	r0, #0
10003e24:	7050      	strb	r0, [r2, #1]
10003e26:	4681      	mov	r9, r0
10003e28:	7058      	strb	r0, [r3, #1]
10003e2a:	0032      	movs	r2, r6
10003e2c:	0020      	movs	r0, r4
10003e2e:	f7ff feab 	bl	10003b88 <ph_merge_nodes>
10003e32:	4643      	mov	r3, r8
10003e34:	4682      	mov	sl, r0
10003e36:	2b00      	cmp	r3, #0
10003e38:	d007      	beq.n	10003e4a <ph_remove_head+0xa2>
10003e3a:	005b      	lsls	r3, r3, #1
10003e3c:	6821      	ldr	r1, [r4, #0]
10003e3e:	4443      	add	r3, r8
10003e40:	3b03      	subs	r3, #3
10003e42:	18cb      	adds	r3, r1, r3
10003e44:	785a      	ldrb	r2, [r3, #1]
10003e46:	2a00      	cmp	r2, #0
10003e48:	d117      	bne.n	10003e7a <ph_remove_head+0xd2>
10003e4a:	4642      	mov	r2, r8
10003e4c:	4651      	mov	r1, sl
10003e4e:	0020      	movs	r0, r4
10003e50:	f7ff fe9a 	bl	10003b88 <ph_merge_nodes>
10003e54:	9b01      	ldr	r3, [sp, #4]
10003e56:	0001      	movs	r1, r0
10003e58:	6820      	ldr	r0, [r4, #0]
10003e5a:	19c2      	adds	r2, r0, r7
10003e5c:	2b00      	cmp	r3, #0
10003e5e:	d1c0      	bne.n	10003de2 <ph_remove_head+0x3a>
10003e60:	2900      	cmp	r1, #0
10003e62:	d0cd      	beq.n	10003e00 <ph_remove_head+0x58>
10003e64:	004b      	lsls	r3, r1, #1
10003e66:	185b      	adds	r3, r3, r1
10003e68:	3b03      	subs	r3, #3
10003e6a:	18c3      	adds	r3, r0, r3
10003e6c:	2000      	movs	r0, #0
10003e6e:	7098      	strb	r0, [r3, #2]
10003e70:	e7c6      	b.n	10003e00 <ph_remove_head+0x58>
10003e72:	9b01      	ldr	r3, [sp, #4]
10003e74:	2b00      	cmp	r3, #0
10003e76:	d1b4      	bne.n	10003de2 <ph_remove_head+0x3a>
10003e78:	e7c2      	b.n	10003e00 <ph_remove_head+0x58>
10003e7a:	0050      	lsls	r0, r2, #1
10003e7c:	1880      	adds	r0, r0, r2
10003e7e:	3803      	subs	r0, #3
10003e80:	1809      	adds	r1, r1, r0
10003e82:	7848      	ldrb	r0, [r1, #1]
10003e84:	4683      	mov	fp, r0
10003e86:	4648      	mov	r0, r9
10003e88:	7048      	strb	r0, [r1, #1]
10003e8a:	7058      	strb	r0, [r3, #1]
10003e8c:	4641      	mov	r1, r8
10003e8e:	0020      	movs	r0, r4
10003e90:	f7ff fe7a 	bl	10003b88 <ph_merge_nodes>
10003e94:	4659      	mov	r1, fp
10003e96:	4680      	mov	r8, r0
10003e98:	0020      	movs	r0, r4
10003e9a:	f7ff febf 	bl	10003c1c <ph_merge_two_pass>
10003e9e:	4641      	mov	r1, r8
10003ea0:	0002      	movs	r2, r0
10003ea2:	0020      	movs	r0, r4
10003ea4:	f7ff fe70 	bl	10003b88 <ph_merge_nodes>
10003ea8:	4680      	mov	r8, r0
10003eaa:	e7ce      	b.n	10003e4a <ph_remove_head+0xa2>

10003eac <ph_remove_and_free_node>:
10003eac:	b570      	push	{r4, r5, r6, lr}
10003eae:	0005      	movs	r5, r0
10003eb0:	2900      	cmp	r1, #0
10003eb2:	d02c      	beq.n	10003f0e <ph_remove_and_free_node+0x62>
10003eb4:	7b43      	ldrb	r3, [r0, #13]
10003eb6:	428b      	cmp	r3, r1
10003eb8:	d02e      	beq.n	10003f18 <ph_remove_and_free_node+0x6c>
10003eba:	004c      	lsls	r4, r1, #1
10003ebc:	6800      	ldr	r0, [r0, #0]
10003ebe:	1864      	adds	r4, r4, r1
10003ec0:	3c03      	subs	r4, #3
10003ec2:	1904      	adds	r4, r0, r4
10003ec4:	78a2      	ldrb	r2, [r4, #2]
10003ec6:	2a00      	cmp	r2, #0
10003ec8:	d021      	beq.n	10003f0e <ph_remove_and_free_node+0x62>
10003eca:	0053      	lsls	r3, r2, #1
10003ecc:	189b      	adds	r3, r3, r2
10003ece:	3b03      	subs	r3, #3
10003ed0:	5cc2      	ldrb	r2, [r0, r3]
10003ed2:	18c6      	adds	r6, r0, r3
10003ed4:	428a      	cmp	r2, r1
10003ed6:	d102      	bne.n	10003ede <ph_remove_and_free_node+0x32>
10003ed8:	e01b      	b.n	10003f12 <ph_remove_and_free_node+0x66>
10003eda:	2a00      	cmp	r2, #0
10003edc:	d008      	beq.n	10003ef0 <ph_remove_and_free_node+0x44>
10003ede:	0053      	lsls	r3, r2, #1
10003ee0:	189b      	adds	r3, r3, r2
10003ee2:	3b03      	subs	r3, #3
10003ee4:	18c3      	adds	r3, r0, r3
10003ee6:	785a      	ldrb	r2, [r3, #1]
10003ee8:	428a      	cmp	r2, r1
10003eea:	d1f6      	bne.n	10003eda <ph_remove_and_free_node+0x2e>
10003eec:	7862      	ldrb	r2, [r4, #1]
10003eee:	705a      	strb	r2, [r3, #1]
10003ef0:	2300      	movs	r3, #0
10003ef2:	2201      	movs	r2, #1
10003ef4:	0028      	movs	r0, r5
10003ef6:	70a3      	strb	r3, [r4, #2]
10003ef8:	7063      	strb	r3, [r4, #1]
10003efa:	f7ff fed5 	bl	10003ca8 <ph_remove_any_head>
10003efe:	7b69      	ldrb	r1, [r5, #13]
10003f00:	0002      	movs	r2, r0
10003f02:	0028      	movs	r0, r5
10003f04:	f7ff fe40 	bl	10003b88 <ph_merge_nodes>
10003f08:	7368      	strb	r0, [r5, #13]
10003f0a:	2001      	movs	r0, #1
10003f0c:	e000      	b.n	10003f10 <ph_remove_and_free_node+0x64>
10003f0e:	2000      	movs	r0, #0
10003f10:	bd70      	pop	{r4, r5, r6, pc}
10003f12:	7863      	ldrb	r3, [r4, #1]
10003f14:	7033      	strb	r3, [r6, #0]
10003f16:	e7eb      	b.n	10003ef0 <ph_remove_and_free_node+0x44>
10003f18:	2201      	movs	r2, #1
10003f1a:	0019      	movs	r1, r3
10003f1c:	f7ff fec4 	bl	10003ca8 <ph_remove_any_head>
10003f20:	e7f2      	b.n	10003f08 <ph_remove_and_free_node+0x5c>
10003f22:	46c0      	nop			@ (mov r8, r8)

10003f24 <clocks_init>:
10003f24:	b510      	push	{r4, lr}
10003f26:	200c      	movs	r0, #12
10003f28:	b082      	sub	sp, #8
10003f2a:	f000 f9b1 	bl	10004290 <watchdog_start_tick>
10003f2e:	f7fe fe25 	bl	10002b7c <running_on_fpga>
10003f32:	2800      	cmp	r0, #0
10003f34:	d010      	beq.n	10003f58 <clocks_init+0x34>
10003f36:	4b8b      	ldr	r3, [pc, #556]	@ (10004164 <clocks_init+0x240>)
10003f38:	488b      	ldr	r0, [pc, #556]	@ (10004168 <clocks_init+0x244>)
10003f3a:	498b      	ldr	r1, [pc, #556]	@ (10004168 <clocks_init+0x244>)
10003f3c:	4a8b      	ldr	r2, [pc, #556]	@ (1000416c <clocks_init+0x248>)
10003f3e:	6018      	str	r0, [r3, #0]
10003f40:	6059      	str	r1, [r3, #4]
10003f42:	6098      	str	r0, [r3, #8]
10003f44:	60d9      	str	r1, [r3, #12]
10003f46:	6118      	str	r0, [r3, #16]
10003f48:	6159      	str	r1, [r3, #20]
10003f4a:	6198      	str	r0, [r3, #24]
10003f4c:	61d9      	str	r1, [r3, #28]
10003f4e:	6218      	str	r0, [r3, #32]
10003f50:	6259      	str	r1, [r3, #36]	@ 0x24
10003f52:	625a      	str	r2, [r3, #36]	@ 0x24
10003f54:	b002      	add	sp, #8
10003f56:	bd10      	pop	{r4, pc}
10003f58:	4c85      	ldr	r4, [pc, #532]	@ (10004170 <clocks_init+0x24c>)
10003f5a:	67a0      	str	r0, [r4, #120]	@ 0x78
10003f5c:	f000 f9ee 	bl	1000433c <xosc_init>
10003f60:	2201      	movs	r2, #1
10003f62:	4b84      	ldr	r3, [pc, #528]	@ (10004174 <clocks_init+0x250>)
10003f64:	601a      	str	r2, [r3, #0]
10003f66:	6c63      	ldr	r3, [r4, #68]	@ 0x44
10003f68:	2b01      	cmp	r3, #1
10003f6a:	d1fc      	bne.n	10003f66 <clocks_init+0x42>
10003f6c:	2203      	movs	r2, #3
10003f6e:	4b82      	ldr	r3, [pc, #520]	@ (10004178 <clocks_init+0x254>)
10003f70:	601a      	str	r2, [r3, #0]
10003f72:	4a7f      	ldr	r2, [pc, #508]	@ (10004170 <clocks_init+0x24c>)
10003f74:	6b93      	ldr	r3, [r2, #56]	@ 0x38
10003f76:	2b01      	cmp	r3, #1
10003f78:	d1fc      	bne.n	10003f74 <clocks_init+0x50>
10003f7a:	3301      	adds	r3, #1
10003f7c:	2101      	movs	r1, #1
10003f7e:	4a7f      	ldr	r2, [pc, #508]	@ (1000417c <clocks_init+0x258>)
10003f80:	487f      	ldr	r0, [pc, #508]	@ (10004180 <clocks_init+0x25c>)
10003f82:	9300      	str	r3, [sp, #0]
10003f84:	3304      	adds	r3, #4
10003f86:	f000 f931 	bl	100041ec <pll_init>
10003f8a:	2305      	movs	r3, #5
10003f8c:	4a7d      	ldr	r2, [pc, #500]	@ (10004184 <clocks_init+0x260>)
10003f8e:	9300      	str	r3, [sp, #0]
10003f90:	2101      	movs	r1, #1
10003f92:	487d      	ldr	r0, [pc, #500]	@ (10004188 <clocks_init+0x264>)
10003f94:	f000 f92a 	bl	100041ec <pll_init>
10003f98:	4b7c      	ldr	r3, [pc, #496]	@ (1000418c <clocks_init+0x268>)
10003f9a:	685a      	ldr	r2, [r3, #4]
10003f9c:	2aff      	cmp	r2, #255	@ 0xff
10003f9e:	d802      	bhi.n	10003fa6 <clocks_init+0x82>
10003fa0:	2280      	movs	r2, #128	@ 0x80
10003fa2:	0052      	lsls	r2, r2, #1
10003fa4:	605a      	str	r2, [r3, #4]
10003fa6:	2280      	movs	r2, #128	@ 0x80
10003fa8:	4b73      	ldr	r3, [pc, #460]	@ (10004178 <clocks_init+0x254>)
10003faa:	4c6e      	ldr	r4, [pc, #440]	@ (10004164 <clocks_init+0x240>)
10003fac:	0112      	lsls	r2, r2, #4
10003fae:	601a      	str	r2, [r3, #0]
10003fb0:	6921      	ldr	r1, [r4, #16]
10003fb2:	2900      	cmp	r1, #0
10003fb4:	d007      	beq.n	10003fc6 <clocks_init+0xa2>
10003fb6:	6960      	ldr	r0, [r4, #20]
10003fb8:	f001 fee4 	bl	10005d84 <__wrap___aeabi_uidiv>
10003fbc:	3001      	adds	r0, #1
10003fbe:	0043      	lsls	r3, r0, #1
10003fc0:	181b      	adds	r3, r3, r0
10003fc2:	3b03      	subs	r3, #3
10003fc4:	d2fd      	bcs.n	10003fc2 <clocks_init+0x9e>
10003fc6:	22e0      	movs	r2, #224	@ 0xe0
10003fc8:	4b70      	ldr	r3, [pc, #448]	@ (1000418c <clocks_init+0x268>)
10003fca:	4871      	ldr	r0, [pc, #452]	@ (10004190 <clocks_init+0x26c>)
10003fcc:	6819      	ldr	r1, [r3, #0]
10003fce:	400a      	ands	r2, r1
10003fd0:	6002      	str	r2, [r0, #0]
10003fd2:	2202      	movs	r2, #2
10003fd4:	6819      	ldr	r1, [r3, #0]
10003fd6:	4051      	eors	r1, r2
10003fd8:	3201      	adds	r2, #1
10003fda:	400a      	ands	r2, r1
10003fdc:	2104      	movs	r1, #4
10003fde:	6002      	str	r2, [r0, #0]
10003fe0:	689a      	ldr	r2, [r3, #8]
10003fe2:	4211      	tst	r1, r2
10003fe4:	d0fc      	beq.n	10003fe0 <clocks_init+0xbc>
10003fe6:	2180      	movs	r1, #128	@ 0x80
10003fe8:	4a6a      	ldr	r2, [pc, #424]	@ (10004194 <clocks_init+0x270>)
10003fea:	0109      	lsls	r1, r1, #4
10003fec:	6011      	str	r1, [r2, #0]
10003fee:	2280      	movs	r2, #128	@ 0x80
10003ff0:	0052      	lsls	r2, r2, #1
10003ff2:	605a      	str	r2, [r3, #4]
10003ff4:	4b68      	ldr	r3, [pc, #416]	@ (10004198 <clocks_init+0x274>)
10003ff6:	6123      	str	r3, [r4, #16]
10003ff8:	4b68      	ldr	r3, [pc, #416]	@ (1000419c <clocks_init+0x278>)
10003ffa:	6859      	ldr	r1, [r3, #4]
10003ffc:	29ff      	cmp	r1, #255	@ 0xff
10003ffe:	d800      	bhi.n	10004002 <clocks_init+0xde>
10004000:	605a      	str	r2, [r3, #4]
10004002:	2203      	movs	r2, #3
10004004:	2101      	movs	r1, #1
10004006:	4b5b      	ldr	r3, [pc, #364]	@ (10004174 <clocks_init+0x250>)
10004008:	601a      	str	r2, [r3, #0]
1000400a:	4a64      	ldr	r2, [pc, #400]	@ (1000419c <clocks_init+0x278>)
1000400c:	6893      	ldr	r3, [r2, #8]
1000400e:	4219      	tst	r1, r3
10004010:	d0fc      	beq.n	1000400c <clocks_init+0xe8>
10004012:	23e0      	movs	r3, #224	@ 0xe0
10004014:	6810      	ldr	r0, [r2, #0]
10004016:	4003      	ands	r3, r0
10004018:	4861      	ldr	r0, [pc, #388]	@ (100041a0 <clocks_init+0x27c>)
1000401a:	6003      	str	r3, [r0, #0]
1000401c:	6812      	ldr	r2, [r2, #0]
1000401e:	2303      	movs	r3, #3
10004020:	404a      	eors	r2, r1
10004022:	2102      	movs	r1, #2
10004024:	4013      	ands	r3, r2
10004026:	4a5d      	ldr	r2, [pc, #372]	@ (1000419c <clocks_init+0x278>)
10004028:	6003      	str	r3, [r0, #0]
1000402a:	6893      	ldr	r3, [r2, #8]
1000402c:	4219      	tst	r1, r3
1000402e:	d0fc      	beq.n	1000402a <clocks_init+0x106>
10004030:	2180      	movs	r1, #128	@ 0x80
10004032:	4b5c      	ldr	r3, [pc, #368]	@ (100041a4 <clocks_init+0x280>)
10004034:	0109      	lsls	r1, r1, #4
10004036:	6019      	str	r1, [r3, #0]
10004038:	2180      	movs	r1, #128	@ 0x80
1000403a:	4b5b      	ldr	r3, [pc, #364]	@ (100041a8 <clocks_init+0x284>)
1000403c:	0049      	lsls	r1, r1, #1
1000403e:	6051      	str	r1, [r2, #4]
10004040:	6163      	str	r3, [r4, #20]
10004042:	4b5a      	ldr	r3, [pc, #360]	@ (100041ac <clocks_init+0x288>)
10004044:	685a      	ldr	r2, [r3, #4]
10004046:	2aff      	cmp	r2, #255	@ 0xff
10004048:	d800      	bhi.n	1000404c <clocks_init+0x128>
1000404a:	6059      	str	r1, [r3, #4]
1000404c:	2280      	movs	r2, #128	@ 0x80
1000404e:	4b58      	ldr	r3, [pc, #352]	@ (100041b0 <clocks_init+0x28c>)
10004050:	0112      	lsls	r2, r2, #4
10004052:	601a      	str	r2, [r3, #0]
10004054:	69e1      	ldr	r1, [r4, #28]
10004056:	2900      	cmp	r1, #0
10004058:	d007      	beq.n	1000406a <clocks_init+0x146>
1000405a:	6960      	ldr	r0, [r4, #20]
1000405c:	f001 fe92 	bl	10005d84 <__wrap___aeabi_uidiv>
10004060:	3001      	adds	r0, #1
10004062:	0043      	lsls	r3, r0, #1
10004064:	181b      	adds	r3, r3, r0
10004066:	3b03      	subs	r3, #3
10004068:	d2fd      	bcs.n	10004066 <clocks_init+0x142>
1000406a:	23e0      	movs	r3, #224	@ 0xe0
1000406c:	4a4f      	ldr	r2, [pc, #316]	@ (100041ac <clocks_init+0x288>)
1000406e:	6811      	ldr	r1, [r2, #0]
10004070:	400b      	ands	r3, r1
10004072:	4950      	ldr	r1, [pc, #320]	@ (100041b4 <clocks_init+0x290>)
10004074:	600b      	str	r3, [r1, #0]
10004076:	2180      	movs	r1, #128	@ 0x80
10004078:	4b4f      	ldr	r3, [pc, #316]	@ (100041b8 <clocks_init+0x294>)
1000407a:	0109      	lsls	r1, r1, #4
1000407c:	6019      	str	r1, [r3, #0]
1000407e:	2180      	movs	r1, #128	@ 0x80
10004080:	4b39      	ldr	r3, [pc, #228]	@ (10004168 <clocks_init+0x244>)
10004082:	0049      	lsls	r1, r1, #1
10004084:	6051      	str	r1, [r2, #4]
10004086:	61e3      	str	r3, [r4, #28]
10004088:	4b4c      	ldr	r3, [pc, #304]	@ (100041bc <clocks_init+0x298>)
1000408a:	685a      	ldr	r2, [r3, #4]
1000408c:	2aff      	cmp	r2, #255	@ 0xff
1000408e:	d800      	bhi.n	10004092 <clocks_init+0x16e>
10004090:	6059      	str	r1, [r3, #4]
10004092:	2280      	movs	r2, #128	@ 0x80
10004094:	4b4a      	ldr	r3, [pc, #296]	@ (100041c0 <clocks_init+0x29c>)
10004096:	0112      	lsls	r2, r2, #4
10004098:	601a      	str	r2, [r3, #0]
1000409a:	6a21      	ldr	r1, [r4, #32]
1000409c:	2900      	cmp	r1, #0
1000409e:	d007      	beq.n	100040b0 <clocks_init+0x18c>
100040a0:	6960      	ldr	r0, [r4, #20]
100040a2:	f001 fe6f 	bl	10005d84 <__wrap___aeabi_uidiv>
100040a6:	3001      	adds	r0, #1
100040a8:	0043      	lsls	r3, r0, #1
100040aa:	181b      	adds	r3, r3, r0
100040ac:	3b03      	subs	r3, #3
100040ae:	d2fd      	bcs.n	100040ac <clocks_init+0x188>
100040b0:	23e0      	movs	r3, #224	@ 0xe0
100040b2:	4a42      	ldr	r2, [pc, #264]	@ (100041bc <clocks_init+0x298>)
100040b4:	6811      	ldr	r1, [r2, #0]
100040b6:	400b      	ands	r3, r1
100040b8:	4942      	ldr	r1, [pc, #264]	@ (100041c4 <clocks_init+0x2a0>)
100040ba:	600b      	str	r3, [r1, #0]
100040bc:	2180      	movs	r1, #128	@ 0x80
100040be:	4b42      	ldr	r3, [pc, #264]	@ (100041c8 <clocks_init+0x2a4>)
100040c0:	0109      	lsls	r1, r1, #4
100040c2:	6019      	str	r1, [r3, #0]
100040c4:	2380      	movs	r3, #128	@ 0x80
100040c6:	005b      	lsls	r3, r3, #1
100040c8:	6053      	str	r3, [r2, #4]
100040ca:	2280      	movs	r2, #128	@ 0x80
100040cc:	4b26      	ldr	r3, [pc, #152]	@ (10004168 <clocks_init+0x244>)
100040ce:	02d2      	lsls	r2, r2, #11
100040d0:	6223      	str	r3, [r4, #32]
100040d2:	4b3e      	ldr	r3, [pc, #248]	@ (100041cc <clocks_init+0x2a8>)
100040d4:	6859      	ldr	r1, [r3, #4]
100040d6:	4291      	cmp	r1, r2
100040d8:	d200      	bcs.n	100040dc <clocks_init+0x1b8>
100040da:	605a      	str	r2, [r3, #4]
100040dc:	2280      	movs	r2, #128	@ 0x80
100040de:	4b3c      	ldr	r3, [pc, #240]	@ (100041d0 <clocks_init+0x2ac>)
100040e0:	0112      	lsls	r2, r2, #4
100040e2:	601a      	str	r2, [r3, #0]
100040e4:	6a61      	ldr	r1, [r4, #36]	@ 0x24
100040e6:	2900      	cmp	r1, #0
100040e8:	d007      	beq.n	100040fa <clocks_init+0x1d6>
100040ea:	6960      	ldr	r0, [r4, #20]
100040ec:	f001 fe4a 	bl	10005d84 <__wrap___aeabi_uidiv>
100040f0:	3001      	adds	r0, #1
100040f2:	0043      	lsls	r3, r0, #1
100040f4:	181b      	adds	r3, r3, r0
100040f6:	3b03      	subs	r3, #3
100040f8:	d2fd      	bcs.n	100040f6 <clocks_init+0x1d2>
100040fa:	23e0      	movs	r3, #224	@ 0xe0
100040fc:	4a33      	ldr	r2, [pc, #204]	@ (100041cc <clocks_init+0x2a8>)
100040fe:	6811      	ldr	r1, [r2, #0]
10004100:	400b      	ands	r3, r1
10004102:	4934      	ldr	r1, [pc, #208]	@ (100041d4 <clocks_init+0x2b0>)
10004104:	600b      	str	r3, [r1, #0]
10004106:	2180      	movs	r1, #128	@ 0x80
10004108:	4b33      	ldr	r3, [pc, #204]	@ (100041d8 <clocks_init+0x2b4>)
1000410a:	0109      	lsls	r1, r1, #4
1000410c:	6019      	str	r1, [r3, #0]
1000410e:	2380      	movs	r3, #128	@ 0x80
10004110:	02db      	lsls	r3, r3, #11
10004112:	6053      	str	r3, [r2, #4]
10004114:	4b15      	ldr	r3, [pc, #84]	@ (1000416c <clocks_init+0x248>)
10004116:	6263      	str	r3, [r4, #36]	@ 0x24
10004118:	4b30      	ldr	r3, [pc, #192]	@ (100041dc <clocks_init+0x2b8>)
1000411a:	685a      	ldr	r2, [r3, #4]
1000411c:	2aff      	cmp	r2, #255	@ 0xff
1000411e:	d802      	bhi.n	10004126 <clocks_init+0x202>
10004120:	2280      	movs	r2, #128	@ 0x80
10004122:	0052      	lsls	r2, r2, #1
10004124:	605a      	str	r2, [r3, #4]
10004126:	2280      	movs	r2, #128	@ 0x80
10004128:	4b2d      	ldr	r3, [pc, #180]	@ (100041e0 <clocks_init+0x2bc>)
1000412a:	0112      	lsls	r2, r2, #4
1000412c:	601a      	str	r2, [r3, #0]
1000412e:	69a1      	ldr	r1, [r4, #24]
10004130:	2900      	cmp	r1, #0
10004132:	d007      	beq.n	10004144 <clocks_init+0x220>
10004134:	6960      	ldr	r0, [r4, #20]
10004136:	f001 fe25 	bl	10005d84 <__wrap___aeabi_uidiv>
1000413a:	3001      	adds	r0, #1
1000413c:	0043      	lsls	r3, r0, #1
1000413e:	181b      	adds	r3, r3, r0
10004140:	3b03      	subs	r3, #3
10004142:	d2fd      	bcs.n	10004140 <clocks_init+0x21c>
10004144:	23e0      	movs	r3, #224	@ 0xe0
10004146:	4a25      	ldr	r2, [pc, #148]	@ (100041dc <clocks_init+0x2b8>)
10004148:	6811      	ldr	r1, [r2, #0]
1000414a:	400b      	ands	r3, r1
1000414c:	4925      	ldr	r1, [pc, #148]	@ (100041e4 <clocks_init+0x2c0>)
1000414e:	600b      	str	r3, [r1, #0]
10004150:	2180      	movs	r1, #128	@ 0x80
10004152:	4b25      	ldr	r3, [pc, #148]	@ (100041e8 <clocks_init+0x2c4>)
10004154:	0109      	lsls	r1, r1, #4
10004156:	6019      	str	r1, [r3, #0]
10004158:	2380      	movs	r3, #128	@ 0x80
1000415a:	005b      	lsls	r3, r3, #1
1000415c:	6053      	str	r3, [r2, #4]
1000415e:	4b12      	ldr	r3, [pc, #72]	@ (100041a8 <clocks_init+0x284>)
10004160:	61a3      	str	r3, [r4, #24]
10004162:	e6f7      	b.n	10003f54 <clocks_init+0x30>
10004164:	200025b8 	.word	0x200025b8
10004168:	02dc6c00 	.word	0x02dc6c00
1000416c:	0000b71b 	.word	0x0000b71b
10004170:	40008000 	.word	0x40008000
10004174:	4000b03c 	.word	0x4000b03c
10004178:	4000b030 	.word	0x4000b030
1000417c:	59682f00 	.word	0x59682f00
10004180:	40028000 	.word	0x40028000
10004184:	47868c00 	.word	0x47868c00
10004188:	4002c000 	.word	0x4002c000
1000418c:	40008030 	.word	0x40008030
10004190:	40009030 	.word	0x40009030
10004194:	4000a030 	.word	0x4000a030
10004198:	00b71b00 	.word	0x00b71b00
1000419c:	4000803c 	.word	0x4000803c
100041a0:	4000903c 	.word	0x4000903c
100041a4:	4000a03c 	.word	0x4000a03c
100041a8:	07735940 	.word	0x07735940
100041ac:	40008054 	.word	0x40008054
100041b0:	4000b054 	.word	0x4000b054
100041b4:	40009054 	.word	0x40009054
100041b8:	4000a054 	.word	0x4000a054
100041bc:	40008060 	.word	0x40008060
100041c0:	4000b060 	.word	0x4000b060
100041c4:	40009060 	.word	0x40009060
100041c8:	4000a060 	.word	0x4000a060
100041cc:	4000806c 	.word	0x4000806c
100041d0:	4000b06c 	.word	0x4000b06c
100041d4:	4000906c 	.word	0x4000906c
100041d8:	4000a06c 	.word	0x4000a06c
100041dc:	40008048 	.word	0x40008048
100041e0:	4000b048 	.word	0x4000b048
100041e4:	40009048 	.word	0x40009048
100041e8:	4000a048 	.word	0x4000a048

100041ec <pll_init>:
100041ec:	b5f8      	push	{r3, r4, r5, r6, r7, lr}
100041ee:	0004      	movs	r4, r0
100041f0:	4822      	ldr	r0, [pc, #136]	@ (1000427c <pll_init+0x90>)
100041f2:	001e      	movs	r6, r3
100041f4:	0017      	movs	r7, r2
100041f6:	000d      	movs	r5, r1
100041f8:	f001 fdc4 	bl	10005d84 <__wrap___aeabi_uidiv>
100041fc:	0001      	movs	r1, r0
100041fe:	0038      	movs	r0, r7
10004200:	f001 fdc0 	bl	10005d84 <__wrap___aeabi_uidiv>
10004204:	9b06      	ldr	r3, [sp, #24]
10004206:	0436      	lsls	r6, r6, #16
10004208:	031b      	lsls	r3, r3, #12
1000420a:	431e      	orrs	r6, r3
1000420c:	6823      	ldr	r3, [r4, #0]
1000420e:	2b00      	cmp	r3, #0
10004210:	db22      	blt.n	10004258 <pll_init+0x6c>
10004212:	4b1b      	ldr	r3, [pc, #108]	@ (10004280 <pll_init+0x94>)
10004214:	491b      	ldr	r1, [pc, #108]	@ (10004284 <pll_init+0x98>)
10004216:	18e3      	adds	r3, r4, r3
10004218:	1e5a      	subs	r2, r3, #1
1000421a:	4193      	sbcs	r3, r2
1000421c:	2280      	movs	r2, #128	@ 0x80
1000421e:	0192      	lsls	r2, r2, #6
10004220:	4694      	mov	ip, r2
10004222:	425b      	negs	r3, r3
10004224:	0b1b      	lsrs	r3, r3, #12
10004226:	4a18      	ldr	r2, [pc, #96]	@ (10004288 <pll_init+0x9c>)
10004228:	031b      	lsls	r3, r3, #12
1000422a:	4463      	add	r3, ip
1000422c:	6013      	str	r3, [r2, #0]
1000422e:	4a17      	ldr	r2, [pc, #92]	@ (1000428c <pll_init+0xa0>)
10004230:	6013      	str	r3, [r2, #0]
10004232:	001f      	movs	r7, r3
10004234:	688a      	ldr	r2, [r1, #8]
10004236:	4397      	bics	r7, r2
10004238:	d1fb      	bne.n	10004232 <pll_init+0x46>
1000423a:	22c0      	movs	r2, #192	@ 0xc0
1000423c:	1d23      	adds	r3, r4, #4
1000423e:	0192      	lsls	r2, r2, #6
10004240:	431a      	orrs	r2, r3
10004242:	2321      	movs	r3, #33	@ 0x21
10004244:	6025      	str	r5, [r4, #0]
10004246:	60a0      	str	r0, [r4, #8]
10004248:	6013      	str	r3, [r2, #0]
1000424a:	6823      	ldr	r3, [r4, #0]
1000424c:	2b00      	cmp	r3, #0
1000424e:	dafc      	bge.n	1000424a <pll_init+0x5e>
10004250:	2308      	movs	r3, #8
10004252:	60e6      	str	r6, [r4, #12]
10004254:	6013      	str	r3, [r2, #0]
10004256:	bdf8      	pop	{r3, r4, r5, r6, r7, pc}
10004258:	233f      	movs	r3, #63	@ 0x3f
1000425a:	6822      	ldr	r2, [r4, #0]
1000425c:	4013      	ands	r3, r2
1000425e:	42ab      	cmp	r3, r5
10004260:	d1d7      	bne.n	10004212 <pll_init+0x26>
10004262:	68a3      	ldr	r3, [r4, #8]
10004264:	051b      	lsls	r3, r3, #20
10004266:	0d1b      	lsrs	r3, r3, #20
10004268:	4283      	cmp	r3, r0
1000426a:	d1d2      	bne.n	10004212 <pll_init+0x26>
1000426c:	22ee      	movs	r2, #238	@ 0xee
1000426e:	68e3      	ldr	r3, [r4, #12]
10004270:	02d2      	lsls	r2, r2, #11
10004272:	4013      	ands	r3, r2
10004274:	42b3      	cmp	r3, r6
10004276:	d1cc      	bne.n	10004212 <pll_init+0x26>
10004278:	e7ed      	b.n	10004256 <pll_init+0x6a>
1000427a:	46c0      	nop			@ (mov r8, r8)
1000427c:	00b71b00 	.word	0x00b71b00
10004280:	bffd4000 	.word	0xbffd4000
10004284:	4000c000 	.word	0x4000c000
10004288:	4000e000 	.word	0x4000e000
1000428c:	4000f000 	.word	0x4000f000

10004290 <watchdog_start_tick>:
10004290:	2380      	movs	r3, #128	@ 0x80
10004292:	4a02      	ldr	r2, [pc, #8]	@ (1000429c <watchdog_start_tick+0xc>)
10004294:	009b      	lsls	r3, r3, #2
10004296:	4303      	orrs	r3, r0
10004298:	62d3      	str	r3, [r2, #44]	@ 0x2c
1000429a:	4770      	bx	lr
1000429c:	40058000 	.word	0x40058000

100042a0 <watchdog_reboot>:
100042a0:	b510      	push	{r4, lr}
100042a2:	2480      	movs	r4, #128	@ 0x80
100042a4:	4b1c      	ldr	r3, [pc, #112]	@ (10004318 <watchdog_reboot+0x78>)
100042a6:	05e4      	lsls	r4, r4, #23
100042a8:	601c      	str	r4, [r3, #0]
100042aa:	2800      	cmp	r0, #0
100042ac:	d01a      	beq.n	100042e4 <watchdog_reboot+0x44>
100042ae:	2301      	movs	r3, #1
100042b0:	4c1a      	ldr	r4, [pc, #104]	@ (1000431c <watchdog_reboot+0x7c>)
100042b2:	4318      	orrs	r0, r3
100042b4:	4b1a      	ldr	r3, [pc, #104]	@ (10004320 <watchdog_reboot+0x80>)
100042b6:	61dc      	str	r4, [r3, #28]
100042b8:	4c1a      	ldr	r4, [pc, #104]	@ (10004324 <watchdog_reboot+0x84>)
100042ba:	4044      	eors	r4, r0
100042bc:	621c      	str	r4, [r3, #32]
100042be:	6259      	str	r1, [r3, #36]	@ 0x24
100042c0:	6298      	str	r0, [r3, #40]	@ 0x28
100042c2:	2180      	movs	r1, #128	@ 0x80
100042c4:	4b14      	ldr	r3, [pc, #80]	@ (10004318 <watchdog_reboot+0x78>)
100042c6:	05c9      	lsls	r1, r1, #23
100042c8:	6019      	str	r1, [r3, #0]
100042ca:	4817      	ldr	r0, [pc, #92]	@ (10004328 <watchdog_reboot+0x88>)
100042cc:	4917      	ldr	r1, [pc, #92]	@ (1000432c <watchdog_reboot+0x8c>)
100042ce:	6008      	str	r0, [r1, #0]
100042d0:	21e0      	movs	r1, #224	@ 0xe0
100042d2:	04c9      	lsls	r1, r1, #19
100042d4:	6019      	str	r1, [r3, #0]
100042d6:	2a00      	cmp	r2, #0
100042d8:	d107      	bne.n	100042ea <watchdog_reboot+0x4a>
100042da:	2280      	movs	r2, #128	@ 0x80
100042dc:	4b14      	ldr	r3, [pc, #80]	@ (10004330 <watchdog_reboot+0x90>)
100042de:	0612      	lsls	r2, r2, #24
100042e0:	601a      	str	r2, [r3, #0]
100042e2:	bd10      	pop	{r4, pc}
100042e4:	4b0e      	ldr	r3, [pc, #56]	@ (10004320 <watchdog_reboot+0x80>)
100042e6:	61d8      	str	r0, [r3, #28]
100042e8:	e7eb      	b.n	100042c2 <watchdog_reboot+0x22>
100042ea:	0153      	lsls	r3, r2, #5
100042ec:	1a9b      	subs	r3, r3, r2
100042ee:	009b      	lsls	r3, r3, #2
100042f0:	189a      	adds	r2, r3, r2
100042f2:	2380      	movs	r3, #128	@ 0x80
100042f4:	0112      	lsls	r2, r2, #4
100042f6:	045b      	lsls	r3, r3, #17
100042f8:	429a      	cmp	r2, r3
100042fa:	d209      	bcs.n	10004310 <watchdog_reboot+0x70>
100042fc:	0013      	movs	r3, r2
100042fe:	490d      	ldr	r1, [pc, #52]	@ (10004334 <watchdog_reboot+0x94>)
10004300:	600b      	str	r3, [r1, #0]
10004302:	4b07      	ldr	r3, [pc, #28]	@ (10004320 <watchdog_reboot+0x80>)
10004304:	605a      	str	r2, [r3, #4]
10004306:	2280      	movs	r2, #128	@ 0x80
10004308:	4b09      	ldr	r3, [pc, #36]	@ (10004330 <watchdog_reboot+0x90>)
1000430a:	05d2      	lsls	r2, r2, #23
1000430c:	601a      	str	r2, [r3, #0]
1000430e:	e7e8      	b.n	100042e2 <watchdog_reboot+0x42>
10004310:	4b09      	ldr	r3, [pc, #36]	@ (10004338 <watchdog_reboot+0x98>)
10004312:	001a      	movs	r2, r3
10004314:	e7f3      	b.n	100042fe <watchdog_reboot+0x5e>
10004316:	46c0      	nop			@ (mov r8, r8)
10004318:	4005b000 	.word	0x4005b000
1000431c:	b007c0d3 	.word	0xb007c0d3
10004320:	40058000 	.word	0x40058000
10004324:	4ff83f2d 	.word	0x4ff83f2d
10004328:	0001fffc 	.word	0x0001fffc
1000432c:	40012008 	.word	0x40012008
10004330:	4005a000 	.word	0x4005a000
10004334:	2000347c 	.word	0x2000347c
10004338:	00ffffff 	.word	0x00ffffff

1000433c <xosc_init>:
1000433c:	23aa      	movs	r3, #170	@ 0xaa
1000433e:	4a06      	ldr	r2, [pc, #24]	@ (10004358 <xosc_init+0x1c>)
10004340:	011b      	lsls	r3, r3, #4
10004342:	6013      	str	r3, [r2, #0]
10004344:	232f      	movs	r3, #47	@ 0x2f
10004346:	4905      	ldr	r1, [pc, #20]	@ (1000435c <xosc_init+0x20>)
10004348:	60d3      	str	r3, [r2, #12]
1000434a:	4b05      	ldr	r3, [pc, #20]	@ (10004360 <xosc_init+0x24>)
1000434c:	6019      	str	r1, [r3, #0]
1000434e:	6853      	ldr	r3, [r2, #4]
10004350:	2b00      	cmp	r3, #0
10004352:	dafc      	bge.n	1000434e <xosc_init+0x12>
10004354:	4770      	bx	lr
10004356:	46c0      	nop			@ (mov r8, r8)
10004358:	40024000 	.word	0x40024000
1000435c:	00fab000 	.word	0x00fab000
10004360:	40026000 	.word	0x40026000

10004364 <runtime_init>:
10004364:	4b2c      	ldr	r3, [pc, #176]	@ (10004418 <runtime_init+0xb4>)
10004366:	4a2d      	ldr	r2, [pc, #180]	@ (1000441c <runtime_init+0xb8>)
10004368:	b570      	push	{r4, r5, r6, lr}
1000436a:	601a      	str	r2, [r3, #0]
1000436c:	4a2c      	ldr	r2, [pc, #176]	@ (10004420 <runtime_init+0xbc>)
1000436e:	4b2d      	ldr	r3, [pc, #180]	@ (10004424 <runtime_init+0xc0>)
10004370:	492d      	ldr	r1, [pc, #180]	@ (10004428 <runtime_init+0xc4>)
10004372:	601a      	str	r2, [r3, #0]
10004374:	0014      	movs	r4, r2
10004376:	688b      	ldr	r3, [r1, #8]
10004378:	439c      	bics	r4, r3
1000437a:	d1fb      	bne.n	10004374 <runtime_init+0x10>
1000437c:	4d2b      	ldr	r5, [pc, #172]	@ (1000442c <runtime_init+0xc8>)
1000437e:	4e2c      	ldr	r6, [pc, #176]	@ (10004430 <runtime_init+0xcc>)
10004380:	42b5      	cmp	r5, r6
10004382:	d208      	bcs.n	10004396 <runtime_init+0x32>
10004384:	3e01      	subs	r6, #1
10004386:	1b76      	subs	r6, r6, r5
10004388:	08b6      	lsrs	r6, r6, #2
1000438a:	cd08      	ldmia	r5!, {r3}
1000438c:	4798      	blx	r3
1000438e:	0023      	movs	r3, r4
10004390:	3401      	adds	r4, #1
10004392:	42b3      	cmp	r3, r6
10004394:	d1f9      	bne.n	1000438a <runtime_init+0x26>
10004396:	f7ff fdc5 	bl	10003f24 <clocks_init>
1000439a:	4a26      	ldr	r2, [pc, #152]	@ (10004434 <runtime_init+0xd0>)
1000439c:	4b21      	ldr	r3, [pc, #132]	@ (10004424 <runtime_init+0xc0>)
1000439e:	601a      	str	r2, [r3, #0]
100043a0:	4a21      	ldr	r2, [pc, #132]	@ (10004428 <runtime_init+0xc4>)
100043a2:	6893      	ldr	r3, [r2, #8]
100043a4:	43db      	mvns	r3, r3
100043a6:	01db      	lsls	r3, r3, #7
100043a8:	09dd      	lsrs	r5, r3, #7
100043aa:	2b00      	cmp	r3, #0
100043ac:	d1f9      	bne.n	100043a2 <runtime_init+0x3e>
100043ae:	2240      	movs	r2, #64	@ 0x40
100043b0:	4b21      	ldr	r3, [pc, #132]	@ (10004438 <runtime_init+0xd4>)
100043b2:	4c22      	ldr	r4, [pc, #136]	@ (1000443c <runtime_init+0xd8>)
100043b4:	4e22      	ldr	r6, [pc, #136]	@ (10004440 <runtime_init+0xdc>)
100043b6:	679a      	str	r2, [r3, #120]	@ 0x78
100043b8:	675a      	str	r2, [r3, #116]	@ 0x74
100043ba:	671a      	str	r2, [r3, #112]	@ 0x70
100043bc:	66da      	str	r2, [r3, #108]	@ 0x6c
100043be:	42b4      	cmp	r4, r6
100043c0:	d208      	bcs.n	100043d4 <runtime_init+0x70>
100043c2:	6823      	ldr	r3, [r4, #0]
100043c4:	0020      	movs	r0, r4
100043c6:	2b00      	cmp	r3, #0
100043c8:	d020      	beq.n	1000440c <runtime_init+0xa8>
100043ca:	3408      	adds	r4, #8
100043cc:	f7fe ff50 	bl	10003270 <recursive_mutex_init>
100043d0:	42b4      	cmp	r4, r6
100043d2:	d3f6      	bcc.n	100043c2 <runtime_init+0x5e>
100043d4:	4c1b      	ldr	r4, [pc, #108]	@ (10004444 <runtime_init+0xe0>)
100043d6:	4e1c      	ldr	r6, [pc, #112]	@ (10004448 <runtime_init+0xe4>)
100043d8:	22c0      	movs	r2, #192	@ 0xc0
100043da:	68b1      	ldr	r1, [r6, #8]
100043dc:	0020      	movs	r0, r4
100043de:	f002 fce3 	bl	10006da8 <__wrap___aeabi_memcpy>
100043e2:	60b4      	str	r4, [r6, #8]
100043e4:	f7fe fc42 	bl	10002c6c <spin_locks_reset>
100043e8:	f7fe ff04 	bl	100031f4 <irq_init_priorities>
100043ec:	f7ff f8f8 	bl	100035e0 <alarm_pool_init_default>
100043f0:	4c16      	ldr	r4, [pc, #88]	@ (1000444c <runtime_init+0xe8>)
100043f2:	4e17      	ldr	r6, [pc, #92]	@ (10004450 <runtime_init+0xec>)
100043f4:	42b4      	cmp	r4, r6
100043f6:	d208      	bcs.n	1000440a <runtime_init+0xa6>
100043f8:	3e01      	subs	r6, #1
100043fa:	1b36      	subs	r6, r6, r4
100043fc:	08b6      	lsrs	r6, r6, #2
100043fe:	cc08      	ldmia	r4!, {r3}
10004400:	4798      	blx	r3
10004402:	002b      	movs	r3, r5
10004404:	3501      	adds	r5, #1
10004406:	429e      	cmp	r6, r3
10004408:	d1f9      	bne.n	100043fe <runtime_init+0x9a>
1000440a:	bd70      	pop	{r4, r5, r6, pc}
1000440c:	3408      	adds	r4, #8
1000440e:	f7fe ff21 	bl	10003254 <mutex_init>
10004412:	42b4      	cmp	r4, r6
10004414:	d3d5      	bcc.n	100043c2 <runtime_init+0x5e>
10004416:	e7dd      	b.n	100043d4 <runtime_init+0x70>
10004418:	4000e000 	.word	0x4000e000
1000441c:	fefbcdbf 	.word	0xfefbcdbf
10004420:	003c7ffe 	.word	0x003c7ffe
10004424:	4000f000 	.word	0x4000f000
10004428:	4000c000 	.word	0x4000c000
1000442c:	2000259c 	.word	0x2000259c
10004430:	200025ac 	.word	0x200025ac
10004434:	01ffffff 	.word	0x01ffffff
10004438:	4001f000 	.word	0x4001f000
1000443c:	2000258c 	.word	0x2000258c
10004440:	2000259c 	.word	0x2000259c
10004444:	20000000 	.word	0x20000000
10004448:	e000ed00 	.word	0xe000ed00
1000444c:	200025ac 	.word	0x200025ac
10004450:	200025b8 	.word	0x200025b8

10004454 <_exit>:
10004454:	be00      	bkpt	0x0000
10004456:	e7fd      	b.n	10004454 <_exit>

10004458 <_sbrk>:
10004458:	4a09      	ldr	r2, [pc, #36]	@ (10004480 <_sbrk+0x28>)
1000445a:	0003      	movs	r3, r0
1000445c:	6810      	ldr	r0, [r2, #0]
1000445e:	2800      	cmp	r0, #0
10004460:	d005      	beq.n	1000446e <_sbrk+0x16>
10004462:	4908      	ldr	r1, [pc, #32]	@ (10004484 <_sbrk+0x2c>)
10004464:	18c3      	adds	r3, r0, r3
10004466:	428b      	cmp	r3, r1
10004468:	d807      	bhi.n	1000447a <_sbrk+0x22>
1000446a:	6013      	str	r3, [r2, #0]
1000446c:	4770      	bx	lr
1000446e:	4806      	ldr	r0, [pc, #24]	@ (10004488 <_sbrk+0x30>)
10004470:	4904      	ldr	r1, [pc, #16]	@ (10004484 <_sbrk+0x2c>)
10004472:	18c3      	adds	r3, r0, r3
10004474:	6010      	str	r0, [r2, #0]
10004476:	428b      	cmp	r3, r1
10004478:	d9f7      	bls.n	1000446a <_sbrk+0x12>
1000447a:	2001      	movs	r0, #1
1000447c:	4240      	negs	r0, r0
1000447e:	e7f5      	b.n	1000446c <_sbrk+0x14>
10004480:	20003070 	.word	0x20003070
10004484:	20040000 	.word	0x20040000
10004488:	200034fc 	.word	0x200034fc

1000448c <_getpid>:
1000448c:	2000      	movs	r0, #0
1000448e:	4770      	bx	lr

10004490 <_kill>:
10004490:	2001      	movs	r0, #1
10004492:	4240      	negs	r0, r0
10004494:	4770      	bx	lr
10004496:	46c0      	nop			@ (mov r8, r8)

10004498 <exit>:
10004498:	b510      	push	{r4, lr}
1000449a:	f7ff ffdb 	bl	10004454 <_exit>
1000449e:	46c0      	nop			@ (mov r8, r8)

100044a0 <__assert_func>:
100044a0:	b530      	push	{r4, r5, lr}
100044a2:	000d      	movs	r5, r1
100044a4:	b083      	sub	sp, #12
100044a6:	0019      	movs	r1, r3
100044a8:	2a00      	cmp	r2, #0
100044aa:	d00b      	beq.n	100044c4 <__assert_func+0x24>
100044ac:	4b07      	ldr	r3, [pc, #28]	@ (100044cc <__assert_func+0x2c>)
100044ae:	4c08      	ldr	r4, [pc, #32]	@ (100044d0 <__assert_func+0x30>)
100044b0:	9201      	str	r2, [sp, #4]
100044b2:	9300      	str	r3, [sp, #0]
100044b4:	0002      	movs	r2, r0
100044b6:	002b      	movs	r3, r5
100044b8:	0020      	movs	r0, r4
100044ba:	f001 fbc3 	bl	10005c44 <weak_raw_printf>
100044be:	2001      	movs	r0, #1
100044c0:	f7ff ffc8 	bl	10004454 <_exit>
100044c4:	4b03      	ldr	r3, [pc, #12]	@ (100044d4 <__assert_func+0x34>)
100044c6:	001a      	movs	r2, r3
100044c8:	e7f1      	b.n	100044ae <__assert_func+0xe>
100044ca:	46c0      	nop			@ (mov r8, r8)
100044cc:	10019a20 	.word	0x10019a20
100044d0:	10019a30 	.word	0x10019a30
100044d4:	100199c0 	.word	0x100199c0

100044d8 <panic>:
100044d8:	b40f      	push	{r0, r1, r2, r3}
100044da:	b500      	push	{lr}
100044dc:	4808      	ldr	r0, [pc, #32]	@ (10004500 <panic+0x28>)
100044de:	b083      	sub	sp, #12
100044e0:	f002 fd06 	bl	10006ef0 <__wrap_puts>
100044e4:	9b04      	ldr	r3, [sp, #16]
100044e6:	2b00      	cmp	r3, #0
100044e8:	d007      	beq.n	100044fa <panic+0x22>
100044ea:	a905      	add	r1, sp, #20
100044ec:	0018      	movs	r0, r3
100044ee:	9101      	str	r1, [sp, #4]
100044f0:	f001 fbc8 	bl	10005c84 <weak_raw_vprintf>
100044f4:	4803      	ldr	r0, [pc, #12]	@ (10004504 <panic+0x2c>)
100044f6:	f002 fcfb 	bl	10006ef0 <__wrap_puts>
100044fa:	2001      	movs	r0, #1
100044fc:	f7ff ffaa 	bl	10004454 <_exit>
10004500:	10019a60 	.word	0x10019a60
10004504:	10019c80 	.word	0x10019c80

10004508 <hard_assertion_failure>:
10004508:	b510      	push	{r4, lr}
1000450a:	4801      	ldr	r0, [pc, #4]	@ (10004510 <hard_assertion_failure+0x8>)
1000450c:	f7ff ffe4 	bl	100044d8 <panic>
10004510:	10019a70 	.word	0x10019a70

10004514 <_out_buffer>:
10004514:	429a      	cmp	r2, r3
10004516:	d200      	bcs.n	1000451a <_out_buffer+0x6>
10004518:	5488      	strb	r0, [r1, r2]
1000451a:	4770      	bx	lr

1000451c <_out_null>:
1000451c:	4770      	bx	lr
1000451e:	46c0      	nop			@ (mov r8, r8)

10004520 <_out_rev>:
10004520:	b5f8      	push	{r3, r4, r5, r6, r7, lr}
10004522:	4657      	mov	r7, sl
10004524:	46de      	mov	lr, fp
10004526:	464e      	mov	r6, r9
10004528:	4645      	mov	r5, r8
1000452a:	b5e0      	push	{r5, r6, r7, lr}
1000452c:	4699      	mov	r9, r3
1000452e:	9b0a      	ldr	r3, [sp, #40]	@ 0x28
10004530:	0007      	movs	r7, r0
10004532:	469a      	mov	sl, r3
10004534:	9b0d      	ldr	r3, [sp, #52]	@ 0x34
10004536:	4688      	mov	r8, r1
10004538:	4693      	mov	fp, r2
1000453a:	9c0b      	ldr	r4, [sp, #44]	@ 0x2c
1000453c:	079b      	lsls	r3, r3, #30
1000453e:	d13b      	bne.n	100045b8 <_out_rev+0x98>
10004540:	9b0c      	ldr	r3, [sp, #48]	@ 0x30
10004542:	429c      	cmp	r4, r3
10004544:	d23d      	bcs.n	100045c2 <_out_rev+0xa2>
10004546:	1b1e      	subs	r6, r3, r4
10004548:	940b      	str	r4, [sp, #44]	@ 0x2c
1000454a:	0015      	movs	r5, r2
1000454c:	000c      	movs	r4, r1
1000454e:	445e      	add	r6, fp
10004550:	002a      	movs	r2, r5
10004552:	464b      	mov	r3, r9
10004554:	3501      	adds	r5, #1
10004556:	0021      	movs	r1, r4
10004558:	2020      	movs	r0, #32
1000455a:	47b8      	blx	r7
1000455c:	42b5      	cmp	r5, r6
1000455e:	d1f7      	bne.n	10004550 <_out_rev+0x30>
10004560:	46a0      	mov	r8, r4
10004562:	9c0b      	ldr	r4, [sp, #44]	@ 0x2c
10004564:	2c00      	cmp	r4, #0
10004566:	d020      	beq.n	100045aa <_out_rev+0x8a>
10004568:	4645      	mov	r5, r8
1000456a:	1936      	adds	r6, r6, r4
1000456c:	4653      	mov	r3, sl
1000456e:	1b32      	subs	r2, r6, r4
10004570:	3c01      	subs	r4, #1
10004572:	5d18      	ldrb	r0, [r3, r4]
10004574:	0029      	movs	r1, r5
10004576:	464b      	mov	r3, r9
10004578:	47b8      	blx	r7
1000457a:	2c00      	cmp	r4, #0
1000457c:	d1f6      	bne.n	1000456c <_out_rev+0x4c>
1000457e:	002b      	movs	r3, r5
10004580:	0035      	movs	r5, r6
10004582:	4698      	mov	r8, r3
10004584:	9b0d      	ldr	r3, [sp, #52]	@ 0x34
10004586:	079b      	lsls	r3, r3, #30
10004588:	d50f      	bpl.n	100045aa <_out_rev+0x8a>
1000458a:	465b      	mov	r3, fp
1000458c:	1aec      	subs	r4, r5, r3
1000458e:	9b0c      	ldr	r3, [sp, #48]	@ 0x30
10004590:	42a3      	cmp	r3, r4
10004592:	d90a      	bls.n	100045aa <_out_rev+0x8a>
10004594:	4646      	mov	r6, r8
10004596:	4698      	mov	r8, r3
10004598:	002a      	movs	r2, r5
1000459a:	464b      	mov	r3, r9
1000459c:	0031      	movs	r1, r6
1000459e:	2020      	movs	r0, #32
100045a0:	3401      	adds	r4, #1
100045a2:	47b8      	blx	r7
100045a4:	3501      	adds	r5, #1
100045a6:	4544      	cmp	r4, r8
100045a8:	d3f6      	bcc.n	10004598 <_out_rev+0x78>
100045aa:	0028      	movs	r0, r5
100045ac:	bcf0      	pop	{r4, r5, r6, r7}
100045ae:	46bb      	mov	fp, r7
100045b0:	46b2      	mov	sl, r6
100045b2:	46a9      	mov	r9, r5
100045b4:	46a0      	mov	r8, r4
100045b6:	bdf8      	pop	{r3, r4, r5, r6, r7, pc}
100045b8:	0016      	movs	r6, r2
100045ba:	0015      	movs	r5, r2
100045bc:	2c00      	cmp	r4, #0
100045be:	d1d3      	bne.n	10004568 <_out_rev+0x48>
100045c0:	e7e0      	b.n	10004584 <_out_rev+0x64>
100045c2:	0016      	movs	r6, r2
100045c4:	2c00      	cmp	r4, #0
100045c6:	d1cf      	bne.n	10004568 <_out_rev+0x48>
100045c8:	0015      	movs	r5, r2
100045ca:	e7ee      	b.n	100045aa <_out_rev+0x8a>

100045cc <_ntoa_format>:
100045cc:	b5f0      	push	{r4, r5, r6, r7, lr}
100045ce:	464f      	mov	r7, r9
100045d0:	4646      	mov	r6, r8
100045d2:	46d6      	mov	lr, sl
100045d4:	b5c0      	push	{r6, r7, lr}
100045d6:	b084      	sub	sp, #16
100045d8:	4698      	mov	r8, r3
100045da:	ab0e      	add	r3, sp, #56	@ 0x38
100045dc:	781b      	ldrb	r3, [r3, #0]
100045de:	4694      	mov	ip, r2
100045e0:	4699      	mov	r9, r3
100045e2:	9b12      	ldr	r3, [sp, #72]	@ 0x48
100045e4:	9c0d      	ldr	r4, [sp, #52]	@ 0x34
100045e6:	9f10      	ldr	r7, [sp, #64]	@ 0x40
100045e8:	9e11      	ldr	r6, [sp, #68]	@ 0x44
100045ea:	079a      	lsls	r2, r3, #30
100045ec:	d425      	bmi.n	1000463a <_ntoa_format+0x6e>
100045ee:	2e00      	cmp	r6, #0
100045f0:	d165      	bne.n	100046be <_ntoa_format+0xf2>
100045f2:	42bc      	cmp	r4, r7
100045f4:	d221      	bcs.n	1000463a <_ntoa_format+0x6e>
100045f6:	2201      	movs	r2, #1
100045f8:	401a      	ands	r2, r3
100045fa:	4692      	mov	sl, r2
100045fc:	2c20      	cmp	r4, #32
100045fe:	d100      	bne.n	10004602 <_ntoa_format+0x36>
10004600:	e0e9      	b.n	100047d6 <_ntoa_format+0x20a>
10004602:	9a0c      	ldr	r2, [sp, #48]	@ 0x30
10004604:	1e55      	subs	r5, r2, #1
10004606:	2230      	movs	r2, #48	@ 0x30
10004608:	e002      	b.n	10004610 <_ntoa_format+0x44>
1000460a:	2c20      	cmp	r4, #32
1000460c:	d100      	bne.n	10004610 <_ntoa_format+0x44>
1000460e:	e07b      	b.n	10004708 <_ntoa_format+0x13c>
10004610:	3401      	adds	r4, #1
10004612:	552a      	strb	r2, [r5, r4]
10004614:	42a7      	cmp	r7, r4
10004616:	d8f8      	bhi.n	1000460a <_ntoa_format+0x3e>
10004618:	4652      	mov	r2, sl
1000461a:	2a00      	cmp	r2, #0
1000461c:	d00d      	beq.n	1000463a <_ntoa_format+0x6e>
1000461e:	42b4      	cmp	r4, r6
10004620:	d20b      	bcs.n	1000463a <_ntoa_format+0x6e>
10004622:	9a0c      	ldr	r2, [sp, #48]	@ 0x30
10004624:	1e55      	subs	r5, r2, #1
10004626:	2230      	movs	r2, #48	@ 0x30
10004628:	2c20      	cmp	r4, #32
1000462a:	d102      	bne.n	10004632 <_ntoa_format+0x66>
1000462c:	e071      	b.n	10004712 <_ntoa_format+0x146>
1000462e:	2c20      	cmp	r4, #32
10004630:	d02d      	beq.n	1000468e <_ntoa_format+0xc2>
10004632:	3401      	adds	r4, #1
10004634:	552a      	strb	r2, [r5, r4]
10004636:	42b4      	cmp	r4, r6
10004638:	d1f9      	bne.n	1000462e <_ntoa_format+0x62>
1000463a:	06da      	lsls	r2, r3, #27
1000463c:	d53c      	bpl.n	100046b8 <_ntoa_format+0xec>
1000463e:	055a      	lsls	r2, r3, #21
10004640:	d42e      	bmi.n	100046a0 <_ntoa_format+0xd4>
10004642:	2c00      	cmp	r4, #0
10004644:	d128      	bne.n	10004698 <_ntoa_format+0xcc>
10004646:	9a0f      	ldr	r2, [sp, #60]	@ 0x3c
10004648:	2a10      	cmp	r2, #16
1000464a:	d100      	bne.n	1000464e <_ntoa_format+0x82>
1000464c:	e0b6      	b.n	100047bc <_ntoa_format+0x1f0>
1000464e:	2a02      	cmp	r2, #2
10004650:	d100      	bne.n	10004654 <_ntoa_format+0x88>
10004652:	e0bc      	b.n	100047ce <_ntoa_format+0x202>
10004654:	2230      	movs	r2, #48	@ 0x30
10004656:	9c0c      	ldr	r4, [sp, #48]	@ 0x30
10004658:	7022      	strb	r2, [r4, #0]
1000465a:	2401      	movs	r4, #1
1000465c:	464a      	mov	r2, r9
1000465e:	2a00      	cmp	r2, #0
10004660:	d165      	bne.n	1000472e <_ntoa_format+0x162>
10004662:	075a      	lsls	r2, r3, #29
10004664:	d400      	bmi.n	10004668 <_ntoa_format+0x9c>
10004666:	e099      	b.n	1000479c <_ntoa_format+0x1d0>
10004668:	222b      	movs	r2, #43	@ 0x2b
1000466a:	9d0c      	ldr	r5, [sp, #48]	@ 0x30
1000466c:	552a      	strb	r2, [r5, r4]
1000466e:	3401      	adds	r4, #1
10004670:	9303      	str	r3, [sp, #12]
10004672:	9b0c      	ldr	r3, [sp, #48]	@ 0x30
10004674:	4662      	mov	r2, ip
10004676:	9300      	str	r3, [sp, #0]
10004678:	9602      	str	r6, [sp, #8]
1000467a:	4643      	mov	r3, r8
1000467c:	9401      	str	r4, [sp, #4]
1000467e:	f7ff ff4f 	bl	10004520 <_out_rev>
10004682:	b004      	add	sp, #16
10004684:	bce0      	pop	{r5, r6, r7}
10004686:	46ba      	mov	sl, r7
10004688:	46b1      	mov	r9, r6
1000468a:	46a8      	mov	r8, r5
1000468c:	bdf0      	pop	{r4, r5, r6, r7, pc}
1000468e:	2420      	movs	r4, #32
10004690:	06da      	lsls	r2, r3, #27
10004692:	d5ed      	bpl.n	10004670 <_ntoa_format+0xa4>
10004694:	055a      	lsls	r2, r3, #21
10004696:	d403      	bmi.n	100046a0 <_ntoa_format+0xd4>
10004698:	42a7      	cmp	r7, r4
1000469a:	d066      	beq.n	1000476a <_ntoa_format+0x19e>
1000469c:	42b4      	cmp	r4, r6
1000469e:	d064      	beq.n	1000476a <_ntoa_format+0x19e>
100046a0:	9a0f      	ldr	r2, [sp, #60]	@ 0x3c
100046a2:	2a10      	cmp	r2, #16
100046a4:	d071      	beq.n	1000478a <_ntoa_format+0x1be>
100046a6:	2a02      	cmp	r2, #2
100046a8:	d057      	beq.n	1000475a <_ntoa_format+0x18e>
100046aa:	2c20      	cmp	r4, #32
100046ac:	d0e0      	beq.n	10004670 <_ntoa_format+0xa4>
100046ae:	0022      	movs	r2, r4
100046b0:	3401      	adds	r4, #1
100046b2:	2530      	movs	r5, #48	@ 0x30
100046b4:	9f0c      	ldr	r7, [sp, #48]	@ 0x30
100046b6:	54bd      	strb	r5, [r7, r2]
100046b8:	2c20      	cmp	r4, #32
100046ba:	d0d9      	beq.n	10004670 <_ntoa_format+0xa4>
100046bc:	e7ce      	b.n	1000465c <_ntoa_format+0x90>
100046be:	2201      	movs	r2, #1
100046c0:	0015      	movs	r5, r2
100046c2:	401d      	ands	r5, r3
100046c4:	46aa      	mov	sl, r5
100046c6:	421a      	tst	r2, r3
100046c8:	d036      	beq.n	10004738 <_ntoa_format+0x16c>
100046ca:	464a      	mov	r2, r9
100046cc:	2a00      	cmp	r2, #0
100046ce:	d14a      	bne.n	10004766 <_ntoa_format+0x19a>
100046d0:	320c      	adds	r2, #12
100046d2:	421a      	tst	r2, r3
100046d4:	d147      	bne.n	10004766 <_ntoa_format+0x19a>
100046d6:	42bc      	cmp	r4, r7
100046d8:	d2a1      	bcs.n	1000461e <_ntoa_format+0x52>
100046da:	2c20      	cmp	r4, #32
100046dc:	d191      	bne.n	10004602 <_ntoa_format+0x36>
100046de:	2e20      	cmp	r6, #32
100046e0:	d817      	bhi.n	10004712 <_ntoa_format+0x146>
100046e2:	2420      	movs	r4, #32
100046e4:	06da      	lsls	r2, r3, #27
100046e6:	d5c3      	bpl.n	10004670 <_ntoa_format+0xa4>
100046e8:	055a      	lsls	r2, r3, #21
100046ea:	d41b      	bmi.n	10004724 <_ntoa_format+0x158>
100046ec:	2f20      	cmp	r7, #32
100046ee:	d001      	beq.n	100046f4 <_ntoa_format+0x128>
100046f0:	2e20      	cmp	r6, #32
100046f2:	d1d5      	bne.n	100046a0 <_ntoa_format+0xd4>
100046f4:	221f      	movs	r2, #31
100046f6:	9d0f      	ldr	r5, [sp, #60]	@ 0x3c
100046f8:	2d10      	cmp	r5, #16
100046fa:	d06f      	beq.n	100047dc <_ntoa_format+0x210>
100046fc:	2d02      	cmp	r5, #2
100046fe:	d1d8      	bne.n	100046b2 <_ntoa_format+0xe6>
10004700:	2562      	movs	r5, #98	@ 0x62
10004702:	9f0c      	ldr	r7, [sp, #48]	@ 0x30
10004704:	54bd      	strb	r5, [r7, r2]
10004706:	e7d0      	b.n	100046aa <_ntoa_format+0xde>
10004708:	4652      	mov	r2, sl
1000470a:	2a00      	cmp	r2, #0
1000470c:	d079      	beq.n	10004802 <_ntoa_format+0x236>
1000470e:	2e20      	cmp	r6, #32
10004710:	d9bd      	bls.n	1000468e <_ntoa_format+0xc2>
10004712:	2420      	movs	r4, #32
10004714:	06da      	lsls	r2, r3, #27
10004716:	d5ab      	bpl.n	10004670 <_ntoa_format+0xa4>
10004718:	055a      	lsls	r2, r3, #21
1000471a:	d403      	bmi.n	10004724 <_ntoa_format+0x158>
1000471c:	2f20      	cmp	r7, #32
1000471e:	d0e9      	beq.n	100046f4 <_ntoa_format+0x128>
10004720:	2e20      	cmp	r6, #32
10004722:	d0e7      	beq.n	100046f4 <_ntoa_format+0x128>
10004724:	9a0f      	ldr	r2, [sp, #60]	@ 0x3c
10004726:	2a10      	cmp	r2, #16
10004728:	d1a2      	bne.n	10004670 <_ntoa_format+0xa4>
1000472a:	2420      	movs	r4, #32
1000472c:	e7a0      	b.n	10004670 <_ntoa_format+0xa4>
1000472e:	222d      	movs	r2, #45	@ 0x2d
10004730:	9d0c      	ldr	r5, [sp, #48]	@ 0x30
10004732:	552a      	strb	r2, [r5, r4]
10004734:	3401      	adds	r4, #1
10004736:	e79b      	b.n	10004670 <_ntoa_format+0xa4>
10004738:	42bc      	cmp	r4, r7
1000473a:	d300      	bcc.n	1000473e <_ntoa_format+0x172>
1000473c:	e77d      	b.n	1000463a <_ntoa_format+0x6e>
1000473e:	2c20      	cmp	r4, #32
10004740:	d000      	beq.n	10004744 <_ntoa_format+0x178>
10004742:	e75e      	b.n	10004602 <_ntoa_format+0x36>
10004744:	06da      	lsls	r2, r3, #27
10004746:	d5f0      	bpl.n	1000472a <_ntoa_format+0x15e>
10004748:	055a      	lsls	r2, r3, #21
1000474a:	d4ee      	bmi.n	1000472a <_ntoa_format+0x15e>
1000474c:	2f20      	cmp	r7, #32
1000474e:	d062      	beq.n	10004816 <_ntoa_format+0x24a>
10004750:	2e20      	cmp	r6, #32
10004752:	d1ea      	bne.n	1000472a <_ntoa_format+0x15e>
10004754:	0034      	movs	r4, r6
10004756:	221f      	movs	r2, #31
10004758:	e7cd      	b.n	100046f6 <_ntoa_format+0x12a>
1000475a:	2c20      	cmp	r4, #32
1000475c:	d100      	bne.n	10004760 <_ntoa_format+0x194>
1000475e:	e787      	b.n	10004670 <_ntoa_format+0xa4>
10004760:	0022      	movs	r2, r4
10004762:	3401      	adds	r4, #1
10004764:	e7cc      	b.n	10004700 <_ntoa_format+0x134>
10004766:	3e01      	subs	r6, #1
10004768:	e7b5      	b.n	100046d6 <_ntoa_format+0x10a>
1000476a:	1e62      	subs	r2, r4, #1
1000476c:	2c01      	cmp	r4, #1
1000476e:	d1c2      	bne.n	100046f6 <_ntoa_format+0x12a>
10004770:	9a0f      	ldr	r2, [sp, #60]	@ 0x3c
10004772:	2a10      	cmp	r2, #16
10004774:	d000      	beq.n	10004778 <_ntoa_format+0x1ac>
10004776:	e76a      	b.n	1000464e <_ntoa_format+0x82>
10004778:	069a      	lsls	r2, r3, #26
1000477a:	d53b      	bpl.n	100047f4 <_ntoa_format+0x228>
1000477c:	2258      	movs	r2, #88	@ 0x58
1000477e:	9c0c      	ldr	r4, [sp, #48]	@ 0x30
10004780:	7022      	strb	r2, [r4, #0]
10004782:	3a28      	subs	r2, #40	@ 0x28
10004784:	7062      	strb	r2, [r4, #1]
10004786:	2402      	movs	r4, #2
10004788:	e768      	b.n	1000465c <_ntoa_format+0x90>
1000478a:	069a      	lsls	r2, r3, #26
1000478c:	d40e      	bmi.n	100047ac <_ntoa_format+0x1e0>
1000478e:	2c20      	cmp	r4, #32
10004790:	d0cb      	beq.n	1000472a <_ntoa_format+0x15e>
10004792:	2278      	movs	r2, #120	@ 0x78
10004794:	9d0c      	ldr	r5, [sp, #48]	@ 0x30
10004796:	552a      	strb	r2, [r5, r4]
10004798:	3401      	adds	r4, #1
1000479a:	e786      	b.n	100046aa <_ntoa_format+0xde>
1000479c:	071a      	lsls	r2, r3, #28
1000479e:	d400      	bmi.n	100047a2 <_ntoa_format+0x1d6>
100047a0:	e766      	b.n	10004670 <_ntoa_format+0xa4>
100047a2:	2220      	movs	r2, #32
100047a4:	9d0c      	ldr	r5, [sp, #48]	@ 0x30
100047a6:	552a      	strb	r2, [r5, r4]
100047a8:	3401      	adds	r4, #1
100047aa:	e761      	b.n	10004670 <_ntoa_format+0xa4>
100047ac:	2c20      	cmp	r4, #32
100047ae:	d0bc      	beq.n	1000472a <_ntoa_format+0x15e>
100047b0:	2558      	movs	r5, #88	@ 0x58
100047b2:	9a0c      	ldr	r2, [sp, #48]	@ 0x30
100047b4:	1912      	adds	r2, r2, r4
100047b6:	7015      	strb	r5, [r2, #0]
100047b8:	3401      	adds	r4, #1
100047ba:	e776      	b.n	100046aa <_ntoa_format+0xde>
100047bc:	069a      	lsls	r2, r3, #26
100047be:	d508      	bpl.n	100047d2 <_ntoa_format+0x206>
100047c0:	2258      	movs	r2, #88	@ 0x58
100047c2:	9c0c      	ldr	r4, [sp, #48]	@ 0x30
100047c4:	7022      	strb	r2, [r4, #0]
100047c6:	2230      	movs	r2, #48	@ 0x30
100047c8:	7062      	strb	r2, [r4, #1]
100047ca:	2402      	movs	r4, #2
100047cc:	e746      	b.n	1000465c <_ntoa_format+0x90>
100047ce:	3260      	adds	r2, #96	@ 0x60
100047d0:	e7f7      	b.n	100047c2 <_ntoa_format+0x1f6>
100047d2:	2278      	movs	r2, #120	@ 0x78
100047d4:	e7f5      	b.n	100047c2 <_ntoa_format+0x1f6>
100047d6:	2a00      	cmp	r2, #0
100047d8:	d183      	bne.n	100046e2 <_ntoa_format+0x116>
100047da:	e7b3      	b.n	10004744 <_ntoa_format+0x178>
100047dc:	1ea2      	subs	r2, r4, #2
100047de:	3c01      	subs	r4, #1
100047e0:	069d      	lsls	r5, r3, #26
100047e2:	d403      	bmi.n	100047ec <_ntoa_format+0x220>
100047e4:	2578      	movs	r5, #120	@ 0x78
100047e6:	9f0c      	ldr	r7, [sp, #48]	@ 0x30
100047e8:	54bd      	strb	r5, [r7, r2]
100047ea:	e760      	b.n	100046ae <_ntoa_format+0xe2>
100047ec:	2558      	movs	r5, #88	@ 0x58
100047ee:	9f0c      	ldr	r7, [sp, #48]	@ 0x30
100047f0:	54bd      	strb	r5, [r7, r2]
100047f2:	e75c      	b.n	100046ae <_ntoa_format+0xe2>
100047f4:	2278      	movs	r2, #120	@ 0x78
100047f6:	9c0c      	ldr	r4, [sp, #48]	@ 0x30
100047f8:	7022      	strb	r2, [r4, #0]
100047fa:	3a48      	subs	r2, #72	@ 0x48
100047fc:	7062      	strb	r2, [r4, #1]
100047fe:	2402      	movs	r4, #2
10004800:	e72c      	b.n	1000465c <_ntoa_format+0x90>
10004802:	06da      	lsls	r2, r3, #27
10004804:	d400      	bmi.n	10004808 <_ntoa_format+0x23c>
10004806:	e733      	b.n	10004670 <_ntoa_format+0xa4>
10004808:	055a      	lsls	r2, r3, #21
1000480a:	d48b      	bmi.n	10004724 <_ntoa_format+0x158>
1000480c:	2f20      	cmp	r7, #32
1000480e:	d000      	beq.n	10004812 <_ntoa_format+0x246>
10004810:	e744      	b.n	1000469c <_ntoa_format+0xd0>
10004812:	221f      	movs	r2, #31
10004814:	e76f      	b.n	100046f6 <_ntoa_format+0x12a>
10004816:	003c      	movs	r4, r7
10004818:	221f      	movs	r2, #31
1000481a:	e76c      	b.n	100046f6 <_ntoa_format+0x12a>

1000481c <_out_char>:
1000481c:	b510      	push	{r4, lr}
1000481e:	2800      	cmp	r0, #0
10004820:	d100      	bne.n	10004824 <_out_char+0x8>
10004822:	bd10      	pop	{r4, pc}
10004824:	f002 fb18 	bl	10006e58 <__wrap_putchar>
10004828:	e7fb      	b.n	10004822 <_out_char+0x6>
1000482a:	46c0      	nop			@ (mov r8, r8)

1000482c <_etoa>:
1000482c:	b5f0      	push	{r4, r5, r6, r7, lr}
1000482e:	4657      	mov	r7, sl
10004830:	464e      	mov	r6, r9
10004832:	4645      	mov	r5, r8
10004834:	46de      	mov	lr, fp
10004836:	b5e0      	push	{r5, r6, r7, lr}
10004838:	b099      	sub	sp, #100	@ 0x64
1000483a:	4682      	mov	sl, r0
1000483c:	4689      	mov	r9, r1
1000483e:	4690      	mov	r8, r2
10004840:	9308      	str	r3, [sp, #32]
10004842:	9a22      	ldr	r2, [sp, #136]	@ 0x88
10004844:	9b23      	ldr	r3, [sp, #140]	@ 0x8c
10004846:	0010      	movs	r0, r2
10004848:	0019      	movs	r1, r3
1000484a:	f001 fd6c 	bl	10006326 <__wrap___aeabi_dcmpun>
1000484e:	2800      	cmp	r0, #0
10004850:	d000      	beq.n	10004854 <_etoa+0x28>
10004852:	e0cd      	b.n	100049f0 <_etoa+0x1c4>
10004854:	9822      	ldr	r0, [sp, #136]	@ 0x88
10004856:	9923      	ldr	r1, [sp, #140]	@ 0x8c
10004858:	2201      	movs	r2, #1
1000485a:	4bd9      	ldr	r3, [pc, #868]	@ (10004bc0 <_etoa+0x394>)
1000485c:	4252      	negs	r2, r2
1000485e:	f001 fd5d 	bl	1000631c <__wrap___aeabi_dcmpgt>
10004862:	2800      	cmp	r0, #0
10004864:	d000      	beq.n	10004868 <_etoa+0x3c>
10004866:	e0c3      	b.n	100049f0 <_etoa+0x1c4>
10004868:	9822      	ldr	r0, [sp, #136]	@ 0x88
1000486a:	9923      	ldr	r1, [sp, #140]	@ 0x8c
1000486c:	2201      	movs	r2, #1
1000486e:	4bd5      	ldr	r3, [pc, #852]	@ (10004bc4 <_etoa+0x398>)
10004870:	4252      	negs	r2, r2
10004872:	f001 fd3d 	bl	100062f0 <__wrap___aeabi_dcmplt>
10004876:	2800      	cmp	r0, #0
10004878:	d000      	beq.n	1000487c <_etoa+0x50>
1000487a:	e0b9      	b.n	100049f0 <_etoa+0x1c4>
1000487c:	9822      	ldr	r0, [sp, #136]	@ 0x88
1000487e:	9923      	ldr	r1, [sp, #140]	@ 0x8c
10004880:	2200      	movs	r2, #0
10004882:	2300      	movs	r3, #0
10004884:	f001 fd34 	bl	100062f0 <__wrap___aeabi_dcmplt>
10004888:	2800      	cmp	r0, #0
1000488a:	d000      	beq.n	1000488e <_etoa+0x62>
1000488c:	e1f1      	b.n	10004c72 <_etoa+0x446>
1000488e:	9e22      	ldr	r6, [sp, #136]	@ 0x88
10004890:	9f23      	ldr	r7, [sp, #140]	@ 0x8c
10004892:	2380      	movs	r3, #128	@ 0x80
10004894:	9a26      	ldr	r2, [sp, #152]	@ 0x98
10004896:	00db      	lsls	r3, r3, #3
10004898:	401a      	ands	r2, r3
1000489a:	920d      	str	r2, [sp, #52]	@ 0x34
1000489c:	9a26      	ldr	r2, [sp, #152]	@ 0x98
1000489e:	421a      	tst	r2, r3
100048a0:	d101      	bne.n	100048a6 <_etoa+0x7a>
100048a2:	2306      	movs	r3, #6
100048a4:	9324      	str	r3, [sp, #144]	@ 0x90
100048a6:	2380      	movs	r3, #128	@ 0x80
100048a8:	9a26      	ldr	r2, [sp, #152]	@ 0x98
100048aa:	011b      	lsls	r3, r3, #4
100048ac:	401a      	ands	r2, r3
100048ae:	003b      	movs	r3, r7
100048b0:	4693      	mov	fp, r2
100048b2:	9609      	str	r6, [sp, #36]	@ 0x24
100048b4:	4333      	orrs	r3, r6
100048b6:	d000      	beq.n	100048ba <_etoa+0x8e>
100048b8:	e0b3      	b.n	10004a22 <_etoa+0x1f6>
100048ba:	2a00      	cmp	r2, #0
100048bc:	d000      	beq.n	100048c0 <_etoa+0x94>
100048be:	e1c2      	b.n	10004c46 <_etoa+0x41a>
100048c0:	2300      	movs	r3, #0
100048c2:	2400      	movs	r4, #0
100048c4:	930a      	str	r3, [sp, #40]	@ 0x28
100048c6:	940b      	str	r4, [sp, #44]	@ 0x2c
100048c8:	2300      	movs	r3, #0
100048ca:	2504      	movs	r5, #4
100048cc:	9309      	str	r3, [sp, #36]	@ 0x24
100048ce:	9b25      	ldr	r3, [sp, #148]	@ 0x94
100048d0:	2400      	movs	r4, #0
100048d2:	42ab      	cmp	r3, r5
100048d4:	d900      	bls.n	100048d8 <_etoa+0xac>
100048d6:	1b5c      	subs	r4, r3, r5
100048d8:	2302      	movs	r3, #2
100048da:	9a26      	ldr	r2, [sp, #152]	@ 0x98
100048dc:	401a      	ands	r2, r3
100048de:	920c      	str	r2, [sp, #48]	@ 0x30
100048e0:	9a26      	ldr	r2, [sp, #152]	@ 0x98
100048e2:	4213      	tst	r3, r2
100048e4:	d003      	beq.n	100048ee <_etoa+0xc2>
100048e6:	426b      	negs	r3, r5
100048e8:	416b      	adcs	r3, r5
100048ea:	425b      	negs	r3, r3
100048ec:	401c      	ands	r4, r3
100048ee:	9b09      	ldr	r3, [sp, #36]	@ 0x24
100048f0:	2b00      	cmp	r3, #0
100048f2:	d007      	beq.n	10004904 <_etoa+0xd8>
100048f4:	9a0a      	ldr	r2, [sp, #40]	@ 0x28
100048f6:	9b0b      	ldr	r3, [sp, #44]	@ 0x2c
100048f8:	0030      	movs	r0, r6
100048fa:	0039      	movs	r1, r7
100048fc:	f001 fc8f 	bl	1000621e <__wrap___aeabi_ddiv>
10004900:	0006      	movs	r6, r0
10004902:	000f      	movs	r7, r1
10004904:	9822      	ldr	r0, [sp, #136]	@ 0x88
10004906:	9923      	ldr	r1, [sp, #140]	@ 0x8c
10004908:	2200      	movs	r2, #0
1000490a:	2300      	movs	r3, #0
1000490c:	f001 fcf0 	bl	100062f0 <__wrap___aeabi_dcmplt>
10004910:	2800      	cmp	r0, #0
10004912:	d003      	beq.n	1000491c <_etoa+0xf0>
10004914:	2180      	movs	r1, #128	@ 0x80
10004916:	0609      	lsls	r1, r1, #24
10004918:	187b      	adds	r3, r7, r1
1000491a:	001f      	movs	r7, r3
1000491c:	9a26      	ldr	r2, [sp, #152]	@ 0x98
1000491e:	4baa      	ldr	r3, [pc, #680]	@ (10004bc8 <_etoa+0x39c>)
10004920:	9600      	str	r6, [sp, #0]
10004922:	9701      	str	r7, [sp, #4]
10004924:	4013      	ands	r3, r2
10004926:	9e08      	ldr	r6, [sp, #32]
10004928:	9304      	str	r3, [sp, #16]
1000492a:	9b24      	ldr	r3, [sp, #144]	@ 0x90
1000492c:	9403      	str	r4, [sp, #12]
1000492e:	9302      	str	r3, [sp, #8]
10004930:	4642      	mov	r2, r8
10004932:	0033      	movs	r3, r6
10004934:	4649      	mov	r1, r9
10004936:	4650      	mov	r0, sl
10004938:	f000 f9aa 	bl	10004c90 <_ftoa>
1000493c:	0004      	movs	r4, r0
1000493e:	2d00      	cmp	r5, #0
10004940:	d067      	beq.n	10004a12 <_etoa+0x1e6>
10004942:	2020      	movs	r0, #32
10004944:	9a26      	ldr	r2, [sp, #152]	@ 0x98
10004946:	4649      	mov	r1, r9
10004948:	4002      	ands	r2, r0
1000494a:	0013      	movs	r3, r2
1000494c:	425a      	negs	r2, r3
1000494e:	4153      	adcs	r3, r2
10004950:	425b      	negs	r3, r3
10004952:	1c62      	adds	r2, r4, #1
10004954:	4018      	ands	r0, r3
10004956:	920a      	str	r2, [sp, #40]	@ 0x28
10004958:	0033      	movs	r3, r6
1000495a:	0022      	movs	r2, r4
1000495c:	3045      	adds	r0, #69	@ 0x45
1000495e:	47d0      	blx	sl
10004960:	9a09      	ldr	r2, [sp, #36]	@ 0x24
10004962:	1e6f      	subs	r7, r5, #1
10004964:	17d3      	asrs	r3, r2, #31
10004966:	18d4      	adds	r4, r2, r3
10004968:	405c      	eors	r4, r3
1000496a:	0fd3      	lsrs	r3, r2, #31
1000496c:	469b      	mov	fp, r3
1000496e:	2500      	movs	r5, #0
10004970:	e001      	b.n	10004976 <_etoa+0x14a>
10004972:	2d20      	cmp	r5, #32
10004974:	d013      	beq.n	1000499e <_etoa+0x172>
10004976:	aa08      	add	r2, sp, #32
10004978:	4694      	mov	ip, r2
1000497a:	231f      	movs	r3, #31
1000497c:	0020      	movs	r0, r4
1000497e:	4463      	add	r3, ip
10004980:	210a      	movs	r1, #10
10004982:	3501      	adds	r5, #1
10004984:	195e      	adds	r6, r3, r5
10004986:	f001 f9fd 	bl	10005d84 <__wrap___aeabi_uidiv>
1000498a:	3130      	adds	r1, #48	@ 0x30
1000498c:	7031      	strb	r1, [r6, #0]
1000498e:	0020      	movs	r0, r4
10004990:	210a      	movs	r1, #10
10004992:	f001 f9f7 	bl	10005d84 <__wrap___aeabi_uidiv>
10004996:	0026      	movs	r6, r4
10004998:	0004      	movs	r4, r0
1000499a:	2e09      	cmp	r6, #9
1000499c:	d8e9      	bhi.n	10004972 <_etoa+0x146>
1000499e:	2305      	movs	r3, #5
100049a0:	9306      	str	r3, [sp, #24]
100049a2:	2300      	movs	r3, #0
100049a4:	9304      	str	r3, [sp, #16]
100049a6:	330a      	adds	r3, #10
100049a8:	9303      	str	r3, [sp, #12]
100049aa:	465b      	mov	r3, fp
100049ac:	9e08      	ldr	r6, [sp, #32]
100049ae:	9302      	str	r3, [sp, #8]
100049b0:	ab10      	add	r3, sp, #64	@ 0x40
100049b2:	9a0a      	ldr	r2, [sp, #40]	@ 0x28
100049b4:	9300      	str	r3, [sp, #0]
100049b6:	4649      	mov	r1, r9
100049b8:	0033      	movs	r3, r6
100049ba:	4650      	mov	r0, sl
100049bc:	9705      	str	r7, [sp, #20]
100049be:	9501      	str	r5, [sp, #4]
100049c0:	f7ff fe04 	bl	100045cc <_ntoa_format>
100049c4:	9a0c      	ldr	r2, [sp, #48]	@ 0x30
100049c6:	0004      	movs	r4, r0
100049c8:	2a00      	cmp	r2, #0
100049ca:	d022      	beq.n	10004a12 <_etoa+0x1e6>
100049cc:	4642      	mov	r2, r8
100049ce:	1a85      	subs	r5, r0, r2
100049d0:	9a25      	ldr	r2, [sp, #148]	@ 0x94
100049d2:	42aa      	cmp	r2, r5
100049d4:	d91d      	bls.n	10004a12 <_etoa+0x1e6>
100049d6:	46b0      	mov	r8, r6
100049d8:	4657      	mov	r7, sl
100049da:	0016      	movs	r6, r2
100049dc:	0022      	movs	r2, r4
100049de:	4643      	mov	r3, r8
100049e0:	4649      	mov	r1, r9
100049e2:	2020      	movs	r0, #32
100049e4:	3501      	adds	r5, #1
100049e6:	47b8      	blx	r7
100049e8:	3401      	adds	r4, #1
100049ea:	42ae      	cmp	r6, r5
100049ec:	d8f6      	bhi.n	100049dc <_etoa+0x1b0>
100049ee:	e010      	b.n	10004a12 <_etoa+0x1e6>
100049f0:	9b26      	ldr	r3, [sp, #152]	@ 0x98
100049f2:	4642      	mov	r2, r8
100049f4:	9304      	str	r3, [sp, #16]
100049f6:	9b25      	ldr	r3, [sp, #148]	@ 0x94
100049f8:	4649      	mov	r1, r9
100049fa:	9303      	str	r3, [sp, #12]
100049fc:	9b24      	ldr	r3, [sp, #144]	@ 0x90
100049fe:	4650      	mov	r0, sl
10004a00:	9302      	str	r3, [sp, #8]
10004a02:	9b22      	ldr	r3, [sp, #136]	@ 0x88
10004a04:	9c23      	ldr	r4, [sp, #140]	@ 0x8c
10004a06:	9300      	str	r3, [sp, #0]
10004a08:	9401      	str	r4, [sp, #4]
10004a0a:	9b08      	ldr	r3, [sp, #32]
10004a0c:	f000 f940 	bl	10004c90 <_ftoa>
10004a10:	0004      	movs	r4, r0
10004a12:	0020      	movs	r0, r4
10004a14:	b019      	add	sp, #100	@ 0x64
10004a16:	bcf0      	pop	{r4, r5, r6, r7}
10004a18:	46bb      	mov	fp, r7
10004a1a:	46b2      	mov	sl, r6
10004a1c:	46a9      	mov	r9, r5
10004a1e:	46a0      	mov	r8, r4
10004a20:	bdf0      	pop	{r4, r5, r6, r7, pc}
10004a22:	4b6a      	ldr	r3, [pc, #424]	@ (10004bcc <_etoa+0x3a0>)
10004a24:	0078      	lsls	r0, r7, #1
10004a26:	469c      	mov	ip, r3
10004a28:	0d40      	lsrs	r0, r0, #21
10004a2a:	4460      	add	r0, ip
10004a2c:	f001 fc8e 	bl	1000634c <__wrap___aeabi_i2d>
10004a30:	4a67      	ldr	r2, [pc, #412]	@ (10004bd0 <_etoa+0x3a4>)
10004a32:	4b68      	ldr	r3, [pc, #416]	@ (10004bd4 <_etoa+0x3a8>)
10004a34:	f001 fc11 	bl	1000625a <__wrap___aeabi_dmul>
10004a38:	4a67      	ldr	r2, [pc, #412]	@ (10004bd8 <_etoa+0x3ac>)
10004a3a:	4b68      	ldr	r3, [pc, #416]	@ (10004bdc <_etoa+0x3b0>)
10004a3c:	f001 fbe6 	bl	1000620c <__wrap___aeabi_dadd>
10004a40:	4a67      	ldr	r2, [pc, #412]	@ (10004be0 <_etoa+0x3b4>)
10004a42:	033b      	lsls	r3, r7, #12
10004a44:	0b1b      	lsrs	r3, r3, #12
10004a46:	431a      	orrs	r2, r3
10004a48:	0004      	movs	r4, r0
10004a4a:	000d      	movs	r5, r1
10004a4c:	9809      	ldr	r0, [sp, #36]	@ 0x24
10004a4e:	0011      	movs	r1, r2
10004a50:	4b64      	ldr	r3, [pc, #400]	@ (10004be4 <_etoa+0x3b8>)
10004a52:	2200      	movs	r2, #0
10004a54:	f001 fbd1 	bl	100061fa <__wrap___aeabi_dsub>
10004a58:	4a63      	ldr	r2, [pc, #396]	@ (10004be8 <_etoa+0x3bc>)
10004a5a:	4b64      	ldr	r3, [pc, #400]	@ (10004bec <_etoa+0x3c0>)
10004a5c:	f001 fbfd 	bl	1000625a <__wrap___aeabi_dmul>
10004a60:	0002      	movs	r2, r0
10004a62:	000b      	movs	r3, r1
10004a64:	0020      	movs	r0, r4
10004a66:	0029      	movs	r1, r5
10004a68:	f001 fbd0 	bl	1000620c <__wrap___aeabi_dadd>
10004a6c:	f001 fc86 	bl	1000637c <__wrap___aeabi_d2iz>
10004a70:	9009      	str	r0, [sp, #36]	@ 0x24
10004a72:	f001 fc6b 	bl	1000634c <__wrap___aeabi_i2d>
10004a76:	4a5e      	ldr	r2, [pc, #376]	@ (10004bf0 <_etoa+0x3c4>)
10004a78:	4b5e      	ldr	r3, [pc, #376]	@ (10004bf4 <_etoa+0x3c8>)
10004a7a:	0004      	movs	r4, r0
10004a7c:	000d      	movs	r5, r1
10004a7e:	f001 fbec 	bl	1000625a <__wrap___aeabi_dmul>
10004a82:	2200      	movs	r2, #0
10004a84:	4b5c      	ldr	r3, [pc, #368]	@ (10004bf8 <_etoa+0x3cc>)
10004a86:	f001 fbc1 	bl	1000620c <__wrap___aeabi_dadd>
10004a8a:	f001 fc77 	bl	1000637c <__wrap___aeabi_d2iz>
10004a8e:	4a5b      	ldr	r2, [pc, #364]	@ (10004bfc <_etoa+0x3d0>)
10004a90:	4b5b      	ldr	r3, [pc, #364]	@ (10004c00 <_etoa+0x3d4>)
10004a92:	0029      	movs	r1, r5
10004a94:	900c      	str	r0, [sp, #48]	@ 0x30
10004a96:	0020      	movs	r0, r4
10004a98:	f001 fbdf 	bl	1000625a <__wrap___aeabi_dmul>
10004a9c:	0004      	movs	r4, r0
10004a9e:	980c      	ldr	r0, [sp, #48]	@ 0x30
10004aa0:	000d      	movs	r5, r1
10004aa2:	f001 fc53 	bl	1000634c <__wrap___aeabi_i2d>
10004aa6:	4a57      	ldr	r2, [pc, #348]	@ (10004c04 <_etoa+0x3d8>)
10004aa8:	4b57      	ldr	r3, [pc, #348]	@ (10004c08 <_etoa+0x3dc>)
10004aaa:	f001 fbd6 	bl	1000625a <__wrap___aeabi_dmul>
10004aae:	0002      	movs	r2, r0
10004ab0:	000b      	movs	r3, r1
10004ab2:	0020      	movs	r0, r4
10004ab4:	0029      	movs	r1, r5
10004ab6:	f001 fba0 	bl	100061fa <__wrap___aeabi_dsub>
10004aba:	0004      	movs	r4, r0
10004abc:	000d      	movs	r5, r1
10004abe:	0002      	movs	r2, r0
10004ac0:	000b      	movs	r3, r1
10004ac2:	940a      	str	r4, [sp, #40]	@ 0x28
10004ac4:	950b      	str	r5, [sp, #44]	@ 0x2c
10004ac6:	f001 fbc8 	bl	1000625a <__wrap___aeabi_dmul>
10004aca:	0004      	movs	r4, r0
10004acc:	000d      	movs	r5, r1
10004ace:	980a      	ldr	r0, [sp, #40]	@ 0x28
10004ad0:	990b      	ldr	r1, [sp, #44]	@ 0x2c
10004ad2:	0002      	movs	r2, r0
10004ad4:	000b      	movs	r3, r1
10004ad6:	f001 fb99 	bl	1000620c <__wrap___aeabi_dadd>
10004ada:	2200      	movs	r2, #0
10004adc:	900e      	str	r0, [sp, #56]	@ 0x38
10004ade:	910f      	str	r1, [sp, #60]	@ 0x3c
10004ae0:	4b4a      	ldr	r3, [pc, #296]	@ (10004c0c <_etoa+0x3e0>)
10004ae2:	0020      	movs	r0, r4
10004ae4:	0029      	movs	r1, r5
10004ae6:	f001 fb9a 	bl	1000621e <__wrap___aeabi_ddiv>
10004aea:	2200      	movs	r2, #0
10004aec:	4b48      	ldr	r3, [pc, #288]	@ (10004c10 <_etoa+0x3e4>)
10004aee:	f001 fb8d 	bl	1000620c <__wrap___aeabi_dadd>
10004af2:	0002      	movs	r2, r0
10004af4:	000b      	movs	r3, r1
10004af6:	0020      	movs	r0, r4
10004af8:	0029      	movs	r1, r5
10004afa:	f001 fb90 	bl	1000621e <__wrap___aeabi_ddiv>
10004afe:	2200      	movs	r2, #0
10004b00:	4b44      	ldr	r3, [pc, #272]	@ (10004c14 <_etoa+0x3e8>)
10004b02:	f001 fb83 	bl	1000620c <__wrap___aeabi_dadd>
10004b06:	0002      	movs	r2, r0
10004b08:	000b      	movs	r3, r1
10004b0a:	0020      	movs	r0, r4
10004b0c:	0029      	movs	r1, r5
10004b0e:	f001 fb86 	bl	1000621e <__wrap___aeabi_ddiv>
10004b12:	9a0a      	ldr	r2, [sp, #40]	@ 0x28
10004b14:	9b0b      	ldr	r3, [sp, #44]	@ 0x2c
10004b16:	000d      	movs	r5, r1
10004b18:	2180      	movs	r1, #128	@ 0x80
10004b1a:	0004      	movs	r4, r0
10004b1c:	05c9      	lsls	r1, r1, #23
10004b1e:	2000      	movs	r0, #0
10004b20:	f001 fb6b 	bl	100061fa <__wrap___aeabi_dsub>
10004b24:	0002      	movs	r2, r0
10004b26:	000b      	movs	r3, r1
10004b28:	0020      	movs	r0, r4
10004b2a:	0029      	movs	r1, r5
10004b2c:	f001 fb6e 	bl	1000620c <__wrap___aeabi_dadd>
10004b30:	0002      	movs	r2, r0
10004b32:	000b      	movs	r3, r1
10004b34:	980e      	ldr	r0, [sp, #56]	@ 0x38
10004b36:	990f      	ldr	r1, [sp, #60]	@ 0x3c
10004b38:	f001 fb71 	bl	1000621e <__wrap___aeabi_ddiv>
10004b3c:	2200      	movs	r2, #0
10004b3e:	4b28      	ldr	r3, [pc, #160]	@ (10004be0 <_etoa+0x3b4>)
10004b40:	f001 fb64 	bl	1000620c <__wrap___aeabi_dadd>
10004b44:	4b34      	ldr	r3, [pc, #208]	@ (10004c18 <_etoa+0x3ec>)
10004b46:	9c0c      	ldr	r4, [sp, #48]	@ 0x30
10004b48:	469c      	mov	ip, r3
10004b4a:	4464      	add	r4, ip
10004b4c:	0523      	lsls	r3, r4, #20
10004b4e:	2200      	movs	r2, #0
10004b50:	f001 fb83 	bl	1000625a <__wrap___aeabi_dmul>
10004b54:	0004      	movs	r4, r0
10004b56:	000d      	movs	r5, r1
10004b58:	0002      	movs	r2, r0
10004b5a:	000b      	movs	r3, r1
10004b5c:	0030      	movs	r0, r6
10004b5e:	0039      	movs	r1, r7
10004b60:	940a      	str	r4, [sp, #40]	@ 0x28
10004b62:	950b      	str	r5, [sp, #44]	@ 0x2c
10004b64:	f001 fbc4 	bl	100062f0 <__wrap___aeabi_dcmplt>
10004b68:	2800      	cmp	r0, #0
10004b6a:	d15d      	bne.n	10004c28 <_etoa+0x3fc>
10004b6c:	0023      	movs	r3, r4
10004b6e:	002a      	movs	r2, r5
10004b70:	25c6      	movs	r5, #198	@ 0xc6
10004b72:	9909      	ldr	r1, [sp, #36]	@ 0x24
10004b74:	3163      	adds	r1, #99	@ 0x63
10004b76:	428d      	cmp	r5, r1
10004b78:	41ad      	sbcs	r5, r5
10004b7a:	4659      	mov	r1, fp
10004b7c:	426d      	negs	r5, r5
10004b7e:	3504      	adds	r5, #4
10004b80:	2900      	cmp	r1, #0
10004b82:	d100      	bne.n	10004b86 <_etoa+0x35a>
10004b84:	e6a3      	b.n	100048ce <_etoa+0xa2>
10004b86:	4313      	orrs	r3, r2
10004b88:	d063      	beq.n	10004c52 <_etoa+0x426>
10004b8a:	0030      	movs	r0, r6
10004b8c:	0039      	movs	r1, r7
10004b8e:	4a23      	ldr	r2, [pc, #140]	@ (10004c1c <_etoa+0x3f0>)
10004b90:	4b23      	ldr	r3, [pc, #140]	@ (10004c20 <_etoa+0x3f4>)
10004b92:	f001 fbbb 	bl	1000630c <__wrap___aeabi_dcmpge>
10004b96:	2800      	cmp	r0, #0
10004b98:	d007      	beq.n	10004baa <_etoa+0x37e>
10004b9a:	2200      	movs	r2, #0
10004b9c:	0030      	movs	r0, r6
10004b9e:	0039      	movs	r1, r7
10004ba0:	4b20      	ldr	r3, [pc, #128]	@ (10004c24 <_etoa+0x3f8>)
10004ba2:	f001 fba5 	bl	100062f0 <__wrap___aeabi_dcmplt>
10004ba6:	2800      	cmp	r0, #0
10004ba8:	d153      	bne.n	10004c52 <_etoa+0x426>
10004baa:	9b24      	ldr	r3, [sp, #144]	@ 0x90
10004bac:	2b00      	cmp	r3, #0
10004bae:	d100      	bne.n	10004bb2 <_etoa+0x386>
10004bb0:	e68d      	b.n	100048ce <_etoa+0xa2>
10004bb2:	9b0d      	ldr	r3, [sp, #52]	@ 0x34
10004bb4:	1e5a      	subs	r2, r3, #1
10004bb6:	4193      	sbcs	r3, r2
10004bb8:	9a24      	ldr	r2, [sp, #144]	@ 0x90
10004bba:	1ad3      	subs	r3, r2, r3
10004bbc:	9324      	str	r3, [sp, #144]	@ 0x90
10004bbe:	e686      	b.n	100048ce <_etoa+0xa2>
10004bc0:	7fefffff 	.word	0x7fefffff
10004bc4:	ffefffff 	.word	0xffefffff
10004bc8:	fffff7ff 	.word	0xfffff7ff
10004bcc:	fffffc01 	.word	0xfffffc01
10004bd0:	509f79fb 	.word	0x509f79fb
10004bd4:	3fd34413 	.word	0x3fd34413
10004bd8:	8b60c8b3 	.word	0x8b60c8b3
10004bdc:	3fc68a28 	.word	0x3fc68a28
10004be0:	3ff00000 	.word	0x3ff00000
10004be4:	3ff80000 	.word	0x3ff80000
10004be8:	636f4361 	.word	0x636f4361
10004bec:	3fd287a7 	.word	0x3fd287a7
10004bf0:	0979a371 	.word	0x0979a371
10004bf4:	400a934f 	.word	0x400a934f
10004bf8:	3fe00000 	.word	0x3fe00000
10004bfc:	bbb55516 	.word	0xbbb55516
10004c00:	40026bb1 	.word	0x40026bb1
10004c04:	fefa39ef 	.word	0xfefa39ef
10004c08:	3fe62e42 	.word	0x3fe62e42
10004c0c:	402c0000 	.word	0x402c0000
10004c10:	40240000 	.word	0x40240000
10004c14:	40180000 	.word	0x40180000
10004c18:	000003ff 	.word	0x000003ff
10004c1c:	eb1c432d 	.word	0xeb1c432d
10004c20:	3f1a36e2 	.word	0x3f1a36e2
10004c24:	412e8480 	.word	0x412e8480
10004c28:	9b09      	ldr	r3, [sp, #36]	@ 0x24
10004c2a:	2200      	movs	r2, #0
10004c2c:	3b01      	subs	r3, #1
10004c2e:	9309      	str	r3, [sp, #36]	@ 0x24
10004c30:	0020      	movs	r0, r4
10004c32:	4b16      	ldr	r3, [pc, #88]	@ (10004c8c <_etoa+0x460>)
10004c34:	0029      	movs	r1, r5
10004c36:	f001 faf2 	bl	1000621e <__wrap___aeabi_ddiv>
10004c3a:	000a      	movs	r2, r1
10004c3c:	0001      	movs	r1, r0
10004c3e:	0003      	movs	r3, r0
10004c40:	910a      	str	r1, [sp, #40]	@ 0x28
10004c42:	920b      	str	r2, [sp, #44]	@ 0x2c
10004c44:	e794      	b.n	10004b70 <_etoa+0x344>
10004c46:	2300      	movs	r3, #0
10004c48:	2400      	movs	r4, #0
10004c4a:	930a      	str	r3, [sp, #40]	@ 0x28
10004c4c:	940b      	str	r4, [sp, #44]	@ 0x2c
10004c4e:	2300      	movs	r3, #0
10004c50:	9309      	str	r3, [sp, #36]	@ 0x24
10004c52:	9a24      	ldr	r2, [sp, #144]	@ 0x90
10004c54:	9b09      	ldr	r3, [sp, #36]	@ 0x24
10004c56:	429a      	cmp	r2, r3
10004c58:	dd14      	ble.n	10004c84 <_etoa+0x458>
10004c5a:	1ad3      	subs	r3, r2, r3
10004c5c:	3b01      	subs	r3, #1
10004c5e:	9324      	str	r3, [sp, #144]	@ 0x90
10004c60:	2380      	movs	r3, #128	@ 0x80
10004c62:	9a26      	ldr	r2, [sp, #152]	@ 0x98
10004c64:	00db      	lsls	r3, r3, #3
10004c66:	431a      	orrs	r2, r3
10004c68:	2300      	movs	r3, #0
10004c6a:	2500      	movs	r5, #0
10004c6c:	9226      	str	r2, [sp, #152]	@ 0x98
10004c6e:	9309      	str	r3, [sp, #36]	@ 0x24
10004c70:	e62d      	b.n	100048ce <_etoa+0xa2>
10004c72:	2280      	movs	r2, #128	@ 0x80
10004c74:	0612      	lsls	r2, r2, #24
10004c76:	4694      	mov	ip, r2
10004c78:	9b22      	ldr	r3, [sp, #136]	@ 0x88
10004c7a:	001e      	movs	r6, r3
10004c7c:	9b23      	ldr	r3, [sp, #140]	@ 0x8c
10004c7e:	4463      	add	r3, ip
10004c80:	001f      	movs	r7, r3
10004c82:	e606      	b.n	10004892 <_etoa+0x66>
10004c84:	2300      	movs	r3, #0
10004c86:	9324      	str	r3, [sp, #144]	@ 0x90
10004c88:	e7ea      	b.n	10004c60 <_etoa+0x434>
10004c8a:	46c0      	nop			@ (mov r8, r8)
10004c8c:	40240000 	.word	0x40240000

10004c90 <_ftoa>:
10004c90:	b5f0      	push	{r4, r5, r6, r7, lr}
10004c92:	4645      	mov	r5, r8
10004c94:	46de      	mov	lr, fp
10004c96:	464e      	mov	r6, r9
10004c98:	4657      	mov	r7, sl
10004c9a:	b5e0      	push	{r5, r6, r7, lr}
10004c9c:	b095      	sub	sp, #84	@ 0x54
10004c9e:	468b      	mov	fp, r1
10004ca0:	4690      	mov	r8, r2
10004ca2:	4699      	mov	r9, r3
10004ca4:	9a1e      	ldr	r2, [sp, #120]	@ 0x78
10004ca6:	9b1f      	ldr	r3, [sp, #124]	@ 0x7c
10004ca8:	900a      	str	r0, [sp, #40]	@ 0x28
10004caa:	0019      	movs	r1, r3
10004cac:	0010      	movs	r0, r2
10004cae:	9d20      	ldr	r5, [sp, #128]	@ 0x80
10004cb0:	f001 fb39 	bl	10006326 <__wrap___aeabi_dcmpun>
10004cb4:	2800      	cmp	r0, #0
10004cb6:	d000      	beq.n	10004cba <_ftoa+0x2a>
10004cb8:	e1b0      	b.n	1000501c <_ftoa+0x38c>
10004cba:	981e      	ldr	r0, [sp, #120]	@ 0x78
10004cbc:	991f      	ldr	r1, [sp, #124]	@ 0x7c
10004cbe:	2201      	movs	r2, #1
10004cc0:	4bc7      	ldr	r3, [pc, #796]	@ (10004fe0 <_ftoa+0x350>)
10004cc2:	4252      	negs	r2, r2
10004cc4:	f001 fb14 	bl	100062f0 <__wrap___aeabi_dcmplt>
10004cc8:	2800      	cmp	r0, #0
10004cca:	d000      	beq.n	10004cce <_ftoa+0x3e>
10004ccc:	e137      	b.n	10004f3e <_ftoa+0x2ae>
10004cce:	981e      	ldr	r0, [sp, #120]	@ 0x78
10004cd0:	991f      	ldr	r1, [sp, #124]	@ 0x7c
10004cd2:	2201      	movs	r2, #1
10004cd4:	4bc3      	ldr	r3, [pc, #780]	@ (10004fe4 <_ftoa+0x354>)
10004cd6:	4252      	negs	r2, r2
10004cd8:	f001 fb20 	bl	1000631c <__wrap___aeabi_dcmpgt>
10004cdc:	2800      	cmp	r0, #0
10004cde:	d000      	beq.n	10004ce2 <_ftoa+0x52>
10004ce0:	e0a7      	b.n	10004e32 <_ftoa+0x1a2>
10004ce2:	981e      	ldr	r0, [sp, #120]	@ 0x78
10004ce4:	991f      	ldr	r1, [sp, #124]	@ 0x7c
10004ce6:	2200      	movs	r2, #0
10004ce8:	4bbf      	ldr	r3, [pc, #764]	@ (10004fe8 <_ftoa+0x358>)
10004cea:	f001 fb17 	bl	1000631c <__wrap___aeabi_dcmpgt>
10004cee:	2800      	cmp	r0, #0
10004cf0:	d000      	beq.n	10004cf4 <_ftoa+0x64>
10004cf2:	e088      	b.n	10004e06 <_ftoa+0x176>
10004cf4:	981e      	ldr	r0, [sp, #120]	@ 0x78
10004cf6:	991f      	ldr	r1, [sp, #124]	@ 0x7c
10004cf8:	2200      	movs	r2, #0
10004cfa:	4bbc      	ldr	r3, [pc, #752]	@ (10004fec <_ftoa+0x35c>)
10004cfc:	f001 faf8 	bl	100062f0 <__wrap___aeabi_dcmplt>
10004d00:	2800      	cmp	r0, #0
10004d02:	d000      	beq.n	10004d06 <_ftoa+0x76>
10004d04:	e07f      	b.n	10004e06 <_ftoa+0x176>
10004d06:	981e      	ldr	r0, [sp, #120]	@ 0x78
10004d08:	991f      	ldr	r1, [sp, #124]	@ 0x7c
10004d0a:	2200      	movs	r2, #0
10004d0c:	2300      	movs	r3, #0
10004d0e:	f001 faef 	bl	100062f0 <__wrap___aeabi_dcmplt>
10004d12:	2800      	cmp	r0, #0
10004d14:	d000      	beq.n	10004d18 <_ftoa+0x88>
10004d16:	e0fa      	b.n	10004f0e <_ftoa+0x27e>
10004d18:	2300      	movs	r3, #0
10004d1a:	930b      	str	r3, [sp, #44]	@ 0x2c
10004d1c:	2380      	movs	r3, #128	@ 0x80
10004d1e:	9c22      	ldr	r4, [sp, #136]	@ 0x88
10004d20:	9a22      	ldr	r2, [sp, #136]	@ 0x88
10004d22:	00db      	lsls	r3, r3, #3
10004d24:	401c      	ands	r4, r3
10004d26:	421a      	tst	r2, r3
10004d28:	d100      	bne.n	10004d2c <_ftoa+0x9c>
10004d2a:	e102      	b.n	10004f32 <_ftoa+0x2a2>
10004d2c:	2d09      	cmp	r5, #9
10004d2e:	d800      	bhi.n	10004d32 <_ftoa+0xa2>
10004d30:	e17c      	b.n	1000502c <_ftoa+0x39c>
10004d32:	a906      	add	r1, sp, #24
10004d34:	468c      	mov	ip, r1
10004d36:	002c      	movs	r4, r5
10004d38:	2217      	movs	r2, #23
10004d3a:	2300      	movs	r3, #0
10004d3c:	2130      	movs	r1, #48	@ 0x30
10004d3e:	3c09      	subs	r4, #9
10004d40:	4462      	add	r2, ip
10004d42:	3301      	adds	r3, #1
10004d44:	54d1      	strb	r1, [r2, r3]
10004d46:	1aef      	subs	r7, r5, r3
10004d48:	2b20      	cmp	r3, #32
10004d4a:	d100      	bne.n	10004d4e <_ftoa+0xbe>
10004d4c:	e132      	b.n	10004fb4 <_ftoa+0x324>
10004d4e:	42a3      	cmp	r3, r4
10004d50:	d1f7      	bne.n	10004d42 <_ftoa+0xb2>
10004d52:	2200      	movs	r2, #0
10004d54:	4ba4      	ldr	r3, [pc, #656]	@ (10004fe8 <_ftoa+0x358>)
10004d56:	9206      	str	r2, [sp, #24]
10004d58:	9307      	str	r3, [sp, #28]
10004d5a:	981e      	ldr	r0, [sp, #120]	@ 0x78
10004d5c:	991f      	ldr	r1, [sp, #124]	@ 0x7c
10004d5e:	f001 fb0d 	bl	1000637c <__wrap___aeabi_d2iz>
10004d62:	0005      	movs	r5, r0
10004d64:	f001 faf2 	bl	1000634c <__wrap___aeabi_i2d>
10004d68:	0002      	movs	r2, r0
10004d6a:	000b      	movs	r3, r1
10004d6c:	981e      	ldr	r0, [sp, #120]	@ 0x78
10004d6e:	991f      	ldr	r1, [sp, #124]	@ 0x7c
10004d70:	f001 fa43 	bl	100061fa <__wrap___aeabi_dsub>
10004d74:	9a06      	ldr	r2, [sp, #24]
10004d76:	9b07      	ldr	r3, [sp, #28]
10004d78:	f001 fa6f 	bl	1000625a <__wrap___aeabi_dmul>
10004d7c:	9008      	str	r0, [sp, #32]
10004d7e:	9109      	str	r1, [sp, #36]	@ 0x24
10004d80:	f001 fb20 	bl	100063c4 <__wrap___aeabi_d2uiz>
10004d84:	0006      	movs	r6, r0
10004d86:	f001 fadd 	bl	10006344 <__wrap___aeabi_ui2d>
10004d8a:	0002      	movs	r2, r0
10004d8c:	000b      	movs	r3, r1
10004d8e:	9808      	ldr	r0, [sp, #32]
10004d90:	9909      	ldr	r1, [sp, #36]	@ 0x24
10004d92:	f001 fa32 	bl	100061fa <__wrap___aeabi_dsub>
10004d96:	2200      	movs	r2, #0
10004d98:	4b95      	ldr	r3, [pc, #596]	@ (10004ff0 <_ftoa+0x360>)
10004d9a:	9008      	str	r0, [sp, #32]
10004d9c:	9109      	str	r1, [sp, #36]	@ 0x24
10004d9e:	f001 fabd 	bl	1000631c <__wrap___aeabi_dcmpgt>
10004da2:	2800      	cmp	r0, #0
10004da4:	d100      	bne.n	10004da8 <_ftoa+0x118>
10004da6:	e0d2      	b.n	10004f4e <_ftoa+0x2be>
10004da8:	3601      	adds	r6, #1
10004daa:	0030      	movs	r0, r6
10004dac:	f001 faca 	bl	10006344 <__wrap___aeabi_ui2d>
10004db0:	9a06      	ldr	r2, [sp, #24]
10004db2:	9b07      	ldr	r3, [sp, #28]
10004db4:	f001 faaa 	bl	1000630c <__wrap___aeabi_dcmpge>
10004db8:	2800      	cmp	r0, #0
10004dba:	d001      	beq.n	10004dc0 <_ftoa+0x130>
10004dbc:	2600      	movs	r6, #0
10004dbe:	3501      	adds	r5, #1
10004dc0:	46aa      	mov	sl, r5
10004dc2:	2f00      	cmp	r7, #0
10004dc4:	d000      	beq.n	10004dc8 <_ftoa+0x138>
10004dc6:	e098      	b.n	10004efa <_ftoa+0x26a>
10004dc8:	0028      	movs	r0, r5
10004dca:	f001 fabf 	bl	1000634c <__wrap___aeabi_i2d>
10004dce:	0002      	movs	r2, r0
10004dd0:	000b      	movs	r3, r1
10004dd2:	981e      	ldr	r0, [sp, #120]	@ 0x78
10004dd4:	991f      	ldr	r1, [sp, #124]	@ 0x7c
10004dd6:	f001 fa10 	bl	100061fa <__wrap___aeabi_dsub>
10004dda:	4b85      	ldr	r3, [pc, #532]	@ (10004ff0 <_ftoa+0x360>)
10004ddc:	2200      	movs	r2, #0
10004dde:	0006      	movs	r6, r0
10004de0:	000f      	movs	r7, r1
10004de2:	f001 fa85 	bl	100062f0 <__wrap___aeabi_dcmplt>
10004de6:	ab0c      	add	r3, sp, #48	@ 0x30
10004de8:	469a      	mov	sl, r3
10004dea:	2800      	cmp	r0, #0
10004dec:	d145      	bne.n	10004e7a <_ftoa+0x1ea>
10004dee:	2200      	movs	r2, #0
10004df0:	0030      	movs	r0, r6
10004df2:	0039      	movs	r1, r7
10004df4:	4b7e      	ldr	r3, [pc, #504]	@ (10004ff0 <_ftoa+0x360>)
10004df6:	f001 fa91 	bl	1000631c <__wrap___aeabi_dcmpgt>
10004dfa:	2800      	cmp	r0, #0
10004dfc:	d13d      	bne.n	10004e7a <_ftoa+0x1ea>
10004dfe:	07eb      	lsls	r3, r5, #31
10004e00:	d53b      	bpl.n	10004e7a <_ftoa+0x1ea>
10004e02:	3501      	adds	r5, #1
10004e04:	e039      	b.n	10004e7a <_ftoa+0x1ea>
10004e06:	9b22      	ldr	r3, [sp, #136]	@ 0x88
10004e08:	4642      	mov	r2, r8
10004e0a:	9304      	str	r3, [sp, #16]
10004e0c:	9b21      	ldr	r3, [sp, #132]	@ 0x84
10004e0e:	4659      	mov	r1, fp
10004e10:	9303      	str	r3, [sp, #12]
10004e12:	980a      	ldr	r0, [sp, #40]	@ 0x28
10004e14:	9b1e      	ldr	r3, [sp, #120]	@ 0x78
10004e16:	9c1f      	ldr	r4, [sp, #124]	@ 0x7c
10004e18:	9502      	str	r5, [sp, #8]
10004e1a:	9300      	str	r3, [sp, #0]
10004e1c:	9401      	str	r4, [sp, #4]
10004e1e:	464b      	mov	r3, r9
10004e20:	f7ff fd04 	bl	1000482c <_etoa>
10004e24:	b015      	add	sp, #84	@ 0x54
10004e26:	bcf0      	pop	{r4, r5, r6, r7}
10004e28:	46bb      	mov	fp, r7
10004e2a:	46b2      	mov	sl, r6
10004e2c:	46a9      	mov	r9, r5
10004e2e:	46a0      	mov	r8, r4
10004e30:	bdf0      	pop	{r4, r5, r6, r7, pc}
10004e32:	9b22      	ldr	r3, [sp, #136]	@ 0x88
10004e34:	075b      	lsls	r3, r3, #29
10004e36:	d467      	bmi.n	10004f08 <_ftoa+0x278>
10004e38:	2203      	movs	r2, #3
10004e3a:	4b6e      	ldr	r3, [pc, #440]	@ (10004ff4 <_ftoa+0x364>)
10004e3c:	9922      	ldr	r1, [sp, #136]	@ 0x88
10004e3e:	9201      	str	r2, [sp, #4]
10004e40:	9103      	str	r1, [sp, #12]
10004e42:	9921      	ldr	r1, [sp, #132]	@ 0x84
10004e44:	9102      	str	r1, [sp, #8]
10004e46:	9300      	str	r3, [sp, #0]
10004e48:	4642      	mov	r2, r8
10004e4a:	464b      	mov	r3, r9
10004e4c:	4659      	mov	r1, fp
10004e4e:	980a      	ldr	r0, [sp, #40]	@ 0x28
10004e50:	f7ff fb66 	bl	10004520 <_out_rev>
10004e54:	e7e6      	b.n	10004e24 <_ftoa+0x194>
10004e56:	aa06      	add	r2, sp, #24
10004e58:	4694      	mov	ip, r2
10004e5a:	2317      	movs	r3, #23
10004e5c:	0028      	movs	r0, r5
10004e5e:	4463      	add	r3, ip
10004e60:	210a      	movs	r1, #10
10004e62:	3401      	adds	r4, #1
10004e64:	191e      	adds	r6, r3, r4
10004e66:	f000 ff65 	bl	10005d34 <__wrap___aeabi_idiv>
10004e6a:	3130      	adds	r1, #48	@ 0x30
10004e6c:	0028      	movs	r0, r5
10004e6e:	7031      	strb	r1, [r6, #0]
10004e70:	210a      	movs	r1, #10
10004e72:	f000 ff5f 	bl	10005d34 <__wrap___aeabi_idiv>
10004e76:	1e05      	subs	r5, r0, #0
10004e78:	d076      	beq.n	10004f68 <_ftoa+0x2d8>
10004e7a:	2c20      	cmp	r4, #32
10004e7c:	d1eb      	bne.n	10004e56 <_ftoa+0x1c6>
10004e7e:	2303      	movs	r3, #3
10004e80:	9a22      	ldr	r2, [sp, #136]	@ 0x88
10004e82:	4013      	ands	r3, r2
10004e84:	2b01      	cmp	r3, #1
10004e86:	d11d      	bne.n	10004ec4 <_ftoa+0x234>
10004e88:	9b21      	ldr	r3, [sp, #132]	@ 0x84
10004e8a:	2b00      	cmp	r3, #0
10004e8c:	d01a      	beq.n	10004ec4 <_ftoa+0x234>
10004e8e:	9b0b      	ldr	r3, [sp, #44]	@ 0x2c
10004e90:	2b00      	cmp	r3, #0
10004e92:	d000      	beq.n	10004e96 <_ftoa+0x206>
10004e94:	e0bb      	b.n	1000500e <_ftoa+0x37e>
10004e96:	9a22      	ldr	r2, [sp, #136]	@ 0x88
10004e98:	330c      	adds	r3, #12
10004e9a:	4213      	tst	r3, r2
10004e9c:	d000      	beq.n	10004ea0 <_ftoa+0x210>
10004e9e:	e0b6      	b.n	1000500e <_ftoa+0x37e>
10004ea0:	9b21      	ldr	r3, [sp, #132]	@ 0x84
10004ea2:	42a3      	cmp	r3, r4
10004ea4:	d800      	bhi.n	10004ea8 <_ftoa+0x218>
10004ea6:	e087      	b.n	10004fb8 <_ftoa+0x328>
10004ea8:	ab06      	add	r3, sp, #24
10004eaa:	469c      	mov	ip, r3
10004eac:	2217      	movs	r2, #23
10004eae:	2330      	movs	r3, #48	@ 0x30
10004eb0:	4462      	add	r2, ip
10004eb2:	e004      	b.n	10004ebe <_ftoa+0x22e>
10004eb4:	9921      	ldr	r1, [sp, #132]	@ 0x84
10004eb6:	3401      	adds	r4, #1
10004eb8:	5513      	strb	r3, [r2, r4]
10004eba:	428c      	cmp	r4, r1
10004ebc:	d059      	beq.n	10004f72 <_ftoa+0x2e2>
10004ebe:	2c20      	cmp	r4, #32
10004ec0:	d1f8      	bne.n	10004eb4 <_ftoa+0x224>
10004ec2:	2420      	movs	r4, #32
10004ec4:	9b22      	ldr	r3, [sp, #136]	@ 0x88
10004ec6:	9401      	str	r4, [sp, #4]
10004ec8:	9303      	str	r3, [sp, #12]
10004eca:	9b21      	ldr	r3, [sp, #132]	@ 0x84
10004ecc:	9302      	str	r3, [sp, #8]
10004ece:	4653      	mov	r3, sl
10004ed0:	e7b9      	b.n	10004e46 <_ftoa+0x1b6>
10004ed2:	aa06      	add	r2, sp, #24
10004ed4:	4694      	mov	ip, r2
10004ed6:	2317      	movs	r3, #23
10004ed8:	210a      	movs	r1, #10
10004eda:	4463      	add	r3, ip
10004edc:	0030      	movs	r0, r6
10004ede:	3401      	adds	r4, #1
10004ee0:	191d      	adds	r5, r3, r4
10004ee2:	f000 ff4f 	bl	10005d84 <__wrap___aeabi_uidiv>
10004ee6:	3130      	adds	r1, #48	@ 0x30
10004ee8:	7029      	strb	r1, [r5, #0]
10004eea:	0030      	movs	r0, r6
10004eec:	210a      	movs	r1, #10
10004eee:	3f01      	subs	r7, #1
10004ef0:	f000 ff48 	bl	10005d84 <__wrap___aeabi_uidiv>
10004ef4:	2e09      	cmp	r6, #9
10004ef6:	d946      	bls.n	10004f86 <_ftoa+0x2f6>
10004ef8:	0006      	movs	r6, r0
10004efa:	2c20      	cmp	r4, #32
10004efc:	d1e9      	bne.n	10004ed2 <_ftoa+0x242>
10004efe:	4655      	mov	r5, sl
10004f00:	ab0c      	add	r3, sp, #48	@ 0x30
10004f02:	2420      	movs	r4, #32
10004f04:	469a      	mov	sl, r3
10004f06:	e7b8      	b.n	10004e7a <_ftoa+0x1ea>
10004f08:	2204      	movs	r2, #4
10004f0a:	4b3b      	ldr	r3, [pc, #236]	@ (10004ff8 <_ftoa+0x368>)
10004f0c:	e796      	b.n	10004e3c <_ftoa+0x1ac>
10004f0e:	9a1e      	ldr	r2, [sp, #120]	@ 0x78
10004f10:	9b1f      	ldr	r3, [sp, #124]	@ 0x7c
10004f12:	2000      	movs	r0, #0
10004f14:	2100      	movs	r1, #0
10004f16:	f001 f970 	bl	100061fa <__wrap___aeabi_dsub>
10004f1a:	2301      	movs	r3, #1
10004f1c:	930b      	str	r3, [sp, #44]	@ 0x2c
10004f1e:	2380      	movs	r3, #128	@ 0x80
10004f20:	9c22      	ldr	r4, [sp, #136]	@ 0x88
10004f22:	9a22      	ldr	r2, [sp, #136]	@ 0x88
10004f24:	00db      	lsls	r3, r3, #3
10004f26:	901e      	str	r0, [sp, #120]	@ 0x78
10004f28:	911f      	str	r1, [sp, #124]	@ 0x7c
10004f2a:	401c      	ands	r4, r3
10004f2c:	421a      	tst	r2, r3
10004f2e:	d000      	beq.n	10004f32 <_ftoa+0x2a2>
10004f30:	e6fc      	b.n	10004d2c <_ftoa+0x9c>
10004f32:	2200      	movs	r2, #0
10004f34:	4b31      	ldr	r3, [pc, #196]	@ (10004ffc <_ftoa+0x36c>)
10004f36:	2706      	movs	r7, #6
10004f38:	9206      	str	r2, [sp, #24]
10004f3a:	9307      	str	r3, [sp, #28]
10004f3c:	e70d      	b.n	10004d5a <_ftoa+0xca>
10004f3e:	9b22      	ldr	r3, [sp, #136]	@ 0x88
10004f40:	9303      	str	r3, [sp, #12]
10004f42:	9b21      	ldr	r3, [sp, #132]	@ 0x84
10004f44:	9302      	str	r3, [sp, #8]
10004f46:	2304      	movs	r3, #4
10004f48:	9301      	str	r3, [sp, #4]
10004f4a:	4b2d      	ldr	r3, [pc, #180]	@ (10005000 <_ftoa+0x370>)
10004f4c:	e77b      	b.n	10004e46 <_ftoa+0x1b6>
10004f4e:	2200      	movs	r2, #0
10004f50:	9808      	ldr	r0, [sp, #32]
10004f52:	9909      	ldr	r1, [sp, #36]	@ 0x24
10004f54:	4b26      	ldr	r3, [pc, #152]	@ (10004ff0 <_ftoa+0x360>)
10004f56:	f001 f9cb 	bl	100062f0 <__wrap___aeabi_dcmplt>
10004f5a:	2800      	cmp	r0, #0
10004f5c:	d000      	beq.n	10004f60 <_ftoa+0x2d0>
10004f5e:	e72f      	b.n	10004dc0 <_ftoa+0x130>
10004f60:	2e00      	cmp	r6, #0
10004f62:	d14f      	bne.n	10005004 <_ftoa+0x374>
10004f64:	3601      	adds	r6, #1
10004f66:	e72b      	b.n	10004dc0 <_ftoa+0x130>
10004f68:	2303      	movs	r3, #3
10004f6a:	9a22      	ldr	r2, [sp, #136]	@ 0x88
10004f6c:	4013      	ands	r3, r2
10004f6e:	2b01      	cmp	r3, #1
10004f70:	d066      	beq.n	10005040 <_ftoa+0x3b0>
10004f72:	2c20      	cmp	r4, #32
10004f74:	d0a6      	beq.n	10004ec4 <_ftoa+0x234>
10004f76:	9b0b      	ldr	r3, [sp, #44]	@ 0x2c
10004f78:	2b00      	cmp	r3, #0
10004f7a:	d01f      	beq.n	10004fbc <_ftoa+0x32c>
10004f7c:	232d      	movs	r3, #45	@ 0x2d
10004f7e:	4652      	mov	r2, sl
10004f80:	5513      	strb	r3, [r2, r4]
10004f82:	3401      	adds	r4, #1
10004f84:	e79e      	b.n	10004ec4 <_ftoa+0x234>
10004f86:	4655      	mov	r5, sl
10004f88:	2c20      	cmp	r4, #32
10004f8a:	d0b9      	beq.n	10004f00 <_ftoa+0x270>
10004f8c:	2330      	movs	r3, #48	@ 0x30
10004f8e:	193a      	adds	r2, r7, r4
10004f90:	2f00      	cmp	r7, #0
10004f92:	d008      	beq.n	10004fa6 <_ftoa+0x316>
10004f94:	2017      	movs	r0, #23
10004f96:	a906      	add	r1, sp, #24
10004f98:	3401      	adds	r4, #1
10004f9a:	1809      	adds	r1, r1, r0
10004f9c:	550b      	strb	r3, [r1, r4]
10004f9e:	2c20      	cmp	r4, #32
10004fa0:	d0ae      	beq.n	10004f00 <_ftoa+0x270>
10004fa2:	4294      	cmp	r4, r2
10004fa4:	d1f6      	bne.n	10004f94 <_ftoa+0x304>
10004fa6:	ab0c      	add	r3, sp, #48	@ 0x30
10004fa8:	469a      	mov	sl, r3
10004faa:	232e      	movs	r3, #46	@ 0x2e
10004fac:	4652      	mov	r2, sl
10004fae:	5513      	strb	r3, [r2, r4]
10004fb0:	3401      	adds	r4, #1
10004fb2:	e762      	b.n	10004e7a <_ftoa+0x1ea>
10004fb4:	2420      	movs	r4, #32
10004fb6:	e6cc      	b.n	10004d52 <_ftoa+0xc2>
10004fb8:	2c20      	cmp	r4, #32
10004fba:	d083      	beq.n	10004ec4 <_ftoa+0x234>
10004fbc:	9b22      	ldr	r3, [sp, #136]	@ 0x88
10004fbe:	075b      	lsls	r3, r3, #29
10004fc0:	d408      	bmi.n	10004fd4 <_ftoa+0x344>
10004fc2:	9b22      	ldr	r3, [sp, #136]	@ 0x88
10004fc4:	071b      	lsls	r3, r3, #28
10004fc6:	d400      	bmi.n	10004fca <_ftoa+0x33a>
10004fc8:	e77c      	b.n	10004ec4 <_ftoa+0x234>
10004fca:	2320      	movs	r3, #32
10004fcc:	4652      	mov	r2, sl
10004fce:	5513      	strb	r3, [r2, r4]
10004fd0:	3401      	adds	r4, #1
10004fd2:	e777      	b.n	10004ec4 <_ftoa+0x234>
10004fd4:	232b      	movs	r3, #43	@ 0x2b
10004fd6:	4652      	mov	r2, sl
10004fd8:	5513      	strb	r3, [r2, r4]
10004fda:	3401      	adds	r4, #1
10004fdc:	e772      	b.n	10004ec4 <_ftoa+0x234>
10004fde:	46c0      	nop			@ (mov r8, r8)
10004fe0:	ffefffff 	.word	0xffefffff
10004fe4:	7fefffff 	.word	0x7fefffff
10004fe8:	41cdcd65 	.word	0x41cdcd65
10004fec:	c1cdcd65 	.word	0xc1cdcd65
10004ff0:	3fe00000 	.word	0x3fe00000
10004ff4:	10019a84 	.word	0x10019a84
10004ff8:	10019a7c 	.word	0x10019a7c
10004ffc:	412e8480 	.word	0x412e8480
10005000:	10019a8c 	.word	0x10019a8c
10005004:	07f3      	lsls	r3, r6, #31
10005006:	d400      	bmi.n	1000500a <_ftoa+0x37a>
10005008:	e6da      	b.n	10004dc0 <_ftoa+0x130>
1000500a:	3601      	adds	r6, #1
1000500c:	e6d8      	b.n	10004dc0 <_ftoa+0x130>
1000500e:	9b21      	ldr	r3, [sp, #132]	@ 0x84
10005010:	3b01      	subs	r3, #1
10005012:	9321      	str	r3, [sp, #132]	@ 0x84
10005014:	42a3      	cmp	r3, r4
10005016:	d900      	bls.n	1000501a <_ftoa+0x38a>
10005018:	e746      	b.n	10004ea8 <_ftoa+0x218>
1000501a:	e7aa      	b.n	10004f72 <_ftoa+0x2e2>
1000501c:	9b22      	ldr	r3, [sp, #136]	@ 0x88
1000501e:	9303      	str	r3, [sp, #12]
10005020:	9b21      	ldr	r3, [sp, #132]	@ 0x84
10005022:	9302      	str	r3, [sp, #8]
10005024:	2303      	movs	r3, #3
10005026:	9301      	str	r3, [sp, #4]
10005028:	4b07      	ldr	r3, [pc, #28]	@ (10005048 <_ftoa+0x3b8>)
1000502a:	e70c      	b.n	10004e46 <_ftoa+0x1b6>
1000502c:	4b07      	ldr	r3, [pc, #28]	@ (1000504c <_ftoa+0x3bc>)
1000502e:	00ea      	lsls	r2, r5, #3
10005030:	189b      	adds	r3, r3, r2
10005032:	685c      	ldr	r4, [r3, #4]
10005034:	681b      	ldr	r3, [r3, #0]
10005036:	002f      	movs	r7, r5
10005038:	9306      	str	r3, [sp, #24]
1000503a:	9407      	str	r4, [sp, #28]
1000503c:	2400      	movs	r4, #0
1000503e:	e68c      	b.n	10004d5a <_ftoa+0xca>
10005040:	9b21      	ldr	r3, [sp, #132]	@ 0x84
10005042:	2b00      	cmp	r3, #0
10005044:	d095      	beq.n	10004f72 <_ftoa+0x2e2>
10005046:	e722      	b.n	10004e8e <_ftoa+0x1fe>
10005048:	10019a88 	.word	0x10019a88
1000504c:	1001a960 	.word	0x1001a960

10005050 <_vsnprintf>:
10005050:	b5f0      	push	{r4, r5, r6, r7, lr}
10005052:	4657      	mov	r7, sl
10005054:	46de      	mov	lr, fp
10005056:	464e      	mov	r6, r9
10005058:	4645      	mov	r5, r8
1000505a:	b5e0      	push	{r5, r6, r7, lr}
1000505c:	b0a5      	sub	sp, #148	@ 0x94
1000505e:	001f      	movs	r7, r3
10005060:	9b2e      	ldr	r3, [sp, #184]	@ 0xb8
10005062:	4691      	mov	r9, r2
10005064:	930d      	str	r3, [sp, #52]	@ 0x34
10005066:	4aca      	ldr	r2, [pc, #808]	@ (10005390 <_vsnprintf+0x340>)
10005068:	4bca      	ldr	r3, [pc, #808]	@ (10005394 <_vsnprintf+0x344>)
1000506a:	4682      	mov	sl, r0
1000506c:	468b      	mov	fp, r1
1000506e:	601a      	str	r2, [r3, #0]
10005070:	2900      	cmp	r1, #0
10005072:	d100      	bne.n	10005076 <_vsnprintf+0x26>
10005074:	e229      	b.n	100054ca <_vsnprintf+0x47a>
10005076:	2300      	movs	r3, #0
10005078:	7838      	ldrb	r0, [r7, #0]
1000507a:	4698      	mov	r8, r3
1000507c:	2800      	cmp	r0, #0
1000507e:	d100      	bne.n	10005082 <_vsnprintf+0x32>
10005080:	e22b      	b.n	100054da <_vsnprintf+0x48a>
10005082:	4bc5      	ldr	r3, [pc, #788]	@ (10005398 <_vsnprintf+0x348>)
10005084:	4644      	mov	r4, r8
10005086:	930c      	str	r3, [sp, #48]	@ 0x30
10005088:	4bc4      	ldr	r3, [pc, #784]	@ (1000539c <_vsnprintf+0x34c>)
1000508a:	4655      	mov	r5, sl
1000508c:	464e      	mov	r6, r9
1000508e:	930e      	str	r3, [sp, #56]	@ 0x38
10005090:	e00a      	b.n	100050a8 <_vsnprintf+0x58>
10005092:	1c63      	adds	r3, r4, #1
10005094:	4698      	mov	r8, r3
10005096:	0022      	movs	r2, r4
10005098:	0033      	movs	r3, r6
1000509a:	4659      	mov	r1, fp
1000509c:	47a8      	blx	r5
1000509e:	4644      	mov	r4, r8
100050a0:	7838      	ldrb	r0, [r7, #0]
100050a2:	2800      	cmp	r0, #0
100050a4:	d100      	bne.n	100050a8 <_vsnprintf+0x58>
100050a6:	e087      	b.n	100051b8 <_vsnprintf+0x168>
100050a8:	3701      	adds	r7, #1
100050aa:	2825      	cmp	r0, #37	@ 0x25
100050ac:	d1f1      	bne.n	10005092 <_vsnprintf+0x42>
100050ae:	2308      	movs	r3, #8
100050b0:	469a      	mov	sl, r3
100050b2:	3b04      	subs	r3, #4
100050b4:	4699      	mov	r9, r3
100050b6:	3b02      	subs	r3, #2
100050b8:	4698      	mov	r8, r3
100050ba:	3b01      	subs	r3, #1
100050bc:	2200      	movs	r2, #0
100050be:	469c      	mov	ip, r3
100050c0:	940b      	str	r4, [sp, #44]	@ 0x2c
100050c2:	7838      	ldrb	r0, [r7, #0]
100050c4:	1c79      	adds	r1, r7, #1
100050c6:	0003      	movs	r3, r0
100050c8:	3b20      	subs	r3, #32
100050ca:	b2db      	uxtb	r3, r3
100050cc:	2b10      	cmp	r3, #16
100050ce:	d803      	bhi.n	100050d8 <_vsnprintf+0x88>
100050d0:	9c0c      	ldr	r4, [sp, #48]	@ 0x30
100050d2:	009b      	lsls	r3, r3, #2
100050d4:	58e3      	ldr	r3, [r4, r3]
100050d6:	469f      	mov	pc, r3
100050d8:	0003      	movs	r3, r0
100050da:	3b30      	subs	r3, #48	@ 0x30
100050dc:	9c0b      	ldr	r4, [sp, #44]	@ 0x2c
100050de:	920b      	str	r2, [sp, #44]	@ 0x2c
100050e0:	2b09      	cmp	r3, #9
100050e2:	d93a      	bls.n	1000515a <_vsnprintf+0x10a>
100050e4:	2300      	movs	r3, #0
100050e6:	4698      	mov	r8, r3
100050e8:	282a      	cmp	r0, #42	@ 0x2a
100050ea:	d100      	bne.n	100050ee <_vsnprintf+0x9e>
100050ec:	e0dd      	b.n	100052aa <_vsnprintf+0x25a>
100050ee:	2300      	movs	r3, #0
100050f0:	469a      	mov	sl, r3
100050f2:	282e      	cmp	r0, #46	@ 0x2e
100050f4:	d04b      	beq.n	1000518e <_vsnprintf+0x13e>
100050f6:	0003      	movs	r3, r0
100050f8:	3b68      	subs	r3, #104	@ 0x68
100050fa:	b2db      	uxtb	r3, r3
100050fc:	2b12      	cmp	r3, #18
100050fe:	d81e      	bhi.n	1000513e <_vsnprintf+0xee>
10005100:	9a0e      	ldr	r2, [sp, #56]	@ 0x38
10005102:	009b      	lsls	r3, r3, #2
10005104:	58d3      	ldr	r3, [r2, r3]
10005106:	469f      	mov	pc, r3
10005108:	4663      	mov	r3, ip
1000510a:	000f      	movs	r7, r1
1000510c:	431a      	orrs	r2, r3
1000510e:	e7d8      	b.n	100050c2 <_vsnprintf+0x72>
10005110:	4643      	mov	r3, r8
10005112:	000f      	movs	r7, r1
10005114:	431a      	orrs	r2, r3
10005116:	e7d4      	b.n	100050c2 <_vsnprintf+0x72>
10005118:	464b      	mov	r3, r9
1000511a:	000f      	movs	r7, r1
1000511c:	431a      	orrs	r2, r3
1000511e:	e7d0      	b.n	100050c2 <_vsnprintf+0x72>
10005120:	2310      	movs	r3, #16
10005122:	000f      	movs	r7, r1
10005124:	431a      	orrs	r2, r3
10005126:	e7cc      	b.n	100050c2 <_vsnprintf+0x72>
10005128:	4653      	mov	r3, sl
1000512a:	000f      	movs	r7, r1
1000512c:	431a      	orrs	r2, r3
1000512e:	e7c8      	b.n	100050c2 <_vsnprintf+0x72>
10005130:	2380      	movs	r3, #128	@ 0x80
10005132:	005b      	lsls	r3, r3, #1
10005134:	9a0b      	ldr	r2, [sp, #44]	@ 0x2c
10005136:	7878      	ldrb	r0, [r7, #1]
10005138:	431a      	orrs	r2, r3
1000513a:	920b      	str	r2, [sp, #44]	@ 0x2c
1000513c:	3101      	adds	r1, #1
1000513e:	000f      	movs	r7, r1
10005140:	2867      	cmp	r0, #103	@ 0x67
10005142:	d84f      	bhi.n	100051e4 <_vsnprintf+0x194>
10005144:	2824      	cmp	r0, #36	@ 0x24
10005146:	d9a4      	bls.n	10005092 <_vsnprintf+0x42>
10005148:	0003      	movs	r3, r0
1000514a:	3b25      	subs	r3, #37	@ 0x25
1000514c:	b2db      	uxtb	r3, r3
1000514e:	2b42      	cmp	r3, #66	@ 0x42
10005150:	d89f      	bhi.n	10005092 <_vsnprintf+0x42>
10005152:	4993      	ldr	r1, [pc, #588]	@ (100053a0 <_vsnprintf+0x350>)
10005154:	009b      	lsls	r3, r3, #2
10005156:	58cb      	ldr	r3, [r1, r3]
10005158:	469f      	mov	pc, r3
1000515a:	2300      	movs	r3, #0
1000515c:	4698      	mov	r8, r3
1000515e:	9b0b      	ldr	r3, [sp, #44]	@ 0x2c
10005160:	4647      	mov	r7, r8
10005162:	469c      	mov	ip, r3
10005164:	e000      	b.n	10005168 <_vsnprintf+0x118>
10005166:	3101      	adds	r1, #1
10005168:	00bb      	lsls	r3, r7, #2
1000516a:	19db      	adds	r3, r3, r7
1000516c:	005b      	lsls	r3, r3, #1
1000516e:	181f      	adds	r7, r3, r0
10005170:	7808      	ldrb	r0, [r1, #0]
10005172:	3f30      	subs	r7, #48	@ 0x30
10005174:	0003      	movs	r3, r0
10005176:	3b30      	subs	r3, #48	@ 0x30
10005178:	2b09      	cmp	r3, #9
1000517a:	d9f4      	bls.n	10005166 <_vsnprintf+0x116>
1000517c:	4663      	mov	r3, ip
1000517e:	930b      	str	r3, [sp, #44]	@ 0x2c
10005180:	2300      	movs	r3, #0
10005182:	46b8      	mov	r8, r7
10005184:	469a      	mov	sl, r3
10005186:	000f      	movs	r7, r1
10005188:	3101      	adds	r1, #1
1000518a:	282e      	cmp	r0, #46	@ 0x2e
1000518c:	d1b3      	bne.n	100050f6 <_vsnprintf+0xa6>
1000518e:	2080      	movs	r0, #128	@ 0x80
10005190:	9a0b      	ldr	r2, [sp, #44]	@ 0x2c
10005192:	00c0      	lsls	r0, r0, #3
10005194:	4302      	orrs	r2, r0
10005196:	920b      	str	r2, [sp, #44]	@ 0x2c
10005198:	2230      	movs	r2, #48	@ 0x30
1000519a:	4252      	negs	r2, r2
1000519c:	4694      	mov	ip, r2
1000519e:	7878      	ldrb	r0, [r7, #1]
100051a0:	000b      	movs	r3, r1
100051a2:	4484      	add	ip, r0
100051a4:	4662      	mov	r2, ip
100051a6:	2a09      	cmp	r2, #9
100051a8:	d800      	bhi.n	100051ac <_vsnprintf+0x15c>
100051aa:	e1aa      	b.n	10005502 <_vsnprintf+0x4b2>
100051ac:	282a      	cmp	r0, #42	@ 0x2a
100051ae:	d100      	bne.n	100051b2 <_vsnprintf+0x162>
100051b0:	e1b9      	b.n	10005526 <_vsnprintf+0x4d6>
100051b2:	000f      	movs	r7, r1
100051b4:	3101      	adds	r1, #1
100051b6:	e79e      	b.n	100050f6 <_vsnprintf+0xa6>
100051b8:	46a0      	mov	r8, r4
100051ba:	46aa      	mov	sl, r5
100051bc:	46b1      	mov	r9, r6
100051be:	45c8      	cmp	r8, r9
100051c0:	d303      	bcc.n	100051ca <_vsnprintf+0x17a>
100051c2:	2301      	movs	r3, #1
100051c4:	425b      	negs	r3, r3
100051c6:	444b      	add	r3, r9
100051c8:	4698      	mov	r8, r3
100051ca:	464b      	mov	r3, r9
100051cc:	4642      	mov	r2, r8
100051ce:	4659      	mov	r1, fp
100051d0:	2000      	movs	r0, #0
100051d2:	47d0      	blx	sl
100051d4:	0020      	movs	r0, r4
100051d6:	b025      	add	sp, #148	@ 0x94
100051d8:	bcf0      	pop	{r4, r5, r6, r7}
100051da:	46bb      	mov	fp, r7
100051dc:	46b2      	mov	sl, r6
100051de:	46a9      	mov	r9, r5
100051e0:	46a0      	mov	r8, r4
100051e2:	bdf0      	pop	{r4, r5, r6, r7, pc}
100051e4:	0001      	movs	r1, r0
100051e6:	3969      	subs	r1, #105	@ 0x69
100051e8:	b2c9      	uxtb	r1, r1
100051ea:	290f      	cmp	r1, #15
100051ec:	d900      	bls.n	100051f0 <_vsnprintf+0x1a0>
100051ee:	e750      	b.n	10005092 <_vsnprintf+0x42>
100051f0:	2301      	movs	r3, #1
100051f2:	408b      	lsls	r3, r1
100051f4:	469c      	mov	ip, r3
100051f6:	4b6b      	ldr	r3, [pc, #428]	@ (100053a4 <_vsnprintf+0x354>)
100051f8:	4699      	mov	r9, r3
100051fa:	4663      	mov	r3, ip
100051fc:	464a      	mov	r2, r9
100051fe:	4013      	ands	r3, r2
10005200:	930f      	str	r3, [sp, #60]	@ 0x3c
10005202:	4662      	mov	r2, ip
10005204:	464b      	mov	r3, r9
10005206:	421a      	tst	r2, r3
10005208:	d000      	beq.n	1000520c <_vsnprintf+0x1bc>
1000520a:	e168      	b.n	100054de <_vsnprintf+0x48e>
1000520c:	290a      	cmp	r1, #10
1000520e:	d056      	beq.n	100052be <_vsnprintf+0x26e>
10005210:	2907      	cmp	r1, #7
10005212:	d000      	beq.n	10005216 <_vsnprintf+0x1c6>
10005214:	e73d      	b.n	10005092 <_vsnprintf+0x42>
10005216:	9b0d      	ldr	r3, [sp, #52]	@ 0x34
10005218:	cb02      	ldmia	r3!, {r1}
1000521a:	4698      	mov	r8, r3
1000521c:	2900      	cmp	r1, #0
1000521e:	d000      	beq.n	10005222 <_vsnprintf+0x1d2>
10005220:	e192      	b.n	10005548 <_vsnprintf+0x4f8>
10005222:	9b0b      	ldr	r3, [sp, #44]	@ 0x2c
10005224:	2110      	movs	r1, #16
10005226:	001a      	movs	r2, r3
10005228:	438a      	bics	r2, r1
1000522a:	0010      	movs	r0, r2
1000522c:	3111      	adds	r1, #17
1000522e:	4308      	orrs	r0, r1
10005230:	4681      	mov	r9, r0
10005232:	2080      	movs	r0, #128	@ 0x80
10005234:	001a      	movs	r2, r3
10005236:	00c0      	lsls	r0, r0, #3
10005238:	4002      	ands	r2, r0
1000523a:	0011      	movs	r1, r2
1000523c:	4203      	tst	r3, r0
1000523e:	d11c      	bne.n	1000527a <_vsnprintf+0x22a>
10005240:	ab14      	add	r3, sp, #80	@ 0x50
10005242:	469c      	mov	ip, r3
10005244:	221f      	movs	r2, #31
10005246:	230f      	movs	r3, #15
10005248:	4462      	add	r2, ip
1000524a:	950d      	str	r5, [sp, #52]	@ 0x34
1000524c:	469c      	mov	ip, r3
1000524e:	0015      	movs	r5, r2
10005250:	9b0f      	ldr	r3, [sp, #60]	@ 0x3c
10005252:	940b      	str	r4, [sp, #44]	@ 0x2c
10005254:	e002      	b.n	1000525c <_vsnprintf+0x20c>
10005256:	2b20      	cmp	r3, #32
10005258:	d00c      	beq.n	10005274 <_vsnprintf+0x224>
1000525a:	0011      	movs	r1, r2
1000525c:	4664      	mov	r4, ip
1000525e:	400c      	ands	r4, r1
10005260:	0020      	movs	r0, r4
10005262:	3037      	adds	r0, #55	@ 0x37
10005264:	2c09      	cmp	r4, #9
10005266:	d800      	bhi.n	1000526a <_vsnprintf+0x21a>
10005268:	3807      	subs	r0, #7
1000526a:	3301      	adds	r3, #1
1000526c:	54e8      	strb	r0, [r5, r3]
1000526e:	090a      	lsrs	r2, r1, #4
10005270:	290f      	cmp	r1, #15
10005272:	d8f0      	bhi.n	10005256 <_vsnprintf+0x206>
10005274:	9c0b      	ldr	r4, [sp, #44]	@ 0x2c
10005276:	9d0d      	ldr	r5, [sp, #52]	@ 0x34
10005278:	930f      	str	r3, [sp, #60]	@ 0x3c
1000527a:	464b      	mov	r3, r9
1000527c:	2208      	movs	r2, #8
1000527e:	9306      	str	r3, [sp, #24]
10005280:	4653      	mov	r3, sl
10005282:	9205      	str	r2, [sp, #20]
10005284:	3208      	adds	r2, #8
10005286:	9203      	str	r2, [sp, #12]
10005288:	2200      	movs	r2, #0
1000528a:	9304      	str	r3, [sp, #16]
1000528c:	9b0f      	ldr	r3, [sp, #60]	@ 0x3c
1000528e:	9202      	str	r2, [sp, #8]
10005290:	9301      	str	r3, [sp, #4]
10005292:	ab1c      	add	r3, sp, #112	@ 0x70
10005294:	0022      	movs	r2, r4
10005296:	9300      	str	r3, [sp, #0]
10005298:	4659      	mov	r1, fp
1000529a:	0033      	movs	r3, r6
1000529c:	0028      	movs	r0, r5
1000529e:	f7ff f995 	bl	100045cc <_ntoa_format>
100052a2:	4643      	mov	r3, r8
100052a4:	0004      	movs	r4, r0
100052a6:	930d      	str	r3, [sp, #52]	@ 0x34
100052a8:	e6fa      	b.n	100050a0 <_vsnprintf+0x50>
100052aa:	9b0d      	ldr	r3, [sp, #52]	@ 0x34
100052ac:	cb04      	ldmia	r3!, {r2}
100052ae:	4690      	mov	r8, r2
100052b0:	2a00      	cmp	r2, #0
100052b2:	db79      	blt.n	100053a8 <_vsnprintf+0x358>
100052b4:	7878      	ldrb	r0, [r7, #1]
100052b6:	930d      	str	r3, [sp, #52]	@ 0x34
100052b8:	000f      	movs	r7, r1
100052ba:	3101      	adds	r1, #1
100052bc:	e717      	b.n	100050ee <_vsnprintf+0x9e>
100052be:	9b0d      	ldr	r3, [sp, #52]	@ 0x34
100052c0:	cb02      	ldmia	r3!, {r1}
100052c2:	9314      	str	r3, [sp, #80]	@ 0x50
100052c4:	780b      	ldrb	r3, [r1, #0]
100052c6:	469c      	mov	ip, r3
100052c8:	0018      	movs	r0, r3
100052ca:	4653      	mov	r3, sl
100052cc:	2b00      	cmp	r3, #0
100052ce:	d100      	bne.n	100052d2 <_vsnprintf+0x282>
100052d0:	e134      	b.n	1000553c <_vsnprintf+0x4ec>
100052d2:	2800      	cmp	r0, #0
100052d4:	d015      	beq.n	10005302 <_vsnprintf+0x2b2>
100052d6:	4653      	mov	r3, sl
100052d8:	3b01      	subs	r3, #1
100052da:	3301      	adds	r3, #1
100052dc:	4699      	mov	r9, r3
100052de:	940d      	str	r4, [sp, #52]	@ 0x34
100052e0:	9c0b      	ldr	r4, [sp, #44]	@ 0x2c
100052e2:	4489      	add	r9, r1
100052e4:	464a      	mov	r2, r9
100052e6:	000b      	movs	r3, r1
100052e8:	46a1      	mov	r9, r4
100052ea:	e001      	b.n	100052f0 <_vsnprintf+0x2a0>
100052ec:	4293      	cmp	r3, r2
100052ee:	d003      	beq.n	100052f8 <_vsnprintf+0x2a8>
100052f0:	785c      	ldrb	r4, [r3, #1]
100052f2:	3301      	adds	r3, #1
100052f4:	2c00      	cmp	r4, #0
100052f6:	d1f9      	bne.n	100052ec <_vsnprintf+0x29c>
100052f8:	464a      	mov	r2, r9
100052fa:	1a5b      	subs	r3, r3, r1
100052fc:	9c0d      	ldr	r4, [sp, #52]	@ 0x34
100052fe:	920b      	str	r2, [sp, #44]	@ 0x2c
10005300:	930f      	str	r3, [sp, #60]	@ 0x3c
10005302:	2380      	movs	r3, #128	@ 0x80
10005304:	00db      	lsls	r3, r3, #3
10005306:	4699      	mov	r9, r3
10005308:	9a0b      	ldr	r2, [sp, #44]	@ 0x2c
1000530a:	4013      	ands	r3, r2
1000530c:	930d      	str	r3, [sp, #52]	@ 0x34
1000530e:	464b      	mov	r3, r9
10005310:	421a      	tst	r2, r3
10005312:	d004      	beq.n	1000531e <_vsnprintf+0x2ce>
10005314:	9b0f      	ldr	r3, [sp, #60]	@ 0x3c
10005316:	4553      	cmp	r3, sl
10005318:	d901      	bls.n	1000531e <_vsnprintf+0x2ce>
1000531a:	4653      	mov	r3, sl
1000531c:	930f      	str	r3, [sp, #60]	@ 0x3c
1000531e:	2302      	movs	r3, #2
10005320:	4699      	mov	r9, r3
10005322:	9a0b      	ldr	r2, [sp, #44]	@ 0x2c
10005324:	4013      	ands	r3, r2
10005326:	930b      	str	r3, [sp, #44]	@ 0x2c
10005328:	464b      	mov	r3, r9
1000532a:	4213      	tst	r3, r2
1000532c:	d100      	bne.n	10005330 <_vsnprintf+0x2e0>
1000532e:	e1f5      	b.n	1000571c <_vsnprintf+0x6cc>
10005330:	4663      	mov	r3, ip
10005332:	2b00      	cmp	r3, #0
10005334:	d100      	bne.n	10005338 <_vsnprintf+0x2e8>
10005336:	e1d6      	b.n	100056e6 <_vsnprintf+0x696>
10005338:	9b0d      	ldr	r3, [sp, #52]	@ 0x34
1000533a:	2b00      	cmp	r3, #0
1000533c:	d100      	bne.n	10005340 <_vsnprintf+0x2f0>
1000533e:	e182      	b.n	10005646 <_vsnprintf+0x5f6>
10005340:	1b0b      	subs	r3, r1, r4
10005342:	46d1      	mov	r9, sl
10005344:	0031      	movs	r1, r6
10005346:	469a      	mov	sl, r3
10005348:	003b      	movs	r3, r7
1000534a:	44a1      	add	r9, r4
1000534c:	002e      	movs	r6, r5
1000534e:	465f      	mov	r7, fp
10005350:	464d      	mov	r5, r9
10005352:	0022      	movs	r2, r4
10005354:	469b      	mov	fp, r3
10005356:	4689      	mov	r9, r1
10005358:	e009      	b.n	1000536e <_vsnprintf+0x31e>
1000535a:	464b      	mov	r3, r9
1000535c:	0039      	movs	r1, r7
1000535e:	1c54      	adds	r4, r2, #1
10005360:	47b0      	blx	r6
10005362:	4653      	mov	r3, sl
10005364:	5d18      	ldrb	r0, [r3, r4]
10005366:	2800      	cmp	r0, #0
10005368:	d100      	bne.n	1000536c <_vsnprintf+0x31c>
1000536a:	e192      	b.n	10005692 <_vsnprintf+0x642>
1000536c:	0022      	movs	r2, r4
1000536e:	4295      	cmp	r5, r2
10005370:	d1f3      	bne.n	1000535a <_vsnprintf+0x30a>
10005372:	464b      	mov	r3, r9
10005374:	465a      	mov	r2, fp
10005376:	46a9      	mov	r9, r5
10005378:	46bb      	mov	fp, r7
1000537a:	0035      	movs	r5, r6
1000537c:	0017      	movs	r7, r2
1000537e:	001e      	movs	r6, r3
10005380:	464c      	mov	r4, r9
10005382:	9b0b      	ldr	r3, [sp, #44]	@ 0x2c
10005384:	2b00      	cmp	r3, #0
10005386:	d000      	beq.n	1000538a <_vsnprintf+0x33a>
10005388:	e1ad      	b.n	100056e6 <_vsnprintf+0x696>
1000538a:	9b14      	ldr	r3, [sp, #80]	@ 0x50
1000538c:	930d      	str	r3, [sp, #52]	@ 0x34
1000538e:	e687      	b.n	100050a0 <_vsnprintf+0x50>
10005390:	10005051 	.word	0x10005051
10005394:	20003478 	.word	0x20003478
10005398:	1001a7c0 	.word	0x1001a7c0
1000539c:	1001a804 	.word	0x1001a804
100053a0:	1001a850 	.word	0x1001a850
100053a4:	00009041 	.word	0x00009041
100053a8:	9a0b      	ldr	r2, [sp, #44]	@ 0x2c
100053aa:	3828      	subs	r0, #40	@ 0x28
100053ac:	4302      	orrs	r2, r0
100053ae:	920b      	str	r2, [sp, #44]	@ 0x2c
100053b0:	4642      	mov	r2, r8
100053b2:	4252      	negs	r2, r2
100053b4:	7878      	ldrb	r0, [r7, #1]
100053b6:	4690      	mov	r8, r2
100053b8:	000f      	movs	r7, r1
100053ba:	930d      	str	r3, [sp, #52]	@ 0x34
100053bc:	3101      	adds	r1, #1
100053be:	e696      	b.n	100050ee <_vsnprintf+0x9e>
100053c0:	7878      	ldrb	r0, [r7, #1]
100053c2:	286c      	cmp	r0, #108	@ 0x6c
100053c4:	d100      	bne.n	100053c8 <_vsnprintf+0x378>
100053c6:	e15d      	b.n	10005684 <_vsnprintf+0x634>
100053c8:	2380      	movs	r3, #128	@ 0x80
100053ca:	9a0b      	ldr	r2, [sp, #44]	@ 0x2c
100053cc:	005b      	lsls	r3, r3, #1
100053ce:	431a      	orrs	r2, r3
100053d0:	920b      	str	r2, [sp, #44]	@ 0x2c
100053d2:	3101      	adds	r1, #1
100053d4:	e6b3      	b.n	1000513e <_vsnprintf+0xee>
100053d6:	2380      	movs	r3, #128	@ 0x80
100053d8:	009b      	lsls	r3, r3, #2
100053da:	e6ab      	b.n	10005134 <_vsnprintf+0xe4>
100053dc:	7878      	ldrb	r0, [r7, #1]
100053de:	2868      	cmp	r0, #104	@ 0x68
100053e0:	d100      	bne.n	100053e4 <_vsnprintf+0x394>
100053e2:	e148      	b.n	10005676 <_vsnprintf+0x626>
100053e4:	2380      	movs	r3, #128	@ 0x80
100053e6:	9a0b      	ldr	r2, [sp, #44]	@ 0x2c
100053e8:	3101      	adds	r1, #1
100053ea:	431a      	orrs	r2, r3
100053ec:	920b      	str	r2, [sp, #44]	@ 0x2c
100053ee:	e6a6      	b.n	1000513e <_vsnprintf+0xee>
100053f0:	2867      	cmp	r0, #103	@ 0x67
100053f2:	d100      	bne.n	100053f6 <_vsnprintf+0x3a6>
100053f4:	e0b2      	b.n	1000555c <_vsnprintf+0x50c>
100053f6:	2847      	cmp	r0, #71	@ 0x47
100053f8:	d100      	bne.n	100053fc <_vsnprintf+0x3ac>
100053fa:	e11a      	b.n	10005632 <_vsnprintf+0x5e2>
100053fc:	2845      	cmp	r0, #69	@ 0x45
100053fe:	d100      	bne.n	10005402 <_vsnprintf+0x3b2>
10005400:	e11c      	b.n	1000563c <_vsnprintf+0x5ec>
10005402:	9a0b      	ldr	r2, [sp, #44]	@ 0x2c
10005404:	2107      	movs	r1, #7
10005406:	9204      	str	r2, [sp, #16]
10005408:	4642      	mov	r2, r8
1000540a:	9b0d      	ldr	r3, [sp, #52]	@ 0x34
1000540c:	9203      	str	r2, [sp, #12]
1000540e:	3307      	adds	r3, #7
10005410:	4652      	mov	r2, sl
10005412:	438b      	bics	r3, r1
10005414:	0019      	movs	r1, r3
10005416:	9202      	str	r2, [sp, #8]
10005418:	c90c      	ldmia	r1!, {r2, r3}
1000541a:	0028      	movs	r0, r5
1000541c:	9200      	str	r2, [sp, #0]
1000541e:	9301      	str	r3, [sp, #4]
10005420:	910d      	str	r1, [sp, #52]	@ 0x34
10005422:	0022      	movs	r2, r4
10005424:	0033      	movs	r3, r6
10005426:	4659      	mov	r1, fp
10005428:	f7ff fa00 	bl	1000482c <_etoa>
1000542c:	0004      	movs	r4, r0
1000542e:	e637      	b.n	100050a0 <_vsnprintf+0x50>
10005430:	2846      	cmp	r0, #70	@ 0x46
10005432:	d100      	bne.n	10005436 <_vsnprintf+0x3e6>
10005434:	e08d      	b.n	10005552 <_vsnprintf+0x502>
10005436:	9a0b      	ldr	r2, [sp, #44]	@ 0x2c
10005438:	2107      	movs	r1, #7
1000543a:	9204      	str	r2, [sp, #16]
1000543c:	4642      	mov	r2, r8
1000543e:	9b0d      	ldr	r3, [sp, #52]	@ 0x34
10005440:	9203      	str	r2, [sp, #12]
10005442:	3307      	adds	r3, #7
10005444:	4652      	mov	r2, sl
10005446:	438b      	bics	r3, r1
10005448:	0019      	movs	r1, r3
1000544a:	9202      	str	r2, [sp, #8]
1000544c:	c90c      	ldmia	r1!, {r2, r3}
1000544e:	0028      	movs	r0, r5
10005450:	9200      	str	r2, [sp, #0]
10005452:	9301      	str	r3, [sp, #4]
10005454:	910d      	str	r1, [sp, #52]	@ 0x34
10005456:	0022      	movs	r2, r4
10005458:	0033      	movs	r3, r6
1000545a:	4659      	mov	r1, fp
1000545c:	f7ff fc18 	bl	10004c90 <_ftoa>
10005460:	0004      	movs	r4, r0
10005462:	e61d      	b.n	100050a0 <_vsnprintf+0x50>
10005464:	1c63      	adds	r3, r4, #1
10005466:	4698      	mov	r8, r3
10005468:	0022      	movs	r2, r4
1000546a:	0033      	movs	r3, r6
1000546c:	4659      	mov	r1, fp
1000546e:	2025      	movs	r0, #37	@ 0x25
10005470:	47a8      	blx	r5
10005472:	4644      	mov	r4, r8
10005474:	e614      	b.n	100050a0 <_vsnprintf+0x50>
10005476:	9b0d      	ldr	r3, [sp, #52]	@ 0x34
10005478:	3304      	adds	r3, #4
1000547a:	930f      	str	r3, [sp, #60]	@ 0x3c
1000547c:	1c63      	adds	r3, r4, #1
1000547e:	4699      	mov	r9, r3
10005480:	9b0b      	ldr	r3, [sp, #44]	@ 0x2c
10005482:	079a      	lsls	r2, r3, #30
10005484:	d400      	bmi.n	10005488 <_vsnprintf+0x438>
10005486:	e10a      	b.n	1000569e <_vsnprintf+0x64e>
10005488:	9b0d      	ldr	r3, [sp, #52]	@ 0x34
1000548a:	0022      	movs	r2, r4
1000548c:	7818      	ldrb	r0, [r3, #0]
1000548e:	4659      	mov	r1, fp
10005490:	0033      	movs	r3, r6
10005492:	47a8      	blx	r5
10005494:	4643      	mov	r3, r8
10005496:	4444      	add	r4, r8
10005498:	2b01      	cmp	r3, #1
1000549a:	d800      	bhi.n	1000549e <_vsnprintf+0x44e>
1000549c:	e16f      	b.n	1000577e <_vsnprintf+0x72e>
1000549e:	46b0      	mov	r8, r6
100054a0:	002e      	movs	r6, r5
100054a2:	0025      	movs	r5, r4
100054a4:	464c      	mov	r4, r9
100054a6:	46b9      	mov	r9, r7
100054a8:	465f      	mov	r7, fp
100054aa:	0022      	movs	r2, r4
100054ac:	4643      	mov	r3, r8
100054ae:	3401      	adds	r4, #1
100054b0:	0039      	movs	r1, r7
100054b2:	2020      	movs	r0, #32
100054b4:	47b0      	blx	r6
100054b6:	42ac      	cmp	r4, r5
100054b8:	d1f7      	bne.n	100054aa <_vsnprintf+0x45a>
100054ba:	002c      	movs	r4, r5
100054bc:	46bb      	mov	fp, r7
100054be:	0035      	movs	r5, r6
100054c0:	464f      	mov	r7, r9
100054c2:	4646      	mov	r6, r8
100054c4:	9b0f      	ldr	r3, [sp, #60]	@ 0x3c
100054c6:	930d      	str	r3, [sp, #52]	@ 0x34
100054c8:	e5ea      	b.n	100050a0 <_vsnprintf+0x50>
100054ca:	4bd6      	ldr	r3, [pc, #856]	@ (10005824 <_vsnprintf+0x7d4>)
100054cc:	7838      	ldrb	r0, [r7, #0]
100054ce:	469a      	mov	sl, r3
100054d0:	2300      	movs	r3, #0
100054d2:	4698      	mov	r8, r3
100054d4:	2800      	cmp	r0, #0
100054d6:	d000      	beq.n	100054da <_vsnprintf+0x48a>
100054d8:	e5d3      	b.n	10005082 <_vsnprintf+0x32>
100054da:	2400      	movs	r4, #0
100054dc:	e66f      	b.n	100051be <_vsnprintf+0x16e>
100054de:	286f      	cmp	r0, #111	@ 0x6f
100054e0:	d042      	beq.n	10005568 <_vsnprintf+0x518>
100054e2:	d800      	bhi.n	100054e6 <_vsnprintf+0x496>
100054e4:	e1fd      	b.n	100058e2 <_vsnprintf+0x892>
100054e6:	2310      	movs	r3, #16
100054e8:	2878      	cmp	r0, #120	@ 0x78
100054ea:	d100      	bne.n	100054ee <_vsnprintf+0x49e>
100054ec:	e09b      	b.n	10005626 <_vsnprintf+0x5d6>
100054ee:	9a0b      	ldr	r2, [sp, #44]	@ 0x2c
100054f0:	439a      	bics	r2, r3
100054f2:	920b      	str	r2, [sp, #44]	@ 0x2c
100054f4:	230a      	movs	r3, #10
100054f6:	469c      	mov	ip, r3
100054f8:	2300      	movs	r3, #0
100054fa:	9314      	str	r3, [sp, #80]	@ 0x50
100054fc:	330a      	adds	r3, #10
100054fe:	930f      	str	r3, [sp, #60]	@ 0x3c
10005500:	e038      	b.n	10005574 <_vsnprintf+0x524>
10005502:	4657      	mov	r7, sl
10005504:	9a0b      	ldr	r2, [sp, #44]	@ 0x2c
10005506:	00b9      	lsls	r1, r7, #2
10005508:	19c9      	adds	r1, r1, r7
1000550a:	0049      	lsls	r1, r1, #1
1000550c:	3301      	adds	r3, #1
1000550e:	180f      	adds	r7, r1, r0
10005510:	7818      	ldrb	r0, [r3, #0]
10005512:	3f30      	subs	r7, #48	@ 0x30
10005514:	0001      	movs	r1, r0
10005516:	3930      	subs	r1, #48	@ 0x30
10005518:	2909      	cmp	r1, #9
1000551a:	d9f4      	bls.n	10005506 <_vsnprintf+0x4b6>
1000551c:	46ba      	mov	sl, r7
1000551e:	920b      	str	r2, [sp, #44]	@ 0x2c
10005520:	001f      	movs	r7, r3
10005522:	1c59      	adds	r1, r3, #1
10005524:	e5e7      	b.n	100050f6 <_vsnprintf+0xa6>
10005526:	9b0d      	ldr	r3, [sp, #52]	@ 0x34
10005528:	78b8      	ldrb	r0, [r7, #2]
1000552a:	cb04      	ldmia	r3!, {r2}
1000552c:	3702      	adds	r7, #2
1000552e:	43d1      	mvns	r1, r2
10005530:	17c9      	asrs	r1, r1, #31
10005532:	400a      	ands	r2, r1
10005534:	4692      	mov	sl, r2
10005536:	930d      	str	r3, [sp, #52]	@ 0x34
10005538:	1c79      	adds	r1, r7, #1
1000553a:	e5dc      	b.n	100050f6 <_vsnprintf+0xa6>
1000553c:	2800      	cmp	r0, #0
1000553e:	d100      	bne.n	10005542 <_vsnprintf+0x4f2>
10005540:	e6df      	b.n	10005302 <_vsnprintf+0x2b2>
10005542:	2302      	movs	r3, #2
10005544:	425b      	negs	r3, r3
10005546:	e6c8      	b.n	100052da <_vsnprintf+0x28a>
10005548:	2021      	movs	r0, #33	@ 0x21
1000554a:	9a0b      	ldr	r2, [sp, #44]	@ 0x2c
1000554c:	4302      	orrs	r2, r0
1000554e:	4691      	mov	r9, r2
10005550:	e676      	b.n	10005240 <_vsnprintf+0x1f0>
10005552:	2320      	movs	r3, #32
10005554:	9a0b      	ldr	r2, [sp, #44]	@ 0x2c
10005556:	431a      	orrs	r2, r3
10005558:	920b      	str	r2, [sp, #44]	@ 0x2c
1000555a:	e76c      	b.n	10005436 <_vsnprintf+0x3e6>
1000555c:	2380      	movs	r3, #128	@ 0x80
1000555e:	9a0b      	ldr	r2, [sp, #44]	@ 0x2c
10005560:	011b      	lsls	r3, r3, #4
10005562:	431a      	orrs	r2, r3
10005564:	920b      	str	r2, [sp, #44]	@ 0x2c
10005566:	e74c      	b.n	10005402 <_vsnprintf+0x3b2>
10005568:	2308      	movs	r3, #8
1000556a:	469c      	mov	ip, r3
1000556c:	2300      	movs	r3, #0
1000556e:	9314      	str	r3, [sp, #80]	@ 0x50
10005570:	3308      	adds	r3, #8
10005572:	930f      	str	r3, [sp, #60]	@ 0x3c
10005574:	980b      	ldr	r0, [sp, #44]	@ 0x2c
10005576:	2380      	movs	r3, #128	@ 0x80
10005578:	0002      	movs	r2, r0
1000557a:	00db      	lsls	r3, r3, #3
1000557c:	401a      	ands	r2, r3
1000557e:	0011      	movs	r1, r2
10005580:	0002      	movs	r2, r0
10005582:	4218      	tst	r0, r3
10005584:	d000      	beq.n	10005588 <_vsnprintf+0x538>
10005586:	e080      	b.n	1000568a <_vsnprintf+0x63a>
10005588:	230c      	movs	r3, #12
1000558a:	439a      	bics	r2, r3
1000558c:	0010      	movs	r0, r2
1000558e:	2380      	movs	r3, #128	@ 0x80
10005590:	0002      	movs	r2, r0
10005592:	009b      	lsls	r3, r3, #2
10005594:	401a      	ands	r2, r3
10005596:	920b      	str	r2, [sp, #44]	@ 0x2c
10005598:	4218      	tst	r0, r3
1000559a:	d000      	beq.n	1000559e <_vsnprintf+0x54e>
1000559c:	e0f1      	b.n	10005782 <_vsnprintf+0x732>
1000559e:	2380      	movs	r3, #128	@ 0x80
100055a0:	0002      	movs	r2, r0
100055a2:	005b      	lsls	r3, r3, #1
100055a4:	401a      	ands	r2, r3
100055a6:	4691      	mov	r9, r2
100055a8:	9a0d      	ldr	r2, [sp, #52]	@ 0x34
100055aa:	3204      	adds	r2, #4
100055ac:	9214      	str	r2, [sp, #80]	@ 0x50
100055ae:	4218      	tst	r0, r3
100055b0:	d000      	beq.n	100055b4 <_vsnprintf+0x564>
100055b2:	e2c3      	b.n	10005b3c <_vsnprintf+0xaec>
100055b4:	0643      	lsls	r3, r0, #25
100055b6:	d500      	bpl.n	100055ba <_vsnprintf+0x56a>
100055b8:	e0d7      	b.n	1000576a <_vsnprintf+0x71a>
100055ba:	0603      	lsls	r3, r0, #24
100055bc:	d400      	bmi.n	100055c0 <_vsnprintf+0x570>
100055be:	e321      	b.n	10005c04 <_vsnprintf+0xbb4>
100055c0:	9b0d      	ldr	r3, [sp, #52]	@ 0x34
100055c2:	881b      	ldrh	r3, [r3, #0]
100055c4:	9309      	str	r3, [sp, #36]	@ 0x24
100055c6:	2b00      	cmp	r3, #0
100055c8:	d000      	beq.n	100055cc <_vsnprintf+0x57c>
100055ca:	e12d      	b.n	10005828 <_vsnprintf+0x7d8>
100055cc:	3310      	adds	r3, #16
100055ce:	4398      	bics	r0, r3
100055d0:	2900      	cmp	r1, #0
100055d2:	d100      	bne.n	100055d6 <_vsnprintf+0x586>
100055d4:	e128      	b.n	10005828 <_vsnprintf+0x7d8>
100055d6:	2300      	movs	r3, #0
100055d8:	4699      	mov	r9, r3
100055da:	4643      	mov	r3, r8
100055dc:	9305      	str	r3, [sp, #20]
100055de:	4653      	mov	r3, sl
100055e0:	9304      	str	r3, [sp, #16]
100055e2:	9b0f      	ldr	r3, [sp, #60]	@ 0x3c
100055e4:	9006      	str	r0, [sp, #24]
100055e6:	9303      	str	r3, [sp, #12]
100055e8:	2300      	movs	r3, #0
100055ea:	9302      	str	r3, [sp, #8]
100055ec:	464b      	mov	r3, r9
100055ee:	9301      	str	r3, [sp, #4]
100055f0:	ab1c      	add	r3, sp, #112	@ 0x70
100055f2:	0022      	movs	r2, r4
100055f4:	9300      	str	r3, [sp, #0]
100055f6:	4659      	mov	r1, fp
100055f8:	0033      	movs	r3, r6
100055fa:	0028      	movs	r0, r5
100055fc:	f7fe ffe6 	bl	100045cc <_ntoa_format>
10005600:	0004      	movs	r4, r0
10005602:	e6c2      	b.n	1000538a <_vsnprintf+0x33a>
10005604:	2858      	cmp	r0, #88	@ 0x58
10005606:	d009      	beq.n	1000561c <_vsnprintf+0x5cc>
10005608:	2862      	cmp	r0, #98	@ 0x62
1000560a:	d000      	beq.n	1000560e <_vsnprintf+0x5be>
1000560c:	e2e3      	b.n	10005bd6 <_vsnprintf+0xb86>
1000560e:	2302      	movs	r3, #2
10005610:	469c      	mov	ip, r3
10005612:	2300      	movs	r3, #0
10005614:	9314      	str	r3, [sp, #80]	@ 0x50
10005616:	3302      	adds	r3, #2
10005618:	930f      	str	r3, [sp, #60]	@ 0x3c
1000561a:	e7ab      	b.n	10005574 <_vsnprintf+0x524>
1000561c:	2320      	movs	r3, #32
1000561e:	9a0b      	ldr	r2, [sp, #44]	@ 0x2c
10005620:	431a      	orrs	r2, r3
10005622:	920b      	str	r2, [sp, #44]	@ 0x2c
10005624:	3b10      	subs	r3, #16
10005626:	469c      	mov	ip, r3
10005628:	2300      	movs	r3, #0
1000562a:	9314      	str	r3, [sp, #80]	@ 0x50
1000562c:	3310      	adds	r3, #16
1000562e:	930f      	str	r3, [sp, #60]	@ 0x3c
10005630:	e7a0      	b.n	10005574 <_vsnprintf+0x524>
10005632:	2380      	movs	r3, #128	@ 0x80
10005634:	9a0b      	ldr	r2, [sp, #44]	@ 0x2c
10005636:	011b      	lsls	r3, r3, #4
10005638:	431a      	orrs	r2, r3
1000563a:	920b      	str	r2, [sp, #44]	@ 0x2c
1000563c:	2320      	movs	r3, #32
1000563e:	9a0b      	ldr	r2, [sp, #44]	@ 0x2c
10005640:	431a      	orrs	r2, r3
10005642:	920b      	str	r2, [sp, #44]	@ 0x2c
10005644:	e6dd      	b.n	10005402 <_vsnprintf+0x3b2>
10005646:	1b0b      	subs	r3, r1, r4
10005648:	469a      	mov	sl, r3
1000564a:	9b0f      	ldr	r3, [sp, #60]	@ 0x3c
1000564c:	4699      	mov	r9, r3
1000564e:	003b      	movs	r3, r7
10005650:	0037      	movs	r7, r6
10005652:	465e      	mov	r6, fp
10005654:	469b      	mov	fp, r3
10005656:	0022      	movs	r2, r4
10005658:	003b      	movs	r3, r7
1000565a:	0031      	movs	r1, r6
1000565c:	47a8      	blx	r5
1000565e:	4653      	mov	r3, sl
10005660:	3401      	adds	r4, #1
10005662:	5d18      	ldrb	r0, [r3, r4]
10005664:	2800      	cmp	r0, #0
10005666:	d1f6      	bne.n	10005656 <_vsnprintf+0x606>
10005668:	464b      	mov	r3, r9
1000566a:	930f      	str	r3, [sp, #60]	@ 0x3c
1000566c:	465b      	mov	r3, fp
1000566e:	46b3      	mov	fp, r6
10005670:	003e      	movs	r6, r7
10005672:	001f      	movs	r7, r3
10005674:	e685      	b.n	10005382 <_vsnprintf+0x332>
10005676:	23c0      	movs	r3, #192	@ 0xc0
10005678:	9a0b      	ldr	r2, [sp, #44]	@ 0x2c
1000567a:	78b8      	ldrb	r0, [r7, #2]
1000567c:	431a      	orrs	r2, r3
1000567e:	920b      	str	r2, [sp, #44]	@ 0x2c
10005680:	1cf9      	adds	r1, r7, #3
10005682:	e55c      	b.n	1000513e <_vsnprintf+0xee>
10005684:	23c0      	movs	r3, #192	@ 0xc0
10005686:	009b      	lsls	r3, r3, #2
10005688:	e7f6      	b.n	10005678 <_vsnprintf+0x628>
1000568a:	230d      	movs	r3, #13
1000568c:	439a      	bics	r2, r3
1000568e:	0010      	movs	r0, r2
10005690:	e77d      	b.n	1000558e <_vsnprintf+0x53e>
10005692:	465b      	mov	r3, fp
10005694:	0035      	movs	r5, r6
10005696:	46bb      	mov	fp, r7
10005698:	464e      	mov	r6, r9
1000569a:	001f      	movs	r7, r3
1000569c:	e671      	b.n	10005382 <_vsnprintf+0x332>
1000569e:	4643      	mov	r3, r8
100056a0:	2b01      	cmp	r3, #1
100056a2:	d966      	bls.n	10005772 <_vsnprintf+0x722>
100056a4:	1e63      	subs	r3, r4, #1
100056a6:	4443      	add	r3, r8
100056a8:	0032      	movs	r2, r6
100056aa:	002e      	movs	r6, r5
100056ac:	001d      	movs	r5, r3
100056ae:	003b      	movs	r3, r7
100056b0:	46a2      	mov	sl, r4
100056b2:	465f      	mov	r7, fp
100056b4:	4691      	mov	r9, r2
100056b6:	469b      	mov	fp, r3
100056b8:	0022      	movs	r2, r4
100056ba:	464b      	mov	r3, r9
100056bc:	3401      	adds	r4, #1
100056be:	0039      	movs	r1, r7
100056c0:	2020      	movs	r0, #32
100056c2:	47b0      	blx	r6
100056c4:	42ac      	cmp	r4, r5
100056c6:	d1f7      	bne.n	100056b8 <_vsnprintf+0x668>
100056c8:	465b      	mov	r3, fp
100056ca:	0035      	movs	r5, r6
100056cc:	46bb      	mov	fp, r7
100056ce:	464e      	mov	r6, r9
100056d0:	46a1      	mov	r9, r4
100056d2:	4654      	mov	r4, sl
100056d4:	001f      	movs	r7, r3
100056d6:	9b0d      	ldr	r3, [sp, #52]	@ 0x34
100056d8:	464a      	mov	r2, r9
100056da:	7818      	ldrb	r0, [r3, #0]
100056dc:	4659      	mov	r1, fp
100056de:	0033      	movs	r3, r6
100056e0:	4444      	add	r4, r8
100056e2:	47a8      	blx	r5
100056e4:	e6ee      	b.n	100054c4 <_vsnprintf+0x474>
100056e6:	9b0f      	ldr	r3, [sp, #60]	@ 0x3c
100056e8:	46a1      	mov	r9, r4
100056ea:	4598      	cmp	r8, r3
100056ec:	d800      	bhi.n	100056f0 <_vsnprintf+0x6a0>
100056ee:	e64c      	b.n	1000538a <_vsnprintf+0x33a>
100056f0:	4444      	add	r4, r8
100056f2:	1ae4      	subs	r4, r4, r3
100056f4:	46b0      	mov	r8, r6
100056f6:	002e      	movs	r6, r5
100056f8:	0025      	movs	r5, r4
100056fa:	464c      	mov	r4, r9
100056fc:	46b9      	mov	r9, r7
100056fe:	465f      	mov	r7, fp
10005700:	0022      	movs	r2, r4
10005702:	4643      	mov	r3, r8
10005704:	3401      	adds	r4, #1
10005706:	0039      	movs	r1, r7
10005708:	2020      	movs	r0, #32
1000570a:	47b0      	blx	r6
1000570c:	42ac      	cmp	r4, r5
1000570e:	d1f7      	bne.n	10005700 <_vsnprintf+0x6b0>
10005710:	002c      	movs	r4, r5
10005712:	46bb      	mov	fp, r7
10005714:	0035      	movs	r5, r6
10005716:	464f      	mov	r7, r9
10005718:	4646      	mov	r6, r8
1000571a:	e636      	b.n	1000538a <_vsnprintf+0x33a>
1000571c:	980f      	ldr	r0, [sp, #60]	@ 0x3c
1000571e:	4580      	cmp	r8, r0
10005720:	d800      	bhi.n	10005724 <_vsnprintf+0x6d4>
10005722:	e273      	b.n	10005c0c <_vsnprintf+0xbbc>
10005724:	4643      	mov	r3, r8
10005726:	18e2      	adds	r2, r4, r3
10005728:	1a13      	subs	r3, r2, r0
1000572a:	0032      	movs	r2, r6
1000572c:	002e      	movs	r6, r5
1000572e:	001d      	movs	r5, r3
10005730:	003b      	movs	r3, r7
10005732:	4691      	mov	r9, r2
10005734:	465f      	mov	r7, fp
10005736:	469b      	mov	fp, r3
10005738:	910f      	str	r1, [sp, #60]	@ 0x3c
1000573a:	0022      	movs	r2, r4
1000573c:	464b      	mov	r3, r9
1000573e:	3401      	adds	r4, #1
10005740:	0039      	movs	r1, r7
10005742:	2020      	movs	r0, #32
10005744:	47b0      	blx	r6
10005746:	42ac      	cmp	r4, r5
10005748:	d1f7      	bne.n	1000573a <_vsnprintf+0x6ea>
1000574a:	465b      	mov	r3, fp
1000574c:	46bb      	mov	fp, r7
1000574e:	001f      	movs	r7, r3
10005750:	4643      	mov	r3, r8
10005752:	990f      	ldr	r1, [sp, #60]	@ 0x3c
10005754:	3301      	adds	r3, #1
10005756:	930f      	str	r3, [sp, #60]	@ 0x3c
10005758:	780b      	ldrb	r3, [r1, #0]
1000575a:	0035      	movs	r5, r6
1000575c:	469c      	mov	ip, r3
1000575e:	464e      	mov	r6, r9
10005760:	4660      	mov	r0, ip
10005762:	2800      	cmp	r0, #0
10005764:	d000      	beq.n	10005768 <_vsnprintf+0x718>
10005766:	e5e7      	b.n	10005338 <_vsnprintf+0x2e8>
10005768:	e60f      	b.n	1000538a <_vsnprintf+0x33a>
1000576a:	9b0d      	ldr	r3, [sp, #52]	@ 0x34
1000576c:	781b      	ldrb	r3, [r3, #0]
1000576e:	9309      	str	r3, [sp, #36]	@ 0x24
10005770:	e729      	b.n	100055c6 <_vsnprintf+0x576>
10005772:	9b0d      	ldr	r3, [sp, #52]	@ 0x34
10005774:	0022      	movs	r2, r4
10005776:	7818      	ldrb	r0, [r3, #0]
10005778:	4659      	mov	r1, fp
1000577a:	0033      	movs	r3, r6
1000577c:	47a8      	blx	r5
1000577e:	464c      	mov	r4, r9
10005780:	e6a0      	b.n	100054c4 <_vsnprintf+0x474>
10005782:	9a0d      	ldr	r2, [sp, #52]	@ 0x34
10005784:	3bfa      	subs	r3, #250	@ 0xfa
10005786:	3bff      	subs	r3, #255	@ 0xff
10005788:	3207      	adds	r2, #7
1000578a:	439a      	bics	r2, r3
1000578c:	3301      	adds	r3, #1
1000578e:	4699      	mov	r9, r3
10005790:	4491      	add	r9, r2
10005792:	464b      	mov	r3, r9
10005794:	930d      	str	r3, [sp, #52]	@ 0x34
10005796:	6813      	ldr	r3, [r2, #0]
10005798:	6852      	ldr	r2, [r2, #4]
1000579a:	9215      	str	r2, [sp, #84]	@ 0x54
1000579c:	431a      	orrs	r2, r3
1000579e:	d106      	bne.n	100057ae <_vsnprintf+0x75e>
100057a0:	3210      	adds	r2, #16
100057a2:	4390      	bics	r0, r2
100057a4:	2200      	movs	r2, #0
100057a6:	9209      	str	r2, [sp, #36]	@ 0x24
100057a8:	2900      	cmp	r1, #0
100057aa:	d000      	beq.n	100057ae <_vsnprintf+0x75e>
100057ac:	e083      	b.n	100058b6 <_vsnprintf+0x866>
100057ae:	2261      	movs	r2, #97	@ 0x61
100057b0:	0681      	lsls	r1, r0, #26
100057b2:	d500      	bpl.n	100057b6 <_vsnprintf+0x766>
100057b4:	2241      	movs	r2, #65	@ 0x41
100057b6:	b2d2      	uxtb	r2, r2
100057b8:	920a      	str	r2, [sp, #40]	@ 0x28
100057ba:	aa14      	add	r2, sp, #80	@ 0x50
100057bc:	4691      	mov	r9, r2
100057be:	9a0a      	ldr	r2, [sp, #40]	@ 0x28
100057c0:	2100      	movs	r1, #0
100057c2:	3a0a      	subs	r2, #10
100057c4:	920b      	str	r2, [sp, #44]	@ 0x2c
100057c6:	4642      	mov	r2, r8
100057c8:	9217      	str	r2, [sp, #92]	@ 0x5c
100057ca:	4652      	mov	r2, sl
100057cc:	9218      	str	r2, [sp, #96]	@ 0x60
100057ce:	465a      	mov	r2, fp
100057d0:	46b2      	mov	sl, r6
100057d2:	9109      	str	r1, [sp, #36]	@ 0x24
100057d4:	001e      	movs	r6, r3
100057d6:	311f      	adds	r1, #31
100057d8:	9b14      	ldr	r3, [sp, #80]	@ 0x50
100057da:	4449      	add	r1, r9
100057dc:	46bb      	mov	fp, r7
100057de:	9416      	str	r4, [sp, #88]	@ 0x58
100057e0:	951a      	str	r5, [sp, #104]	@ 0x68
100057e2:	2400      	movs	r4, #0
100057e4:	4667      	mov	r7, ip
100057e6:	4698      	mov	r8, r3
100057e8:	4689      	mov	r9, r1
100057ea:	9d15      	ldr	r5, [sp, #84]	@ 0x54
100057ec:	9019      	str	r0, [sp, #100]	@ 0x64
100057ee:	921b      	str	r2, [sp, #108]	@ 0x6c
100057f0:	e00a      	b.n	10005808 <_vsnprintf+0x7b8>
100057f2:	3230      	adds	r2, #48	@ 0x30
100057f4:	b2d2      	uxtb	r2, r2
100057f6:	464b      	mov	r3, r9
100057f8:	3401      	adds	r4, #1
100057fa:	551a      	strb	r2, [r3, r4]
100057fc:	45a8      	cmp	r8, r5
100057fe:	d04c      	beq.n	1000589a <_vsnprintf+0x84a>
10005800:	2c20      	cmp	r4, #32
10005802:	d04c      	beq.n	1000589e <_vsnprintf+0x84e>
10005804:	0006      	movs	r6, r0
10005806:	000d      	movs	r5, r1
10005808:	003a      	movs	r2, r7
1000580a:	2300      	movs	r3, #0
1000580c:	0030      	movs	r0, r6
1000580e:	0029      	movs	r1, r5
10005810:	f000 faf6 	bl	10005e00 <__wrap___aeabi_uldivmod>
10005814:	b2d2      	uxtb	r2, r2
10005816:	2a09      	cmp	r2, #9
10005818:	d9eb      	bls.n	100057f2 <_vsnprintf+0x7a2>
1000581a:	9b0b      	ldr	r3, [sp, #44]	@ 0x2c
1000581c:	469c      	mov	ip, r3
1000581e:	4462      	add	r2, ip
10005820:	b2d2      	uxtb	r2, r2
10005822:	e7e8      	b.n	100057f6 <_vsnprintf+0x7a6>
10005824:	1000451d 	.word	0x1000451d
10005828:	2361      	movs	r3, #97	@ 0x61
1000582a:	0682      	lsls	r2, r0, #26
1000582c:	d500      	bpl.n	10005830 <_vsnprintf+0x7e0>
1000582e:	2341      	movs	r3, #65	@ 0x41
10005830:	b2db      	uxtb	r3, r3
10005832:	3b0a      	subs	r3, #10
10005834:	930b      	str	r3, [sp, #44]	@ 0x2c
10005836:	4643      	mov	r3, r8
10005838:	a914      	add	r1, sp, #80	@ 0x50
1000583a:	221f      	movs	r2, #31
1000583c:	468c      	mov	ip, r1
1000583e:	9315      	str	r3, [sp, #84]	@ 0x54
10005840:	4653      	mov	r3, sl
10005842:	4462      	add	r2, ip
10005844:	46b2      	mov	sl, r6
10005846:	940d      	str	r4, [sp, #52]	@ 0x34
10005848:	9717      	str	r7, [sp, #92]	@ 0x5c
1000584a:	464c      	mov	r4, r9
1000584c:	4680      	mov	r8, r0
1000584e:	46a9      	mov	r9, r5
10005850:	0017      	movs	r7, r2
10005852:	9d09      	ldr	r5, [sp, #36]	@ 0x24
10005854:	9e0f      	ldr	r6, [sp, #60]	@ 0x3c
10005856:	9316      	str	r3, [sp, #88]	@ 0x58
10005858:	e008      	b.n	1000586c <_vsnprintf+0x81c>
1000585a:	3330      	adds	r3, #48	@ 0x30
1000585c:	b2db      	uxtb	r3, r3
1000585e:	3401      	adds	r4, #1
10005860:	553b      	strb	r3, [r7, r4]
10005862:	42b5      	cmp	r5, r6
10005864:	d30e      	bcc.n	10005884 <_vsnprintf+0x834>
10005866:	2c20      	cmp	r4, #32
10005868:	d00c      	beq.n	10005884 <_vsnprintf+0x834>
1000586a:	0005      	movs	r5, r0
1000586c:	0031      	movs	r1, r6
1000586e:	0028      	movs	r0, r5
10005870:	f000 fa88 	bl	10005d84 <__wrap___aeabi_uidiv>
10005874:	b2cb      	uxtb	r3, r1
10005876:	2909      	cmp	r1, #9
10005878:	d9ef      	bls.n	1000585a <_vsnprintf+0x80a>
1000587a:	9a0b      	ldr	r2, [sp, #44]	@ 0x2c
1000587c:	4694      	mov	ip, r2
1000587e:	4463      	add	r3, ip
10005880:	b2db      	uxtb	r3, r3
10005882:	e7ec      	b.n	1000585e <_vsnprintf+0x80e>
10005884:	9b15      	ldr	r3, [sp, #84]	@ 0x54
10005886:	4640      	mov	r0, r8
10005888:	4698      	mov	r8, r3
1000588a:	9b16      	ldr	r3, [sp, #88]	@ 0x58
1000588c:	464d      	mov	r5, r9
1000588e:	4656      	mov	r6, sl
10005890:	46a1      	mov	r9, r4
10005892:	469a      	mov	sl, r3
10005894:	9c0d      	ldr	r4, [sp, #52]	@ 0x34
10005896:	9f17      	ldr	r7, [sp, #92]	@ 0x5c
10005898:	e69f      	b.n	100055da <_vsnprintf+0x58a>
1000589a:	42b7      	cmp	r7, r6
1000589c:	d9b0      	bls.n	10005800 <_vsnprintf+0x7b0>
1000589e:	9b17      	ldr	r3, [sp, #92]	@ 0x5c
100058a0:	4656      	mov	r6, sl
100058a2:	4698      	mov	r8, r3
100058a4:	9b18      	ldr	r3, [sp, #96]	@ 0x60
100058a6:	465f      	mov	r7, fp
100058a8:	469a      	mov	sl, r3
100058aa:	9b1b      	ldr	r3, [sp, #108]	@ 0x6c
100058ac:	9409      	str	r4, [sp, #36]	@ 0x24
100058ae:	469b      	mov	fp, r3
100058b0:	9c16      	ldr	r4, [sp, #88]	@ 0x58
100058b2:	9819      	ldr	r0, [sp, #100]	@ 0x64
100058b4:	9d1a      	ldr	r5, [sp, #104]	@ 0x68
100058b6:	4643      	mov	r3, r8
100058b8:	9305      	str	r3, [sp, #20]
100058ba:	4653      	mov	r3, sl
100058bc:	9304      	str	r3, [sp, #16]
100058be:	9b0f      	ldr	r3, [sp, #60]	@ 0x3c
100058c0:	9006      	str	r0, [sp, #24]
100058c2:	9303      	str	r3, [sp, #12]
100058c4:	2300      	movs	r3, #0
100058c6:	9302      	str	r3, [sp, #8]
100058c8:	9b09      	ldr	r3, [sp, #36]	@ 0x24
100058ca:	9301      	str	r3, [sp, #4]
100058cc:	ab1c      	add	r3, sp, #112	@ 0x70
100058ce:	0022      	movs	r2, r4
100058d0:	9300      	str	r3, [sp, #0]
100058d2:	4659      	mov	r1, fp
100058d4:	0033      	movs	r3, r6
100058d6:	0028      	movs	r0, r5
100058d8:	f7fe fe78 	bl	100045cc <_ntoa_format>
100058dc:	0004      	movs	r4, r0
100058de:	f7ff fbdf 	bl	100050a0 <_vsnprintf+0x50>
100058e2:	2310      	movs	r3, #16
100058e4:	9a0b      	ldr	r2, [sp, #44]	@ 0x2c
100058e6:	439a      	bics	r2, r3
100058e8:	920f      	str	r2, [sp, #60]	@ 0x3c
100058ea:	2869      	cmp	r0, #105	@ 0x69
100058ec:	d000      	beq.n	100058f0 <_vsnprintf+0x8a0>
100058ee:	e191      	b.n	10005c14 <_vsnprintf+0xbc4>
100058f0:	990b      	ldr	r1, [sp, #44]	@ 0x2c
100058f2:	2380      	movs	r3, #128	@ 0x80
100058f4:	000a      	movs	r2, r1
100058f6:	00db      	lsls	r3, r3, #3
100058f8:	401a      	ands	r2, r3
100058fa:	0010      	movs	r0, r2
100058fc:	000a      	movs	r2, r1
100058fe:	4219      	tst	r1, r3
10005900:	d003      	beq.n	1000590a <_vsnprintf+0x8ba>
10005902:	2111      	movs	r1, #17
10005904:	0018      	movs	r0, r3
10005906:	438a      	bics	r2, r1
10005908:	920f      	str	r2, [sp, #60]	@ 0x3c
1000590a:	9a0f      	ldr	r2, [sp, #60]	@ 0x3c
1000590c:	2380      	movs	r3, #128	@ 0x80
1000590e:	0011      	movs	r1, r2
10005910:	009b      	lsls	r3, r3, #2
10005912:	4019      	ands	r1, r3
10005914:	468c      	mov	ip, r1
10005916:	421a      	tst	r2, r3
10005918:	d15b      	bne.n	100059d2 <_vsnprintf+0x982>
1000591a:	2380      	movs	r3, #128	@ 0x80
1000591c:	0011      	movs	r1, r2
1000591e:	005b      	lsls	r3, r3, #1
10005920:	4019      	ands	r1, r3
10005922:	4689      	mov	r9, r1
10005924:	990d      	ldr	r1, [sp, #52]	@ 0x34
10005926:	3104      	adds	r1, #4
10005928:	910b      	str	r1, [sp, #44]	@ 0x2c
1000592a:	421a      	tst	r2, r3
1000592c:	d000      	beq.n	10005930 <_vsnprintf+0x8e0>
1000592e:	e0b2      	b.n	10005a96 <_vsnprintf+0xa46>
10005930:	0013      	movs	r3, r2
10005932:	065b      	lsls	r3, r3, #25
10005934:	d400      	bmi.n	10005938 <_vsnprintf+0x8e8>
10005936:	e0ed      	b.n	10005b14 <_vsnprintf+0xac4>
10005938:	9b0d      	ldr	r3, [sp, #52]	@ 0x34
1000593a:	781b      	ldrb	r3, [r3, #0]
1000593c:	001a      	movs	r2, r3
1000593e:	0fd9      	lsrs	r1, r3, #31
10005940:	910d      	str	r1, [sp, #52]	@ 0x34
10005942:	2b00      	cmp	r3, #0
10005944:	d100      	bne.n	10005948 <_vsnprintf+0x8f8>
10005946:	e0a3      	b.n	10005a90 <_vsnprintf+0xa40>
10005948:	0010      	movs	r0, r2
1000594a:	aa14      	add	r2, sp, #80	@ 0x50
1000594c:	4694      	mov	ip, r2
1000594e:	4642      	mov	r2, r8
10005950:	231f      	movs	r3, #31
10005952:	9215      	str	r2, [sp, #84]	@ 0x54
10005954:	4652      	mov	r2, sl
10005956:	4463      	add	r3, ip
10005958:	46a8      	mov	r8, r5
1000595a:	46ba      	mov	sl, r7
1000595c:	464d      	mov	r5, r9
1000595e:	9414      	str	r4, [sp, #80]	@ 0x50
10005960:	46b1      	mov	r9, r6
10005962:	0004      	movs	r4, r0
10005964:	001f      	movs	r7, r3
10005966:	9216      	str	r2, [sp, #88]	@ 0x58
10005968:	e001      	b.n	1000596e <_vsnprintf+0x91e>
1000596a:	2d20      	cmp	r5, #32
1000596c:	d00f      	beq.n	1000598e <_vsnprintf+0x93e>
1000596e:	0020      	movs	r0, r4
10005970:	210a      	movs	r1, #10
10005972:	f000 fa07 	bl	10005d84 <__wrap___aeabi_uidiv>
10005976:	3501      	adds	r5, #1
10005978:	197e      	adds	r6, r7, r5
1000597a:	3130      	adds	r1, #48	@ 0x30
1000597c:	7031      	strb	r1, [r6, #0]
1000597e:	0020      	movs	r0, r4
10005980:	210a      	movs	r1, #10
10005982:	f000 f9ff 	bl	10005d84 <__wrap___aeabi_uidiv>
10005986:	0026      	movs	r6, r4
10005988:	0004      	movs	r4, r0
1000598a:	2e09      	cmp	r6, #9
1000598c:	d8ed      	bhi.n	1000596a <_vsnprintf+0x91a>
1000598e:	9b15      	ldr	r3, [sp, #84]	@ 0x54
10005990:	464e      	mov	r6, r9
10005992:	46a9      	mov	r9, r5
10005994:	4645      	mov	r5, r8
10005996:	4698      	mov	r8, r3
10005998:	9b16      	ldr	r3, [sp, #88]	@ 0x58
1000599a:	4657      	mov	r7, sl
1000599c:	469a      	mov	sl, r3
1000599e:	9c14      	ldr	r4, [sp, #80]	@ 0x50
100059a0:	9b0f      	ldr	r3, [sp, #60]	@ 0x3c
100059a2:	9306      	str	r3, [sp, #24]
100059a4:	4643      	mov	r3, r8
100059a6:	9305      	str	r3, [sp, #20]
100059a8:	4653      	mov	r3, sl
100059aa:	9304      	str	r3, [sp, #16]
100059ac:	230a      	movs	r3, #10
100059ae:	9303      	str	r3, [sp, #12]
100059b0:	9b0d      	ldr	r3, [sp, #52]	@ 0x34
100059b2:	9302      	str	r3, [sp, #8]
100059b4:	464b      	mov	r3, r9
100059b6:	9301      	str	r3, [sp, #4]
100059b8:	ab1c      	add	r3, sp, #112	@ 0x70
100059ba:	0022      	movs	r2, r4
100059bc:	9300      	str	r3, [sp, #0]
100059be:	4659      	mov	r1, fp
100059c0:	0033      	movs	r3, r6
100059c2:	0028      	movs	r0, r5
100059c4:	f7fe fe02 	bl	100045cc <_ntoa_format>
100059c8:	9b0b      	ldr	r3, [sp, #44]	@ 0x2c
100059ca:	0004      	movs	r4, r0
100059cc:	930d      	str	r3, [sp, #52]	@ 0x34
100059ce:	f7ff fb67 	bl	100050a0 <_vsnprintf+0x50>
100059d2:	2207      	movs	r2, #7
100059d4:	9b0d      	ldr	r3, [sp, #52]	@ 0x34
100059d6:	3307      	adds	r3, #7
100059d8:	4393      	bics	r3, r2
100059da:	3201      	adds	r2, #1
100059dc:	4694      	mov	ip, r2
100059de:	449c      	add	ip, r3
100059e0:	4662      	mov	r2, ip
100059e2:	920d      	str	r2, [sp, #52]	@ 0x34
100059e4:	cb0c      	ldmia	r3, {r2, r3}
100059e6:	0fd9      	lsrs	r1, r3, #31
100059e8:	910b      	str	r1, [sp, #44]	@ 0x2c
100059ea:	0011      	movs	r1, r2
100059ec:	4319      	orrs	r1, r3
100059ee:	d100      	bne.n	100059f2 <_vsnprintf+0x9a2>
100059f0:	e09b      	b.n	10005b2a <_vsnprintf+0xada>
100059f2:	17d9      	asrs	r1, r3, #31
100059f4:	9113      	str	r1, [sp, #76]	@ 0x4c
100059f6:	9112      	str	r1, [sp, #72]	@ 0x48
100059f8:	4051      	eors	r1, r2
100059fa:	9110      	str	r1, [sp, #64]	@ 0x40
100059fc:	9913      	ldr	r1, [sp, #76]	@ 0x4c
100059fe:	4059      	eors	r1, r3
10005a00:	9111      	str	r1, [sp, #68]	@ 0x44
10005a02:	9810      	ldr	r0, [sp, #64]	@ 0x40
10005a04:	9911      	ldr	r1, [sp, #68]	@ 0x44
10005a06:	9a12      	ldr	r2, [sp, #72]	@ 0x48
10005a08:	9b13      	ldr	r3, [sp, #76]	@ 0x4c
10005a0a:	1a80      	subs	r0, r0, r2
10005a0c:	4199      	sbcs	r1, r3
10005a0e:	9010      	str	r0, [sp, #64]	@ 0x40
10005a10:	9111      	str	r1, [sp, #68]	@ 0x44
10005a12:	aa14      	add	r2, sp, #80	@ 0x50
10005a14:	4694      	mov	ip, r2
10005a16:	4642      	mov	r2, r8
10005a18:	2300      	movs	r3, #0
10005a1a:	9215      	str	r2, [sp, #84]	@ 0x54
10005a1c:	4652      	mov	r2, sl
10005a1e:	4699      	mov	r9, r3
10005a20:	9216      	str	r2, [sp, #88]	@ 0x58
10005a22:	0032      	movs	r2, r6
10005a24:	331f      	adds	r3, #31
10005a26:	4463      	add	r3, ip
10005a28:	46a8      	mov	r8, r5
10005a2a:	464e      	mov	r6, r9
10005a2c:	46ba      	mov	sl, r7
10005a2e:	9414      	str	r4, [sp, #80]	@ 0x50
10005a30:	001f      	movs	r7, r3
10005a32:	9c10      	ldr	r4, [sp, #64]	@ 0x40
10005a34:	9d11      	ldr	r5, [sp, #68]	@ 0x44
10005a36:	4691      	mov	r9, r2
10005a38:	e001      	b.n	10005a3e <_vsnprintf+0x9ee>
10005a3a:	2e20      	cmp	r6, #32
10005a3c:	d010      	beq.n	10005a60 <_vsnprintf+0xa10>
10005a3e:	0020      	movs	r0, r4
10005a40:	0029      	movs	r1, r5
10005a42:	220a      	movs	r2, #10
10005a44:	2300      	movs	r3, #0
10005a46:	f000 f9db 	bl	10005e00 <__wrap___aeabi_uldivmod>
10005a4a:	3601      	adds	r6, #1
10005a4c:	3230      	adds	r2, #48	@ 0x30
10005a4e:	002b      	movs	r3, r5
10005a50:	55ba      	strb	r2, [r7, r6]
10005a52:	000d      	movs	r5, r1
10005a54:	0022      	movs	r2, r4
10005a56:	0004      	movs	r4, r0
10005a58:	2b00      	cmp	r3, #0
10005a5a:	d1ee      	bne.n	10005a3a <_vsnprintf+0x9ea>
10005a5c:	2a09      	cmp	r2, #9
10005a5e:	d8ec      	bhi.n	10005a3a <_vsnprintf+0x9ea>
10005a60:	9b15      	ldr	r3, [sp, #84]	@ 0x54
10005a62:	9410      	str	r4, [sp, #64]	@ 0x40
10005a64:	9511      	str	r5, [sp, #68]	@ 0x44
10005a66:	4645      	mov	r5, r8
10005a68:	4698      	mov	r8, r3
10005a6a:	464b      	mov	r3, r9
10005a6c:	9a16      	ldr	r2, [sp, #88]	@ 0x58
10005a6e:	46b1      	mov	r9, r6
10005a70:	4657      	mov	r7, sl
10005a72:	001e      	movs	r6, r3
10005a74:	4692      	mov	sl, r2
10005a76:	9c14      	ldr	r4, [sp, #80]	@ 0x50
10005a78:	9b0f      	ldr	r3, [sp, #60]	@ 0x3c
10005a7a:	9306      	str	r3, [sp, #24]
10005a7c:	4643      	mov	r3, r8
10005a7e:	9305      	str	r3, [sp, #20]
10005a80:	4653      	mov	r3, sl
10005a82:	9304      	str	r3, [sp, #16]
10005a84:	230a      	movs	r3, #10
10005a86:	9303      	str	r3, [sp, #12]
10005a88:	9b0b      	ldr	r3, [sp, #44]	@ 0x2c
10005a8a:	9302      	str	r3, [sp, #8]
10005a8c:	464b      	mov	r3, r9
10005a8e:	e71c      	b.n	100058ca <_vsnprintf+0x87a>
10005a90:	2800      	cmp	r0, #0
10005a92:	d185      	bne.n	100059a0 <_vsnprintf+0x950>
10005a94:	e759      	b.n	1000594a <_vsnprintf+0x8fa>
10005a96:	9b0d      	ldr	r3, [sp, #52]	@ 0x34
10005a98:	681b      	ldr	r3, [r3, #0]
10005a9a:	0fda      	lsrs	r2, r3, #31
10005a9c:	0011      	movs	r1, r2
10005a9e:	2b00      	cmp	r3, #0
10005aa0:	d100      	bne.n	10005aa4 <_vsnprintf+0xa54>
10005aa2:	e0a6      	b.n	10005bf2 <_vsnprintf+0xba2>
10005aa4:	17da      	asrs	r2, r3, #31
10005aa6:	1898      	adds	r0, r3, r2
10005aa8:	4050      	eors	r0, r2
10005aaa:	aa14      	add	r2, sp, #80	@ 0x50
10005aac:	4691      	mov	r9, r2
10005aae:	231f      	movs	r3, #31
10005ab0:	4642      	mov	r2, r8
10005ab2:	444b      	add	r3, r9
10005ab4:	46a8      	mov	r8, r5
10005ab6:	940d      	str	r4, [sp, #52]	@ 0x34
10005ab8:	9716      	str	r7, [sp, #88]	@ 0x58
10005aba:	0004      	movs	r4, r0
10005abc:	4665      	mov	r5, ip
10005abe:	46b1      	mov	r9, r6
10005ac0:	001f      	movs	r7, r3
10005ac2:	9114      	str	r1, [sp, #80]	@ 0x50
10005ac4:	9215      	str	r2, [sp, #84]	@ 0x54
10005ac6:	e001      	b.n	10005acc <_vsnprintf+0xa7c>
10005ac8:	2d20      	cmp	r5, #32
10005aca:	d00f      	beq.n	10005aec <_vsnprintf+0xa9c>
10005acc:	0020      	movs	r0, r4
10005ace:	210a      	movs	r1, #10
10005ad0:	f000 f958 	bl	10005d84 <__wrap___aeabi_uidiv>
10005ad4:	3501      	adds	r5, #1
10005ad6:	197e      	adds	r6, r7, r5
10005ad8:	3130      	adds	r1, #48	@ 0x30
10005ada:	7031      	strb	r1, [r6, #0]
10005adc:	0020      	movs	r0, r4
10005ade:	210a      	movs	r1, #10
10005ae0:	f000 f950 	bl	10005d84 <__wrap___aeabi_uidiv>
10005ae4:	0026      	movs	r6, r4
10005ae6:	0004      	movs	r4, r0
10005ae8:	2e09      	cmp	r6, #9
10005aea:	d8ed      	bhi.n	10005ac8 <_vsnprintf+0xa78>
10005aec:	9b15      	ldr	r3, [sp, #84]	@ 0x54
10005aee:	46ac      	mov	ip, r5
10005af0:	4645      	mov	r5, r8
10005af2:	4698      	mov	r8, r3
10005af4:	9b14      	ldr	r3, [sp, #80]	@ 0x50
10005af6:	464e      	mov	r6, r9
10005af8:	0019      	movs	r1, r3
10005afa:	9c0d      	ldr	r4, [sp, #52]	@ 0x34
10005afc:	9f16      	ldr	r7, [sp, #88]	@ 0x58
10005afe:	9b0f      	ldr	r3, [sp, #60]	@ 0x3c
10005b00:	9102      	str	r1, [sp, #8]
10005b02:	9306      	str	r3, [sp, #24]
10005b04:	4643      	mov	r3, r8
10005b06:	9305      	str	r3, [sp, #20]
10005b08:	4653      	mov	r3, sl
10005b0a:	9304      	str	r3, [sp, #16]
10005b0c:	230a      	movs	r3, #10
10005b0e:	9303      	str	r3, [sp, #12]
10005b10:	4663      	mov	r3, ip
10005b12:	e750      	b.n	100059b6 <_vsnprintf+0x966>
10005b14:	0013      	movs	r3, r2
10005b16:	061b      	lsls	r3, r3, #24
10005b18:	d56e      	bpl.n	10005bf8 <_vsnprintf+0xba8>
10005b1a:	9b0d      	ldr	r3, [sp, #52]	@ 0x34
10005b1c:	2200      	movs	r2, #0
10005b1e:	5e9b      	ldrsh	r3, [r3, r2]
10005b20:	17d9      	asrs	r1, r3, #31
10005b22:	185a      	adds	r2, r3, r1
10005b24:	404a      	eors	r2, r1
10005b26:	b292      	uxth	r2, r2
10005b28:	e709      	b.n	1000593e <_vsnprintf+0x8ee>
10005b2a:	2300      	movs	r3, #0
10005b2c:	4699      	mov	r9, r3
10005b2e:	2800      	cmp	r0, #0
10005b30:	d1a2      	bne.n	10005a78 <_vsnprintf+0xa28>
10005b32:	2200      	movs	r2, #0
10005b34:	2300      	movs	r3, #0
10005b36:	9210      	str	r2, [sp, #64]	@ 0x40
10005b38:	9311      	str	r3, [sp, #68]	@ 0x44
10005b3a:	e76a      	b.n	10005a12 <_vsnprintf+0x9c2>
10005b3c:	9b0d      	ldr	r3, [sp, #52]	@ 0x34
10005b3e:	681b      	ldr	r3, [r3, #0]
10005b40:	4699      	mov	r9, r3
10005b42:	2b00      	cmp	r3, #0
10005b44:	d103      	bne.n	10005b4e <_vsnprintf+0xafe>
10005b46:	3310      	adds	r3, #16
10005b48:	4398      	bics	r0, r3
10005b4a:	2900      	cmp	r1, #0
10005b4c:	d138      	bne.n	10005bc0 <_vsnprintf+0xb70>
10005b4e:	2361      	movs	r3, #97	@ 0x61
10005b50:	0682      	lsls	r2, r0, #26
10005b52:	d500      	bpl.n	10005b56 <_vsnprintf+0xb06>
10005b54:	2341      	movs	r3, #65	@ 0x41
10005b56:	b2db      	uxtb	r3, r3
10005b58:	3b0a      	subs	r3, #10
10005b5a:	930d      	str	r3, [sp, #52]	@ 0x34
10005b5c:	4643      	mov	r3, r8
10005b5e:	9316      	str	r3, [sp, #88]	@ 0x58
10005b60:	4653      	mov	r3, sl
10005b62:	a914      	add	r1, sp, #80	@ 0x50
10005b64:	221f      	movs	r2, #31
10005b66:	468c      	mov	ip, r1
10005b68:	9317      	str	r3, [sp, #92]	@ 0x5c
10005b6a:	002b      	movs	r3, r5
10005b6c:	4462      	add	r2, ip
10005b6e:	464d      	mov	r5, r9
10005b70:	46b2      	mov	sl, r6
10005b72:	9415      	str	r4, [sp, #84]	@ 0x54
10005b74:	9718      	str	r7, [sp, #96]	@ 0x60
10005b76:	4680      	mov	r8, r0
10005b78:	0017      	movs	r7, r2
10005b7a:	4699      	mov	r9, r3
10005b7c:	9c0b      	ldr	r4, [sp, #44]	@ 0x2c
10005b7e:	9e0f      	ldr	r6, [sp, #60]	@ 0x3c
10005b80:	e008      	b.n	10005b94 <_vsnprintf+0xb44>
10005b82:	3330      	adds	r3, #48	@ 0x30
10005b84:	b2db      	uxtb	r3, r3
10005b86:	3401      	adds	r4, #1
10005b88:	553b      	strb	r3, [r7, r4]
10005b8a:	42b5      	cmp	r5, r6
10005b8c:	d30e      	bcc.n	10005bac <_vsnprintf+0xb5c>
10005b8e:	2c20      	cmp	r4, #32
10005b90:	d00c      	beq.n	10005bac <_vsnprintf+0xb5c>
10005b92:	0005      	movs	r5, r0
10005b94:	0031      	movs	r1, r6
10005b96:	0028      	movs	r0, r5
10005b98:	f000 f8f4 	bl	10005d84 <__wrap___aeabi_uidiv>
10005b9c:	b2cb      	uxtb	r3, r1
10005b9e:	2909      	cmp	r1, #9
10005ba0:	d9ef      	bls.n	10005b82 <_vsnprintf+0xb32>
10005ba2:	9a0d      	ldr	r2, [sp, #52]	@ 0x34
10005ba4:	4694      	mov	ip, r2
10005ba6:	4463      	add	r3, ip
10005ba8:	b2db      	uxtb	r3, r3
10005baa:	e7ec      	b.n	10005b86 <_vsnprintf+0xb36>
10005bac:	9b16      	ldr	r3, [sp, #88]	@ 0x58
10005bae:	4640      	mov	r0, r8
10005bb0:	4698      	mov	r8, r3
10005bb2:	9b17      	ldr	r3, [sp, #92]	@ 0x5c
10005bb4:	4656      	mov	r6, sl
10005bb6:	464d      	mov	r5, r9
10005bb8:	469a      	mov	sl, r3
10005bba:	940b      	str	r4, [sp, #44]	@ 0x2c
10005bbc:	9f18      	ldr	r7, [sp, #96]	@ 0x60
10005bbe:	9c15      	ldr	r4, [sp, #84]	@ 0x54
10005bc0:	4643      	mov	r3, r8
10005bc2:	9305      	str	r3, [sp, #20]
10005bc4:	4653      	mov	r3, sl
10005bc6:	9304      	str	r3, [sp, #16]
10005bc8:	9b0f      	ldr	r3, [sp, #60]	@ 0x3c
10005bca:	9006      	str	r0, [sp, #24]
10005bcc:	9303      	str	r3, [sp, #12]
10005bce:	2300      	movs	r3, #0
10005bd0:	9302      	str	r3, [sp, #8]
10005bd2:	9b0b      	ldr	r3, [sp, #44]	@ 0x2c
10005bd4:	e50b      	b.n	100055ee <_vsnprintf+0x59e>
10005bd6:	990b      	ldr	r1, [sp, #44]	@ 0x2c
10005bd8:	2380      	movs	r3, #128	@ 0x80
10005bda:	000a      	movs	r2, r1
10005bdc:	00db      	lsls	r3, r3, #3
10005bde:	401a      	ands	r2, r3
10005be0:	0010      	movs	r0, r2
10005be2:	000a      	movs	r2, r1
10005be4:	4219      	tst	r1, r3
10005be6:	d000      	beq.n	10005bea <_vsnprintf+0xb9a>
10005be8:	e68b      	b.n	10005902 <_vsnprintf+0x8b2>
10005bea:	2310      	movs	r3, #16
10005bec:	439a      	bics	r2, r3
10005bee:	920f      	str	r2, [sp, #60]	@ 0x3c
10005bf0:	e68b      	b.n	1000590a <_vsnprintf+0x8ba>
10005bf2:	2800      	cmp	r0, #0
10005bf4:	d183      	bne.n	10005afe <_vsnprintf+0xaae>
10005bf6:	e758      	b.n	10005aaa <_vsnprintf+0xa5a>
10005bf8:	9b0d      	ldr	r3, [sp, #52]	@ 0x34
10005bfa:	681b      	ldr	r3, [r3, #0]
10005bfc:	17d9      	asrs	r1, r3, #31
10005bfe:	185a      	adds	r2, r3, r1
10005c00:	404a      	eors	r2, r1
10005c02:	e69c      	b.n	1000593e <_vsnprintf+0x8ee>
10005c04:	9b0d      	ldr	r3, [sp, #52]	@ 0x34
10005c06:	681b      	ldr	r3, [r3, #0]
10005c08:	9309      	str	r3, [sp, #36]	@ 0x24
10005c0a:	e4dc      	b.n	100055c6 <_vsnprintf+0x576>
10005c0c:	0003      	movs	r3, r0
10005c0e:	3301      	adds	r3, #1
10005c10:	930f      	str	r3, [sp, #60]	@ 0x3c
10005c12:	e5a5      	b.n	10005760 <_vsnprintf+0x710>
10005c14:	920b      	str	r2, [sp, #44]	@ 0x2c
10005c16:	e46d      	b.n	100054f4 <_vsnprintf+0x4a4>

10005c18 <__wrap_sprintf>:
10005c18:	b40e      	push	{r1, r2, r3}
10005c1a:	2201      	movs	r2, #1
10005c1c:	b530      	push	{r4, r5, lr}
10005c1e:	b084      	sub	sp, #16
10005c20:	ac07      	add	r4, sp, #28
10005c22:	cc08      	ldmia	r4!, {r3}
10005c24:	4d06      	ldr	r5, [pc, #24]	@ (10005c40 <__wrap_sprintf+0x28>)
10005c26:	0001      	movs	r1, r0
10005c28:	9400      	str	r4, [sp, #0]
10005c2a:	0028      	movs	r0, r5
10005c2c:	4252      	negs	r2, r2
10005c2e:	9403      	str	r4, [sp, #12]
10005c30:	f7ff fa0e 	bl	10005050 <_vsnprintf>
10005c34:	b004      	add	sp, #16
10005c36:	bc30      	pop	{r4, r5}
10005c38:	bc08      	pop	{r3}
10005c3a:	b003      	add	sp, #12
10005c3c:	4718      	bx	r3
10005c3e:	46c0      	nop			@ (mov r8, r8)
10005c40:	10004515 	.word	0x10004515

10005c44 <weak_raw_printf>:
10005c44:	b40f      	push	{r0, r1, r2, r3}
10005c46:	b530      	push	{r4, r5, lr}
10005c48:	490c      	ldr	r1, [pc, #48]	@ (10005c7c <weak_raw_printf+0x38>)
10005c4a:	b085      	sub	sp, #20
10005c4c:	aa08      	add	r2, sp, #32
10005c4e:	ca08      	ldmia	r2!, {r3}
10005c50:	680d      	ldr	r5, [r1, #0]
10005c52:	9203      	str	r2, [sp, #12]
10005c54:	2d00      	cmp	r5, #0
10005c56:	d00c      	beq.n	10005c72 <weak_raw_printf+0x2e>
10005c58:	9200      	str	r2, [sp, #0]
10005c5a:	2201      	movs	r2, #1
10005c5c:	4c08      	ldr	r4, [pc, #32]	@ (10005c80 <weak_raw_printf+0x3c>)
10005c5e:	4252      	negs	r2, r2
10005c60:	0020      	movs	r0, r4
10005c62:	a902      	add	r1, sp, #8
10005c64:	47a8      	blx	r5
10005c66:	2001      	movs	r0, #1
10005c68:	b005      	add	sp, #20
10005c6a:	bc30      	pop	{r4, r5}
10005c6c:	bc08      	pop	{r3}
10005c6e:	b004      	add	sp, #16
10005c70:	4718      	bx	r3
10005c72:	0018      	movs	r0, r3
10005c74:	f001 f93c 	bl	10006ef0 <__wrap_puts>
10005c78:	2000      	movs	r0, #0
10005c7a:	e7f5      	b.n	10005c68 <weak_raw_printf+0x24>
10005c7c:	20003478 	.word	0x20003478
10005c80:	1000481d 	.word	0x1000481d

10005c84 <weak_raw_vprintf>:
10005c84:	b510      	push	{r4, lr}
10005c86:	4a09      	ldr	r2, [pc, #36]	@ (10005cac <weak_raw_vprintf+0x28>)
10005c88:	0003      	movs	r3, r0
10005c8a:	6814      	ldr	r4, [r2, #0]
10005c8c:	b084      	sub	sp, #16
10005c8e:	2c00      	cmp	r4, #0
10005c90:	d008      	beq.n	10005ca4 <weak_raw_vprintf+0x20>
10005c92:	2201      	movs	r2, #1
10005c94:	9100      	str	r1, [sp, #0]
10005c96:	4806      	ldr	r0, [pc, #24]	@ (10005cb0 <weak_raw_vprintf+0x2c>)
10005c98:	4252      	negs	r2, r2
10005c9a:	a903      	add	r1, sp, #12
10005c9c:	47a0      	blx	r4
10005c9e:	2001      	movs	r0, #1
10005ca0:	b004      	add	sp, #16
10005ca2:	bd10      	pop	{r4, pc}
10005ca4:	f001 f924 	bl	10006ef0 <__wrap_puts>
10005ca8:	2000      	movs	r0, #0
10005caa:	e7f9      	b.n	10005ca0 <weak_raw_vprintf+0x1c>
10005cac:	20003478 	.word	0x20003478
10005cb0:	1000481d 	.word	0x1000481d

10005cb4 <__aeabi_bits_init>:
10005cb4:	4801      	ldr	r0, [pc, #4]	@ (10005cbc <__aeabi_bits_init+0x8>)
10005cb6:	2104      	movs	r1, #4
10005cb8:	4b01      	ldr	r3, [pc, #4]	@ (10005cc0 <__aeabi_bits_init+0xc>)
10005cba:	4718      	bx	r3
10005cbc:	20001e50 	.word	0x20001e50
10005cc0:	10005cf1 	.word	0x10005cf1

10005cc4 <__wrap___clz>:
10005cc4:	4b01      	ldr	r3, [pc, #4]	@ (10005ccc <__wrap___clz+0x8>)
10005cc6:	685b      	ldr	r3, [r3, #4]
10005cc8:	4718      	bx	r3
10005cca:	0000      	.short	0x0000
10005ccc:	20001e50 	.word	0x20001e50

10005cd0 <rom_func_lookup>:
10005cd0:	2314      	movs	r3, #20
10005cd2:	b510      	push	{r4, lr}
10005cd4:	0001      	movs	r1, r0
10005cd6:	8818      	ldrh	r0, [r3, #0]
10005cd8:	3304      	adds	r3, #4
10005cda:	881b      	ldrh	r3, [r3, #0]
10005cdc:	4798      	blx	r3
10005cde:	bd10      	pop	{r4, pc}

10005ce0 <rom_data_lookup>:
10005ce0:	2316      	movs	r3, #22
10005ce2:	b510      	push	{r4, lr}
10005ce4:	0001      	movs	r1, r0
10005ce6:	8818      	ldrh	r0, [r3, #0]
10005ce8:	3302      	adds	r3, #2
10005cea:	881b      	ldrh	r3, [r3, #0]
10005cec:	4798      	blx	r3
10005cee:	bd10      	pop	{r4, pc}

10005cf0 <rom_funcs_lookup>:
10005cf0:	b5f8      	push	{r3, r4, r5, r6, r7, lr}
10005cf2:	4647      	mov	r7, r8
10005cf4:	46ce      	mov	lr, r9
10005cf6:	b580      	push	{r7, lr}
10005cf8:	1e0f      	subs	r7, r1, #0
10005cfa:	d019      	beq.n	10005d30 <rom_funcs_lookup+0x40>
10005cfc:	2314      	movs	r3, #20
10005cfe:	4699      	mov	r9, r3
10005d00:	3304      	adds	r3, #4
10005d02:	0004      	movs	r4, r0
10005d04:	2500      	movs	r5, #0
10005d06:	2601      	movs	r6, #1
10005d08:	4698      	mov	r8, r3
10005d0a:	464b      	mov	r3, r9
10005d0c:	8818      	ldrh	r0, [r3, #0]
10005d0e:	4643      	mov	r3, r8
10005d10:	6821      	ldr	r1, [r4, #0]
10005d12:	881b      	ldrh	r3, [r3, #0]
10005d14:	4798      	blx	r3
10005d16:	c401      	stmia	r4!, {r0}
10005d18:	1e43      	subs	r3, r0, #1
10005d1a:	4198      	sbcs	r0, r3
10005d1c:	3501      	adds	r5, #1
10005d1e:	4240      	negs	r0, r0
10005d20:	4006      	ands	r6, r0
10005d22:	42af      	cmp	r7, r5
10005d24:	d1f1      	bne.n	10005d0a <rom_funcs_lookup+0x1a>
10005d26:	0030      	movs	r0, r6
10005d28:	bcc0      	pop	{r6, r7}
10005d2a:	46b9      	mov	r9, r7
10005d2c:	46b0      	mov	r8, r6
10005d2e:	bdf8      	pop	{r3, r4, r5, r6, r7, pc}
10005d30:	2601      	movs	r6, #1
10005d32:	e7f8      	b.n	10005d26 <rom_funcs_lookup+0x36>

10005d34 <__wrap___aeabi_idiv>:
10005d34:	4a12      	ldr	r2, [pc, #72]	@ (10005d80 <divmod_s32s32_savestate+0x18>)
10005d36:	6f93      	ldr	r3, [r2, #120]	@ 0x78
10005d38:	089b      	lsrs	r3, r3, #2
10005d3a:	d215      	bcs.n	10005d68 <divmod_s32s32_savestate>

10005d3c <divmod_s32s32_unsafe>:
10005d3c:	6690      	str	r0, [r2, #104]	@ 0x68
10005d3e:	66d1      	str	r1, [r2, #108]	@ 0x6c
10005d40:	2900      	cmp	r1, #0
10005d42:	d005      	beq.n	10005d50 <divmod_s32s32_unsafe+0x14>
10005d44:	e7ff      	b.n	10005d46 <divmod_s32s32_unsafe+0xa>
10005d46:	e7ff      	b.n	10005d48 <divmod_s32s32_unsafe+0xc>
10005d48:	e7ff      	b.n	10005d4a <divmod_s32s32_unsafe+0xe>
10005d4a:	6f51      	ldr	r1, [r2, #116]	@ 0x74
10005d4c:	6f10      	ldr	r0, [r2, #112]	@ 0x70
10005d4e:	4770      	bx	lr
10005d50:	b504      	push	{r2, lr}
10005d52:	2180      	movs	r1, #128	@ 0x80
10005d54:	0609      	lsls	r1, r1, #24
10005d56:	17c2      	asrs	r2, r0, #31
10005d58:	4051      	eors	r1, r2
10005d5a:	2800      	cmp	r0, #0
10005d5c:	d000      	beq.n	10005d60 <divmod_s32s32_unsafe+0x24>
10005d5e:	43c8      	mvns	r0, r1
10005d60:	f013 fc3a 	bl	100195d8 <____aeabi_idiv0_veneer>
10005d64:	2100      	movs	r1, #0
10005d66:	bd04      	pop	{r2, pc}

10005d68 <divmod_s32s32_savestate>:
10005d68:	b5f0      	push	{r4, r5, r6, r7, lr}
10005d6a:	6e14      	ldr	r4, [r2, #96]	@ 0x60
10005d6c:	6e55      	ldr	r5, [r2, #100]	@ 0x64
10005d6e:	6f57      	ldr	r7, [r2, #116]	@ 0x74
10005d70:	6f16      	ldr	r6, [r2, #112]	@ 0x70
10005d72:	f7ff ffe3 	bl	10005d3c <divmod_s32s32_unsafe>
10005d76:	6614      	str	r4, [r2, #96]	@ 0x60
10005d78:	6655      	str	r5, [r2, #100]	@ 0x64
10005d7a:	6757      	str	r7, [r2, #116]	@ 0x74
10005d7c:	6716      	str	r6, [r2, #112]	@ 0x70
10005d7e:	bdf0      	pop	{r4, r5, r6, r7, pc}
10005d80:	d0000000 	.word	0xd0000000

10005d84 <__wrap___aeabi_uidiv>:
10005d84:	4a11      	ldr	r2, [pc, #68]	@ (10005dcc <divmod_u32u32_savestate+0x18>)
10005d86:	6f93      	ldr	r3, [r2, #120]	@ 0x78
10005d88:	089b      	lsrs	r3, r3, #2
10005d8a:	d213      	bcs.n	10005db4 <divmod_u32u32_savestate>

10005d8c <divmod_u32u32_unsafe>:
10005d8c:	6610      	str	r0, [r2, #96]	@ 0x60
10005d8e:	6651      	str	r1, [r2, #100]	@ 0x64
10005d90:	2900      	cmp	r1, #0
10005d92:	d005      	beq.n	10005da0 <divmod_u32u32_unsafe+0x14>
10005d94:	e7ff      	b.n	10005d96 <divmod_u32u32_unsafe+0xa>
10005d96:	e7ff      	b.n	10005d98 <divmod_u32u32_unsafe+0xc>
10005d98:	e7ff      	b.n	10005d9a <divmod_u32u32_unsafe+0xe>
10005d9a:	6f51      	ldr	r1, [r2, #116]	@ 0x74
10005d9c:	6f10      	ldr	r0, [r2, #112]	@ 0x70
10005d9e:	4770      	bx	lr
10005da0:	b504      	push	{r2, lr}
10005da2:	2800      	cmp	r0, #0
10005da4:	d001      	beq.n	10005daa <divmod_u32u32_unsafe+0x1e>
10005da6:	2000      	movs	r0, #0
10005da8:	43c0      	mvns	r0, r0
10005daa:	f013 fc15 	bl	100195d8 <____aeabi_idiv0_veneer>
10005dae:	2100      	movs	r1, #0
10005db0:	bd04      	pop	{r2, pc}
10005db2:	46c0      	nop			@ (mov r8, r8)

10005db4 <divmod_u32u32_savestate>:
10005db4:	b5f0      	push	{r4, r5, r6, r7, lr}
10005db6:	6e14      	ldr	r4, [r2, #96]	@ 0x60
10005db8:	6e55      	ldr	r5, [r2, #100]	@ 0x64
10005dba:	6f57      	ldr	r7, [r2, #116]	@ 0x74
10005dbc:	6f16      	ldr	r6, [r2, #112]	@ 0x70
10005dbe:	f7ff ffe5 	bl	10005d8c <divmod_u32u32_unsafe>
10005dc2:	6614      	str	r4, [r2, #96]	@ 0x60
10005dc4:	6655      	str	r5, [r2, #100]	@ 0x64
10005dc6:	6757      	str	r7, [r2, #116]	@ 0x74
10005dc8:	6716      	str	r6, [r2, #112]	@ 0x70
10005dca:	bdf0      	pop	{r4, r5, r6, r7, pc}
10005dcc:	d0000000 	.word	0xd0000000

10005dd0 <__wrap___aeabi_ldivmod>:
10005dd0:	4694      	mov	ip, r2
10005dd2:	4a4a      	ldr	r2, [pc, #296]	@ (10005efc <udiv0+0x1a>)
10005dd4:	6f92      	ldr	r2, [r2, #120]	@ 0x78
10005dd6:	0892      	lsrs	r2, r2, #2
10005dd8:	4662      	mov	r2, ip
10005dda:	d201      	bcs.n	10005de0 <divmod_s64s64_savestate>
10005ddc:	e028      	b.n	10005e30 <divmod_s64s64_unsafe>
10005dde:	46c0      	nop			@ (mov r8, r8)

10005de0 <divmod_s64s64_savestate>:
10005de0:	b5f0      	push	{r4, r5, r6, r7, lr}
10005de2:	4e46      	ldr	r6, [pc, #280]	@ (10005efc <udiv0+0x1a>)
10005de4:	6e34      	ldr	r4, [r6, #96]	@ 0x60
10005de6:	6e75      	ldr	r5, [r6, #100]	@ 0x64
10005de8:	6f77      	ldr	r7, [r6, #116]	@ 0x74
10005dea:	6f36      	ldr	r6, [r6, #112]	@ 0x70
10005dec:	f000 f820 	bl	10005e30 <divmod_s64s64_unsafe>
10005df0:	4694      	mov	ip, r2
10005df2:	4a42      	ldr	r2, [pc, #264]	@ (10005efc <udiv0+0x1a>)
10005df4:	6614      	str	r4, [r2, #96]	@ 0x60
10005df6:	6655      	str	r5, [r2, #100]	@ 0x64
10005df8:	6757      	str	r7, [r2, #116]	@ 0x74
10005dfa:	6716      	str	r6, [r2, #112]	@ 0x70
10005dfc:	4662      	mov	r2, ip
10005dfe:	bdf0      	pop	{r4, r5, r6, r7, pc}

10005e00 <__wrap___aeabi_uldivmod>:
10005e00:	4694      	mov	ip, r2
10005e02:	4a3e      	ldr	r2, [pc, #248]	@ (10005efc <udiv0+0x1a>)
10005e04:	6f92      	ldr	r2, [r2, #120]	@ 0x78
10005e06:	0892      	lsrs	r2, r2, #2
10005e08:	4662      	mov	r2, ip
10005e0a:	d201      	bcs.n	10005e10 <divmod_u64u64_savestate>
10005e0c:	e054      	b.n	10005eb8 <divmod_u64u64_unsafe>
10005e0e:	46c0      	nop			@ (mov r8, r8)

10005e10 <divmod_u64u64_savestate>:
10005e10:	b5f0      	push	{r4, r5, r6, r7, lr}
10005e12:	4e3a      	ldr	r6, [pc, #232]	@ (10005efc <udiv0+0x1a>)
10005e14:	6e34      	ldr	r4, [r6, #96]	@ 0x60
10005e16:	6e75      	ldr	r5, [r6, #100]	@ 0x64
10005e18:	6f77      	ldr	r7, [r6, #116]	@ 0x74
10005e1a:	6f36      	ldr	r6, [r6, #112]	@ 0x70
10005e1c:	f000 f84c 	bl	10005eb8 <divmod_u64u64_unsafe>
10005e20:	4694      	mov	ip, r2
10005e22:	4a36      	ldr	r2, [pc, #216]	@ (10005efc <udiv0+0x1a>)
10005e24:	6614      	str	r4, [r2, #96]	@ 0x60
10005e26:	6655      	str	r5, [r2, #100]	@ 0x64
10005e28:	6757      	str	r7, [r2, #116]	@ 0x74
10005e2a:	6716      	str	r6, [r2, #112]	@ 0x70
10005e2c:	4662      	mov	r2, ip
10005e2e:	bdf0      	pop	{r4, r5, r6, r7, pc}

10005e30 <divmod_s64s64_unsafe>:
10005e30:	2b00      	cmp	r3, #0
10005e32:	db24      	blt.n	10005e7e <l42_1+0x26>
10005e34:	d011      	beq.n	10005e5a <l42_1+0x2>
10005e36:	2900      	cmp	r1, #0
10005e38:	da3e      	bge.n	10005eb8 <divmod_u64u64_unsafe>
10005e3a:	b500      	push	{lr}
10005e3c:	43c9      	mvns	r1, r1
10005e3e:	4240      	negs	r0, r0
10005e40:	d100      	bne.n	10005e44 <l40_1>
10005e42:	3101      	adds	r1, #1

10005e44 <l40_1>:
10005e44:	f000 f838 	bl	10005eb8 <divmod_u64u64_unsafe>
10005e48:	43c9      	mvns	r1, r1
10005e4a:	4240      	negs	r0, r0
10005e4c:	d100      	bne.n	10005e50 <l41_1>
10005e4e:	3101      	adds	r1, #1

10005e50 <l41_1>:
10005e50:	43db      	mvns	r3, r3
10005e52:	4252      	negs	r2, r2
10005e54:	d100      	bne.n	10005e58 <l42_1>
10005e56:	3301      	adds	r3, #1

10005e58 <l42_1>:
10005e58:	bd00      	pop	{pc}
10005e5a:	2a00      	cmp	r2, #0
10005e5c:	d1eb      	bne.n	10005e36 <divmod_s64s64_unsafe+0x6>
10005e5e:	2800      	cmp	r0, #0
10005e60:	d101      	bne.n	10005e66 <l42_1+0xe>
10005e62:	2900      	cmp	r1, #0
10005e64:	d005      	beq.n	10005e72 <l42_1+0x1a>
10005e66:	2000      	movs	r0, #0
10005e68:	0fc9      	lsrs	r1, r1, #31
10005e6a:	07c9      	lsls	r1, r1, #31
10005e6c:	d101      	bne.n	10005e72 <l42_1+0x1a>
10005e6e:	43c0      	mvns	r0, r0
10005e70:	0841      	lsrs	r1, r0, #1
10005e72:	b500      	push	{lr}
10005e74:	f013 fb80 	bl	10019578 <____aeabi_ldiv0_veneer>
10005e78:	2200      	movs	r2, #0
10005e7a:	2300      	movs	r3, #0
10005e7c:	bd00      	pop	{pc}
10005e7e:	b500      	push	{lr}
10005e80:	2900      	cmp	r1, #0
10005e82:	db0a      	blt.n	10005e9a <l44_1+0x2>
10005e84:	43db      	mvns	r3, r3
10005e86:	4252      	negs	r2, r2
10005e88:	d100      	bne.n	10005e8c <l43_1>
10005e8a:	3301      	adds	r3, #1

10005e8c <l43_1>:
10005e8c:	f000 f814 	bl	10005eb8 <divmod_u64u64_unsafe>
10005e90:	43c9      	mvns	r1, r1
10005e92:	4240      	negs	r0, r0
10005e94:	d100      	bne.n	10005e98 <l44_1>
10005e96:	3101      	adds	r1, #1

10005e98 <l44_1>:
10005e98:	bd00      	pop	{pc}
10005e9a:	43c9      	mvns	r1, r1
10005e9c:	4240      	negs	r0, r0
10005e9e:	d100      	bne.n	10005ea2 <l45_1>
10005ea0:	3101      	adds	r1, #1

10005ea2 <l45_1>:
10005ea2:	43db      	mvns	r3, r3
10005ea4:	4252      	negs	r2, r2
10005ea6:	d100      	bne.n	10005eaa <l46_1>
10005ea8:	3301      	adds	r3, #1

10005eaa <l46_1>:
10005eaa:	f000 f805 	bl	10005eb8 <divmod_u64u64_unsafe>
10005eae:	43db      	mvns	r3, r3
10005eb0:	4252      	negs	r2, r2
10005eb2:	d100      	bne.n	10005eb6 <l47_1>
10005eb4:	3301      	adds	r3, #1

10005eb6 <l47_1>:
10005eb6:	bd00      	pop	{pc}

10005eb8 <divmod_u64u64_unsafe>:
10005eb8:	2900      	cmp	r1, #0
10005eba:	d123      	bne.n	10005f04 <y64>
10005ebc:	2b00      	cmp	r3, #0
10005ebe:	d118      	bne.n	10005ef2 <udiv0+0x10>
10005ec0:	2a00      	cmp	r2, #0
10005ec2:	d00c      	beq.n	10005ede <divmod_u64u64_unsafe+0x26>
10005ec4:	46bc      	mov	ip, r7
10005ec6:	4f0d      	ldr	r7, [pc, #52]	@ (10005efc <udiv0+0x1a>)
10005ec8:	6638      	str	r0, [r7, #96]	@ 0x60
10005eca:	667a      	str	r2, [r7, #100]	@ 0x64
10005ecc:	2100      	movs	r1, #0
10005ece:	2300      	movs	r3, #0
10005ed0:	e7ff      	b.n	10005ed2 <divmod_u64u64_unsafe+0x1a>
10005ed2:	e7ff      	b.n	10005ed4 <divmod_u64u64_unsafe+0x1c>
10005ed4:	e7ff      	b.n	10005ed6 <divmod_u64u64_unsafe+0x1e>
10005ed6:	6f7a      	ldr	r2, [r7, #116]	@ 0x74
10005ed8:	6f38      	ldr	r0, [r7, #112]	@ 0x70
10005eda:	4667      	mov	r7, ip
10005edc:	4770      	bx	lr
10005ede:	2800      	cmp	r0, #0
10005ee0:	d001      	beq.n	10005ee6 <udiv0+0x4>

10005ee2 <udiv0>:
10005ee2:	4807      	ldr	r0, [pc, #28]	@ (10005f00 <udiv0+0x1e>)
10005ee4:	0001      	movs	r1, r0
10005ee6:	b500      	push	{lr}
10005ee8:	f013 fb46 	bl	10019578 <____aeabi_ldiv0_veneer>
10005eec:	2200      	movs	r2, #0
10005eee:	2300      	movs	r3, #0
10005ef0:	bd00      	pop	{pc}
10005ef2:	0002      	movs	r2, r0
10005ef4:	000b      	movs	r3, r1
10005ef6:	2000      	movs	r0, #0
10005ef8:	2100      	movs	r1, #0
10005efa:	4770      	bx	lr
10005efc:	d0000000 	.word	0xd0000000
10005f00:	ffffffff 	.word	0xffffffff

10005f04 <y64>:
10005f04:	2b00      	cmp	r3, #0
10005f06:	d000      	beq.n	10005f0a <y64+0x6>
10005f08:	e0bf      	b.n	1000608a <y64_x48>
10005f0a:	0c13      	lsrs	r3, r2, #16
10005f0c:	d128      	bne.n	10005f60 <y64_x32>
10005f0e:	2a00      	cmp	r2, #0
10005f10:	d0e7      	beq.n	10005ee2 <udiv0>
10005f12:	b480      	push	{r7}
10005f14:	4f11      	ldr	r7, [pc, #68]	@ (10005f5c <y64+0x58>)
10005f16:	6639      	str	r1, [r7, #96]	@ 0x60
10005f18:	667a      	str	r2, [r7, #100]	@ 0x64
10005f1a:	e7ff      	b.n	10005f1c <y64+0x18>
10005f1c:	e7ff      	b.n	10005f1e <y64+0x1a>
10005f1e:	b430      	push	{r4, r5}
10005f20:	0c04      	lsrs	r4, r0, #16
10005f22:	6f7b      	ldr	r3, [r7, #116]	@ 0x74
10005f24:	6f39      	ldr	r1, [r7, #112]	@ 0x70
10005f26:	041b      	lsls	r3, r3, #16
10005f28:	4323      	orrs	r3, r4
10005f2a:	663b      	str	r3, [r7, #96]	@ 0x60
10005f2c:	667a      	str	r2, [r7, #100]	@ 0x64
10005f2e:	e7ff      	b.n	10005f30 <y64+0x2c>
10005f30:	e7ff      	b.n	10005f32 <y64+0x2e>
10005f32:	e7ff      	b.n	10005f34 <y64+0x30>
10005f34:	46c0      	nop			@ (mov r8, r8)
10005f36:	b284      	uxth	r4, r0
10005f38:	6f7b      	ldr	r3, [r7, #116]	@ 0x74
10005f3a:	6f3d      	ldr	r5, [r7, #112]	@ 0x70
10005f3c:	041b      	lsls	r3, r3, #16
10005f3e:	4323      	orrs	r3, r4
10005f40:	663b      	str	r3, [r7, #96]	@ 0x60
10005f42:	667a      	str	r2, [r7, #100]	@ 0x64
10005f44:	e7ff      	b.n	10005f46 <y64+0x42>
10005f46:	e7ff      	b.n	10005f48 <y64+0x44>
10005f48:	46c0      	nop			@ (mov r8, r8)
10005f4a:	2300      	movs	r3, #0
10005f4c:	042c      	lsls	r4, r5, #16
10005f4e:	0c2d      	lsrs	r5, r5, #16
10005f50:	6f7a      	ldr	r2, [r7, #116]	@ 0x74
10005f52:	6f38      	ldr	r0, [r7, #112]	@ 0x70
10005f54:	1900      	adds	r0, r0, r4
10005f56:	4169      	adcs	r1, r5
